
AtmegaCommunication.elf:     file format elf32-avr

Sections:
Idx Name          Size      VMA       LMA       File off  Algn
  0 .data         000003e4  00800200  00003ab8  00003b4c  2**0
                  CONTENTS, ALLOC, LOAD, DATA
  1 .text         00003ab8  00000000  00000000  00000094  2**1
                  CONTENTS, ALLOC, LOAD, READONLY, CODE
  2 .bss          00000ac9  008005e4  008005e4  00003f30  2**0
                  ALLOC
  3 .stab         00002784  00000000  00000000  00003f30  2**2
                  CONTENTS, READONLY, DEBUGGING
  4 .stabstr      0000095a  00000000  00000000  000066b4  2**0
                  CONTENTS, READONLY, DEBUGGING
  5 .debug_aranges 00000260  00000000  00000000  00007010  2**3
                  CONTENTS, READONLY, DEBUGGING
  6 .debug_info   00002dd4  00000000  00000000  00007270  2**0
                  CONTENTS, READONLY, DEBUGGING
  7 .debug_abbrev 0000121e  00000000  00000000  0000a044  2**0
                  CONTENTS, READONLY, DEBUGGING
  8 .debug_line   000018b5  00000000  00000000  0000b262  2**0
                  CONTENTS, READONLY, DEBUGGING
  9 .debug_frame  00000d34  00000000  00000000  0000cb18  2**2
                  CONTENTS, READONLY, DEBUGGING
 10 .debug_str    00000eb0  00000000  00000000  0000d84c  2**0
                  CONTENTS, READONLY, DEBUGGING
 11 .debug_loc    00003356  00000000  00000000  0000e6fc  2**0
                  CONTENTS, READONLY, DEBUGGING
 12 .debug_ranges 000000b8  00000000  00000000  00011a52  2**0
                  CONTENTS, READONLY, DEBUGGING

Disassembly of section .text:

00000000 <__vectors>:
       0:	0c 94 72 00 	jmp	0xe4	; 0xe4 <__ctors_end>
       4:	0c 94 94 00 	jmp	0x128	; 0x128 <__bad_interrupt>
       8:	0c 94 94 00 	jmp	0x128	; 0x128 <__bad_interrupt>
       c:	0c 94 94 00 	jmp	0x128	; 0x128 <__bad_interrupt>
      10:	0c 94 94 00 	jmp	0x128	; 0x128 <__bad_interrupt>
      14:	0c 94 94 00 	jmp	0x128	; 0x128 <__bad_interrupt>
      18:	0c 94 94 00 	jmp	0x128	; 0x128 <__bad_interrupt>
      1c:	0c 94 94 00 	jmp	0x128	; 0x128 <__bad_interrupt>
      20:	0c 94 94 00 	jmp	0x128	; 0x128 <__bad_interrupt>
      24:	0c 94 94 00 	jmp	0x128	; 0x128 <__bad_interrupt>
      28:	0c 94 94 00 	jmp	0x128	; 0x128 <__bad_interrupt>
      2c:	0c 94 94 00 	jmp	0x128	; 0x128 <__bad_interrupt>
      30:	0c 94 94 00 	jmp	0x128	; 0x128 <__bad_interrupt>
      34:	0c 94 94 00 	jmp	0x128	; 0x128 <__bad_interrupt>
      38:	0c 94 94 00 	jmp	0x128	; 0x128 <__bad_interrupt>
      3c:	0c 94 94 00 	jmp	0x128	; 0x128 <__bad_interrupt>
      40:	0c 94 94 00 	jmp	0x128	; 0x128 <__bad_interrupt>
      44:	0c 94 94 00 	jmp	0x128	; 0x128 <__bad_interrupt>
      48:	0c 94 94 00 	jmp	0x128	; 0x128 <__bad_interrupt>
      4c:	0c 94 94 00 	jmp	0x128	; 0x128 <__bad_interrupt>
      50:	0c 94 94 00 	jmp	0x128	; 0x128 <__bad_interrupt>
      54:	0c 94 94 00 	jmp	0x128	; 0x128 <__bad_interrupt>
      58:	0c 94 94 00 	jmp	0x128	; 0x128 <__bad_interrupt>
      5c:	0c 94 26 18 	jmp	0x304c	; 0x304c <__vector_23>
      60:	0c 94 94 00 	jmp	0x128	; 0x128 <__bad_interrupt>
      64:	0c 94 35 08 	jmp	0x106a	; 0x106a <__vector_25>
      68:	0c 94 94 00 	jmp	0x128	; 0x128 <__bad_interrupt>
      6c:	0c 94 94 00 	jmp	0x128	; 0x128 <__bad_interrupt>
      70:	0c 94 94 00 	jmp	0x128	; 0x128 <__bad_interrupt>
      74:	0c 94 94 00 	jmp	0x128	; 0x128 <__bad_interrupt>
      78:	0c 94 94 00 	jmp	0x128	; 0x128 <__bad_interrupt>
      7c:	0c 94 94 00 	jmp	0x128	; 0x128 <__bad_interrupt>
      80:	0c 94 94 00 	jmp	0x128	; 0x128 <__bad_interrupt>
      84:	0c 94 94 00 	jmp	0x128	; 0x128 <__bad_interrupt>
      88:	0c 94 94 00 	jmp	0x128	; 0x128 <__bad_interrupt>
      8c:	0c 94 94 00 	jmp	0x128	; 0x128 <__bad_interrupt>
      90:	0c 94 12 06 	jmp	0xc24	; 0xc24 <__vector_36>
      94:	0c 94 94 00 	jmp	0x128	; 0x128 <__bad_interrupt>
      98:	0c 94 94 00 	jmp	0x128	; 0x128 <__bad_interrupt>
      9c:	0c 94 94 00 	jmp	0x128	; 0x128 <__bad_interrupt>
      a0:	0c 94 94 00 	jmp	0x128	; 0x128 <__bad_interrupt>
      a4:	0c 94 94 00 	jmp	0x128	; 0x128 <__bad_interrupt>
      a8:	0c 94 94 00 	jmp	0x128	; 0x128 <__bad_interrupt>
      ac:	0c 94 94 00 	jmp	0x128	; 0x128 <__bad_interrupt>
      b0:	0c 94 94 00 	jmp	0x128	; 0x128 <__bad_interrupt>
      b4:	0c 94 94 00 	jmp	0x128	; 0x128 <__bad_interrupt>
      b8:	0c 94 94 00 	jmp	0x128	; 0x128 <__bad_interrupt>
      bc:	0c 94 94 00 	jmp	0x128	; 0x128 <__bad_interrupt>
      c0:	0c 94 94 00 	jmp	0x128	; 0x128 <__bad_interrupt>
      c4:	0c 94 94 00 	jmp	0x128	; 0x128 <__bad_interrupt>
      c8:	0c 94 94 00 	jmp	0x128	; 0x128 <__bad_interrupt>
      cc:	0c 94 a7 07 	jmp	0xf4e	; 0xf4e <__vector_51>
      d0:	0c 94 94 00 	jmp	0x128	; 0x128 <__bad_interrupt>
      d4:	0c 94 94 00 	jmp	0x128	; 0x128 <__bad_interrupt>
      d8:	0c 94 94 00 	jmp	0x128	; 0x128 <__bad_interrupt>
      dc:	0c 94 94 00 	jmp	0x128	; 0x128 <__bad_interrupt>
      e0:	0c 94 94 00 	jmp	0x128	; 0x128 <__bad_interrupt>

000000e4 <__ctors_end>:
      e4:	11 24       	eor	r1, r1
      e6:	1f be       	out	0x3f, r1	; 63
      e8:	cf ef       	ldi	r28, 0xFF	; 255
      ea:	d1 e2       	ldi	r29, 0x21	; 33
      ec:	de bf       	out	0x3e, r29	; 62
      ee:	cd bf       	out	0x3d, r28	; 61
      f0:	00 e0       	ldi	r16, 0x00	; 0
      f2:	0c bf       	out	0x3c, r16	; 60

000000f4 <__do_copy_data>:
      f4:	15 e0       	ldi	r17, 0x05	; 5
      f6:	a0 e0       	ldi	r26, 0x00	; 0
      f8:	b2 e0       	ldi	r27, 0x02	; 2
      fa:	e8 eb       	ldi	r30, 0xB8	; 184
      fc:	fa e3       	ldi	r31, 0x3A	; 58
      fe:	00 e0       	ldi	r16, 0x00	; 0
     100:	0b bf       	out	0x3b, r16	; 59
     102:	02 c0       	rjmp	.+4      	; 0x108 <__do_copy_data+0x14>
     104:	07 90       	elpm	r0, Z+
     106:	0d 92       	st	X+, r0
     108:	a4 3e       	cpi	r26, 0xE4	; 228
     10a:	b1 07       	cpc	r27, r17
     10c:	d9 f7       	brne	.-10     	; 0x104 <__do_copy_data+0x10>
     10e:	1b be       	out	0x3b, r1	; 59

00000110 <__do_clear_bss>:
     110:	10 e1       	ldi	r17, 0x10	; 16
     112:	a4 ee       	ldi	r26, 0xE4	; 228
     114:	b5 e0       	ldi	r27, 0x05	; 5
     116:	01 c0       	rjmp	.+2      	; 0x11a <.do_clear_bss_start>

00000118 <.do_clear_bss_loop>:
     118:	1d 92       	st	X+, r1

0000011a <.do_clear_bss_start>:
     11a:	ad 3a       	cpi	r26, 0xAD	; 173
     11c:	b1 07       	cpc	r27, r17
     11e:	e1 f7       	brne	.-8      	; 0x118 <.do_clear_bss_loop>
     120:	0e 94 4f 02 	call	0x49e	; 0x49e <main>
     124:	0c 94 5a 1d 	jmp	0x3ab4	; 0x3ab4 <_exit>

00000128 <__bad_interrupt>:
     128:	0c 94 00 00 	jmp	0	; 0x0 <__vectors>

0000012c <AdcInit>:
     12c:	80 6c       	ori	r24, 0xC0	; 192
     12e:	80 93 7c 00 	sts	0x007C, r24
     132:	ea e7       	ldi	r30, 0x7A	; 122
     134:	f0 e0       	ldi	r31, 0x00	; 0
     136:	87 ea       	ldi	r24, 0xA7	; 167
     138:	80 83       	st	Z, r24
     13a:	80 81       	ld	r24, Z
     13c:	80 64       	ori	r24, 0x40	; 64
     13e:	80 83       	st	Z, r24
     140:	08 95       	ret

00000142 <AdcRead>:
     142:	ea e7       	ldi	r30, 0x7A	; 122
     144:	f0 e0       	ldi	r31, 0x00	; 0
     146:	80 81       	ld	r24, Z
     148:	84 ff       	sbrs	r24, 4
     14a:	fd cf       	rjmp	.-6      	; 0x146 <AdcRead+0x4>
     14c:	80 91 78 00 	lds	r24, 0x0078
     150:	90 91 79 00 	lds	r25, 0x0079
     154:	39 2f       	mov	r19, r25
     156:	20 e0       	ldi	r18, 0x00	; 0
     158:	90 e0       	ldi	r25, 0x00	; 0
     15a:	82 2b       	or	r24, r18
     15c:	93 2b       	or	r25, r19
     15e:	08 95       	ret

00000160 <eventCallback>:
volatile int gnTextLcdValue;

uint8_t bClientConnected;

static void eventCallback(int eventType,uint8_t* rxBuff, int rxSize)
{
     160:	ef 92       	push	r14
     162:	ff 92       	push	r15
     164:	0f 93       	push	r16
     166:	1f 93       	push	r17
     168:	cf 93       	push	r28
     16a:	df 93       	push	r29
     16c:	cd b7       	in	r28, 0x3d	; 61
     16e:	de b7       	in	r29, 0x3e	; 62
     170:	2c 97       	sbiw	r28, 0x0c	; 12
     172:	0f b6       	in	r0, 0x3f	; 63
     174:	f8 94       	cli
     176:	de bf       	out	0x3e, r29	; 62
     178:	0f be       	out	0x3f, r0	; 63
     17a:	cd bf       	out	0x3d, r28	; 61
	uint32_t obj_id;
	uint32_t entityValue1;
	uint32_t entityValue2;
	if (eventType == EVENT_RX_DATA) 
     17c:	81 30       	cpi	r24, 0x01	; 1
     17e:	91 05       	cpc	r25, r1
     180:	09 f0       	breq	.+2      	; 0x184 <eventCallback+0x24>
     182:	e8 c0       	rjmp	.+464    	; 0x354 <eventCallback+0x1f4>
	{
		if (pktParcingActuatorControl(rxBuff, rxSize, &obj_id, &entityValue1, &entityValue2) < 0 )
     184:	8a 01       	movw	r16, r20
     186:	22 27       	eor	r18, r18
     188:	17 fd       	sbrc	r17, 7
     18a:	20 95       	com	r18
     18c:	32 2f       	mov	r19, r18
     18e:	cb 01       	movw	r24, r22
     190:	b9 01       	movw	r22, r18
     192:	a8 01       	movw	r20, r16
     194:	9e 01       	movw	r18, r28
     196:	2f 5f       	subi	r18, 0xFF	; 255
     198:	3f 4f       	sbci	r19, 0xFF	; 255
     19a:	8e 01       	movw	r16, r28
     19c:	0b 5f       	subi	r16, 0xFB	; 251
     19e:	1f 4f       	sbci	r17, 0xFF	; 255
     1a0:	0f 2e       	mov	r0, r31
     1a2:	f9 e0       	ldi	r31, 0x09	; 9
     1a4:	ef 2e       	mov	r14, r31
     1a6:	ff 24       	eor	r15, r15
     1a8:	f0 2d       	mov	r31, r0
     1aa:	ec 0e       	add	r14, r28
     1ac:	fd 1e       	adc	r15, r29
     1ae:	0e 94 36 15 	call	0x2a6c	; 0x2a6c <pktParcingActuatorControl>
		{
			debugprint("Rx parcing fail.\r\n");
			return;			
		}
		debugprint("value1:%d,value2:%d\r\n",entityValue1,entityValue2);
     1b2:	8d b7       	in	r24, 0x3d	; 61
     1b4:	9e b7       	in	r25, 0x3e	; 62
     1b6:	0a 97       	sbiw	r24, 0x0a	; 10
     1b8:	0f b6       	in	r0, 0x3f	; 63
     1ba:	f8 94       	cli
     1bc:	9e bf       	out	0x3e, r25	; 62
     1be:	0f be       	out	0x3f, r0	; 63
     1c0:	8d bf       	out	0x3d, r24	; 61
     1c2:	ed b7       	in	r30, 0x3d	; 61
     1c4:	fe b7       	in	r31, 0x3e	; 62
     1c6:	31 96       	adiw	r30, 0x01	; 1
     1c8:	80 e0       	ldi	r24, 0x00	; 0
     1ca:	92 e0       	ldi	r25, 0x02	; 2
     1cc:	ad b7       	in	r26, 0x3d	; 61
     1ce:	be b7       	in	r27, 0x3e	; 62
     1d0:	12 96       	adiw	r26, 0x02	; 2
     1d2:	9c 93       	st	X, r25
     1d4:	8e 93       	st	-X, r24
     1d6:	11 97       	sbiw	r26, 0x01	; 1
     1d8:	8d 81       	ldd	r24, Y+5	; 0x05
     1da:	9e 81       	ldd	r25, Y+6	; 0x06
     1dc:	af 81       	ldd	r26, Y+7	; 0x07
     1de:	b8 85       	ldd	r27, Y+8	; 0x08
     1e0:	82 83       	std	Z+2, r24	; 0x02
     1e2:	93 83       	std	Z+3, r25	; 0x03
     1e4:	a4 83       	std	Z+4, r26	; 0x04
     1e6:	b5 83       	std	Z+5, r27	; 0x05
     1e8:	89 85       	ldd	r24, Y+9	; 0x09
     1ea:	9a 85       	ldd	r25, Y+10	; 0x0a
     1ec:	ab 85       	ldd	r26, Y+11	; 0x0b
     1ee:	bc 85       	ldd	r27, Y+12	; 0x0c
     1f0:	86 83       	std	Z+6, r24	; 0x06
     1f2:	97 83       	std	Z+7, r25	; 0x07
     1f4:	a0 87       	std	Z+8, r26	; 0x08
     1f6:	b1 87       	std	Z+9, r27	; 0x09
     1f8:	0e 94 e8 07 	call	0xfd0	; 0xfd0 <debugprint>
		switch(obj_id )
     1fc:	ed b7       	in	r30, 0x3d	; 61
     1fe:	fe b7       	in	r31, 0x3e	; 62
     200:	3a 96       	adiw	r30, 0x0a	; 10
     202:	0f b6       	in	r0, 0x3f	; 63
     204:	f8 94       	cli
     206:	fe bf       	out	0x3e, r31	; 62
     208:	0f be       	out	0x3f, r0	; 63
     20a:	ed bf       	out	0x3d, r30	; 61
     20c:	89 81       	ldd	r24, Y+1	; 0x01
     20e:	9a 81       	ldd	r25, Y+2	; 0x02
     210:	ab 81       	ldd	r26, Y+3	; 0x03
     212:	bc 81       	ldd	r27, Y+4	; 0x04
     214:	84 31       	cpi	r24, 0x14	; 20
     216:	91 05       	cpc	r25, r1
     218:	a1 05       	cpc	r26, r1
     21a:	b1 05       	cpc	r27, r1
     21c:	c1 f1       	breq	.+112    	; 0x28e <eventCallback+0x12e>
     21e:	85 31       	cpi	r24, 0x15	; 21
     220:	91 05       	cpc	r25, r1
     222:	a1 05       	cpc	r26, r1
     224:	b1 05       	cpc	r27, r1
     226:	38 f4       	brcc	.+14     	; 0x236 <eventCallback+0xd6>
     228:	82 31       	cpi	r24, 0x12	; 18
     22a:	91 05       	cpc	r25, r1
     22c:	a1 05       	cpc	r26, r1
     22e:	b1 05       	cpc	r27, r1
     230:	09 f0       	breq	.+2      	; 0x234 <eventCallback+0xd4>
     232:	82 c0       	rjmp	.+260    	; 0x338 <eventCallback+0x1d8>
     234:	0d c0       	rjmp	.+26     	; 0x250 <eventCallback+0xf0>
     236:	85 31       	cpi	r24, 0x15	; 21
     238:	91 05       	cpc	r25, r1
     23a:	a1 05       	cpc	r26, r1
     23c:	b1 05       	cpc	r27, r1
     23e:	09 f4       	brne	.+2      	; 0x242 <eventCallback+0xe2>
     240:	41 c0       	rjmp	.+130    	; 0x2c4 <eventCallback+0x164>
     242:	86 31       	cpi	r24, 0x16	; 22
     244:	91 05       	cpc	r25, r1
     246:	a1 05       	cpc	r26, r1
     248:	b1 05       	cpc	r27, r1
     24a:	09 f0       	breq	.+2      	; 0x24e <eventCallback+0xee>
     24c:	75 c0       	rjmp	.+234    	; 0x338 <eventCallback+0x1d8>
     24e:	59 c0       	rjmp	.+178    	; 0x302 <eventCallback+0x1a2>
		{
			case OBJECT_ID_FAN_CONTROL:
				gnFanOnValue = entityValue1;
     250:	8d 81       	ldd	r24, Y+5	; 0x05
     252:	9e 81       	ldd	r25, Y+6	; 0x06
     254:	90 93 0d 06 	sts	0x060D, r25
     258:	80 93 0c 06 	sts	0x060C, r24
				debugprint("gnFanOnValue : %d\r\n",gnFanOnValue);
     25c:	80 91 0c 06 	lds	r24, 0x060C
     260:	90 91 0d 06 	lds	r25, 0x060D
     264:	00 d0       	rcall	.+0      	; 0x266 <eventCallback+0x106>
     266:	0f 92       	push	r0
     268:	26 e1       	ldi	r18, 0x16	; 22
     26a:	32 e0       	ldi	r19, 0x02	; 2
     26c:	ad b7       	in	r26, 0x3d	; 61
     26e:	be b7       	in	r27, 0x3e	; 62
     270:	12 96       	adiw	r26, 0x02	; 2
     272:	3c 93       	st	X, r19
     274:	2e 93       	st	-X, r18
     276:	11 97       	sbiw	r26, 0x01	; 1
     278:	14 96       	adiw	r26, 0x04	; 4
     27a:	9c 93       	st	X, r25
     27c:	8e 93       	st	-X, r24
     27e:	13 97       	sbiw	r26, 0x03	; 3
     280:	0e 94 e8 07 	call	0xfd0	; 0xfd0 <debugprint>
				break;
     284:	0f 90       	pop	r0
     286:	0f 90       	pop	r0
     288:	0f 90       	pop	r0
     28a:	0f 90       	pop	r0
     28c:	63 c0       	rjmp	.+198    	; 0x354 <eventCallback+0x1f4>
			case OBJECT_ID_LED_CONTROL:
				gnLedOnValue = entityValue1;
     28e:	8d 81       	ldd	r24, Y+5	; 0x05
     290:	9e 81       	ldd	r25, Y+6	; 0x06
     292:	90 93 09 06 	sts	0x0609, r25
     296:	80 93 08 06 	sts	0x0608, r24
				debugprint("gnLedOnValue : %d\r\n",gnLedOnValue);
     29a:	80 91 08 06 	lds	r24, 0x0608
     29e:	90 91 09 06 	lds	r25, 0x0609
     2a2:	00 d0       	rcall	.+0      	; 0x2a4 <eventCallback+0x144>
     2a4:	0f 92       	push	r0
     2a6:	2a e2       	ldi	r18, 0x2A	; 42
     2a8:	32 e0       	ldi	r19, 0x02	; 2
     2aa:	ed b7       	in	r30, 0x3d	; 61
     2ac:	fe b7       	in	r31, 0x3e	; 62
     2ae:	32 83       	std	Z+2, r19	; 0x02
     2b0:	21 83       	std	Z+1, r18	; 0x01
     2b2:	94 83       	std	Z+4, r25	; 0x04
     2b4:	83 83       	std	Z+3, r24	; 0x03
     2b6:	0e 94 e8 07 	call	0xfd0	; 0xfd0 <debugprint>
				break;
     2ba:	0f 90       	pop	r0
     2bc:	0f 90       	pop	r0
     2be:	0f 90       	pop	r0
     2c0:	0f 90       	pop	r0
     2c2:	48 c0       	rjmp	.+144    	; 0x354 <eventCallback+0x1f4>
			case OBJECT_ID_MOTOR_CONTROL:
				gnMotorValue = entityValue1;
     2c4:	8d 81       	ldd	r24, Y+5	; 0x05
     2c6:	9e 81       	ldd	r25, Y+6	; 0x06
     2c8:	90 93 0b 06 	sts	0x060B, r25
     2cc:	80 93 0a 06 	sts	0x060A, r24
				debugprint("gnMotorValue : %d\r\n",gnMotorValue);
     2d0:	80 91 0a 06 	lds	r24, 0x060A
     2d4:	90 91 0b 06 	lds	r25, 0x060B
     2d8:	00 d0       	rcall	.+0      	; 0x2da <eventCallback+0x17a>
     2da:	0f 92       	push	r0
     2dc:	2e e3       	ldi	r18, 0x3E	; 62
     2de:	32 e0       	ldi	r19, 0x02	; 2
     2e0:	ad b7       	in	r26, 0x3d	; 61
     2e2:	be b7       	in	r27, 0x3e	; 62
     2e4:	12 96       	adiw	r26, 0x02	; 2
     2e6:	3c 93       	st	X, r19
     2e8:	2e 93       	st	-X, r18
     2ea:	11 97       	sbiw	r26, 0x01	; 1
     2ec:	14 96       	adiw	r26, 0x04	; 4
     2ee:	9c 93       	st	X, r25
     2f0:	8e 93       	st	-X, r24
     2f2:	13 97       	sbiw	r26, 0x03	; 3
     2f4:	0e 94 e8 07 	call	0xfd0	; 0xfd0 <debugprint>
				break;
     2f8:	0f 90       	pop	r0
     2fa:	0f 90       	pop	r0
     2fc:	0f 90       	pop	r0
     2fe:	0f 90       	pop	r0
     300:	29 c0       	rjmp	.+82     	; 0x354 <eventCallback+0x1f4>
			case OBJECT_ID_TEXTLCD_CONTROL:
				gnTextLcdValue = entityValue1;
     302:	8d 81       	ldd	r24, Y+5	; 0x05
     304:	9e 81       	ldd	r25, Y+6	; 0x06
     306:	90 93 fb 05 	sts	0x05FB, r25
     30a:	80 93 fa 05 	sts	0x05FA, r24
				debugprint("gnTextLcdValue : %d\r\n",gnTextLcdValue);
     30e:	80 91 fa 05 	lds	r24, 0x05FA
     312:	90 91 fb 05 	lds	r25, 0x05FB
     316:	00 d0       	rcall	.+0      	; 0x318 <eventCallback+0x1b8>
     318:	0f 92       	push	r0
     31a:	22 e5       	ldi	r18, 0x52	; 82
     31c:	32 e0       	ldi	r19, 0x02	; 2
     31e:	ed b7       	in	r30, 0x3d	; 61
     320:	fe b7       	in	r31, 0x3e	; 62
     322:	32 83       	std	Z+2, r19	; 0x02
     324:	21 83       	std	Z+1, r18	; 0x01
     326:	94 83       	std	Z+4, r25	; 0x04
     328:	83 83       	std	Z+3, r24	; 0x03
     32a:	0e 94 e8 07 	call	0xfd0	; 0xfd0 <debugprint>
				break;
     32e:	0f 90       	pop	r0
     330:	0f 90       	pop	r0
     332:	0f 90       	pop	r0
     334:	0f 90       	pop	r0
     336:	0e c0       	rjmp	.+28     	; 0x354 <eventCallback+0x1f4>
			default:
				debugprint("no supported object id.\r\n");
     338:	0f 92       	push	r0
     33a:	0f 92       	push	r0
     33c:	88 e6       	ldi	r24, 0x68	; 104
     33e:	92 e0       	ldi	r25, 0x02	; 2
     340:	ad b7       	in	r26, 0x3d	; 61
     342:	be b7       	in	r27, 0x3e	; 62
     344:	12 96       	adiw	r26, 0x02	; 2
     346:	9c 93       	st	X, r25
     348:	8e 93       	st	-X, r24
     34a:	11 97       	sbiw	r26, 0x01	; 1
     34c:	0e 94 e8 07 	call	0xfd0	; 0xfd0 <debugprint>
				break;  
     350:	0f 90       	pop	r0
     352:	0f 90       	pop	r0
		}
	}
}
     354:	2c 96       	adiw	r28, 0x0c	; 12
     356:	0f b6       	in	r0, 0x3f	; 63
     358:	f8 94       	cli
     35a:	de bf       	out	0x3e, r29	; 62
     35c:	0f be       	out	0x3f, r0	; 63
     35e:	cd bf       	out	0x3d, r28	; 61
     360:	df 91       	pop	r29
     362:	cf 91       	pop	r28
     364:	1f 91       	pop	r17
     366:	0f 91       	pop	r16
     368:	ff 90       	pop	r15
     36a:	ef 90       	pop	r14
     36c:	08 95       	ret

0000036e <SendSensorData>:
		}
	}
}

void SendSensorData( handler_id handleId, int sensorEntity1Value, int sensorEntity2Value)
{
     36e:	cf 92       	push	r12
     370:	df 92       	push	r13
     372:	ef 92       	push	r14
     374:	ff 92       	push	r15
     376:	0f 93       	push	r16
     378:	1f 93       	push	r17
     37a:	cf 93       	push	r28
     37c:	df 93       	push	r29
     37e:	00 d0       	rcall	.+0      	; 0x380 <SendSensorData+0x12>
     380:	0f 92       	push	r0
     382:	cd b7       	in	r28, 0x3d	; 61
     384:	de b7       	in	r29, 0x3e	; 62
     386:	69 01       	movw	r12, r18
	uint32_t len;
	uint8_t* buff;
	buff = makePkt(handleId,&len,sensorEntity1Value,sensorEntity2Value); // make packet
     388:	8a 01       	movw	r16, r20
     38a:	22 27       	eor	r18, r18
     38c:	17 fd       	sbrc	r17, 7
     38e:	20 95       	com	r18
     390:	32 2f       	mov	r19, r18
     392:	ee 24       	eor	r14, r14
     394:	d7 fc       	sbrc	r13, 7
     396:	e0 94       	com	r14
     398:	fe 2c       	mov	r15, r14
     39a:	ae 01       	movw	r20, r28
     39c:	4f 5f       	subi	r20, 0xFF	; 255
     39e:	5f 4f       	sbci	r21, 0xFF	; 255
     3a0:	0e 94 e7 14 	call	0x29ce	; 0x29ce <makePkt>
	if ( buff == 0)
     3a4:	00 97       	sbiw	r24, 0x00	; 0
     3a6:	69 f4       	brne	.+26     	; 0x3c2 <SendSensorData+0x54>
	{
		debugprint("SendSensor Data -- makePkt error.\n");
     3a8:	0f 92       	push	r0
     3aa:	0f 92       	push	r0
     3ac:	82 e8       	ldi	r24, 0x82	; 130
     3ae:	92 e0       	ldi	r25, 0x02	; 2
     3b0:	ed b7       	in	r30, 0x3d	; 61
     3b2:	fe b7       	in	r31, 0x3e	; 62
     3b4:	92 83       	std	Z+2, r25	; 0x02
     3b6:	81 83       	std	Z+1, r24	; 0x01
     3b8:	0e 94 e8 07 	call	0xfd0	; 0xfd0 <debugprint>
		return;
     3bc:	0f 90       	pop	r0
     3be:	0f 90       	pop	r0
     3c0:	15 c0       	rjmp	.+42     	; 0x3ec <SendSensorData+0x7e>
	}
	if ( bClientConnected)
     3c2:	20 91 f9 05 	lds	r18, 0x05F9
     3c6:	22 23       	and	r18, r18
     3c8:	29 f0       	breq	.+10     	; 0x3d4 <SendSensorData+0x66>
	{
		wifiSendData(buff, len);
     3ca:	69 81       	ldd	r22, Y+1	; 0x01
     3cc:	7a 81       	ldd	r23, Y+2	; 0x02
     3ce:	0e 94 75 0e 	call	0x1cea	; 0x1cea <wifiSendData>
     3d2:	0c c0       	rjmp	.+24     	; 0x3ec <SendSensorData+0x7e>
	}
	else
	{
		debugprint("disconnected, tx error\r\n");
     3d4:	0f 92       	push	r0
     3d6:	0f 92       	push	r0
     3d8:	85 ea       	ldi	r24, 0xA5	; 165
     3da:	92 e0       	ldi	r25, 0x02	; 2
     3dc:	ed b7       	in	r30, 0x3d	; 61
     3de:	fe b7       	in	r31, 0x3e	; 62
     3e0:	92 83       	std	Z+2, r25	; 0x02
     3e2:	81 83       	std	Z+1, r24	; 0x01
     3e4:	0e 94 e8 07 	call	0xfd0	; 0xfd0 <debugprint>
     3e8:	0f 90       	pop	r0
     3ea:	0f 90       	pop	r0
	}				    
}
     3ec:	0f 90       	pop	r0
     3ee:	0f 90       	pop	r0
     3f0:	0f 90       	pop	r0
     3f2:	0f 90       	pop	r0
     3f4:	df 91       	pop	r29
     3f6:	cf 91       	pop	r28
     3f8:	1f 91       	pop	r17
     3fa:	0f 91       	pop	r16
     3fc:	ff 90       	pop	r15
     3fe:	ef 90       	pop	r14
     400:	df 90       	pop	r13
     402:	cf 90       	pop	r12
     404:	08 95       	ret

00000406 <SendActuatorData>:

void SendActuatorData (handler_id handleId, int actuatorEntity1Value, int actuatorEntity2Value)
{
     406:	cf 92       	push	r12
     408:	df 92       	push	r13
     40a:	ef 92       	push	r14
     40c:	ff 92       	push	r15
     40e:	0f 93       	push	r16
     410:	1f 93       	push	r17
     412:	cf 93       	push	r28
     414:	df 93       	push	r29
     416:	00 d0       	rcall	.+0      	; 0x418 <SendActuatorData+0x12>
     418:	0f 92       	push	r0
     41a:	cd b7       	in	r28, 0x3d	; 61
     41c:	de b7       	in	r29, 0x3e	; 62
     41e:	69 01       	movw	r12, r18
	uint32_t len;
	uint8_t* buff;
	buff = makePkt(handleId,&len,actuatorEntity1Value,actuatorEntity2Value); // make packet
     420:	8a 01       	movw	r16, r20
     422:	22 27       	eor	r18, r18
     424:	17 fd       	sbrc	r17, 7
     426:	20 95       	com	r18
     428:	32 2f       	mov	r19, r18
     42a:	ee 24       	eor	r14, r14
     42c:	d7 fc       	sbrc	r13, 7
     42e:	e0 94       	com	r14
     430:	fe 2c       	mov	r15, r14
     432:	ae 01       	movw	r20, r28
     434:	4f 5f       	subi	r20, 0xFF	; 255
     436:	5f 4f       	sbci	r21, 0xFF	; 255
     438:	0e 94 e7 14 	call	0x29ce	; 0x29ce <makePkt>
	if ( buff == 0)
     43c:	00 97       	sbiw	r24, 0x00	; 0
     43e:	69 f4       	brne	.+26     	; 0x45a <SendActuatorData+0x54>
	{
		debugprint("actuator Data -- makePkt error.\n");
     440:	0f 92       	push	r0
     442:	0f 92       	push	r0
     444:	8e eb       	ldi	r24, 0xBE	; 190
     446:	92 e0       	ldi	r25, 0x02	; 2
     448:	ed b7       	in	r30, 0x3d	; 61
     44a:	fe b7       	in	r31, 0x3e	; 62
     44c:	92 83       	std	Z+2, r25	; 0x02
     44e:	81 83       	std	Z+1, r24	; 0x01
     450:	0e 94 e8 07 	call	0xfd0	; 0xfd0 <debugprint>
		return;
     454:	0f 90       	pop	r0
     456:	0f 90       	pop	r0
     458:	15 c0       	rjmp	.+42     	; 0x484 <SendActuatorData+0x7e>
	}
	if ( bClientConnected)
     45a:	20 91 f9 05 	lds	r18, 0x05F9
     45e:	22 23       	and	r18, r18
     460:	29 f0       	breq	.+10     	; 0x46c <SendActuatorData+0x66>
	{
		wifiSendData(buff, len);
     462:	69 81       	ldd	r22, Y+1	; 0x01
     464:	7a 81       	ldd	r23, Y+2	; 0x02
     466:	0e 94 75 0e 	call	0x1cea	; 0x1cea <wifiSendData>
     46a:	0c c0       	rjmp	.+24     	; 0x484 <SendActuatorData+0x7e>
	}
	else
	{
		debugprint("disconnected, tx error\r\n");
     46c:	0f 92       	push	r0
     46e:	0f 92       	push	r0
     470:	85 ea       	ldi	r24, 0xA5	; 165
     472:	92 e0       	ldi	r25, 0x02	; 2
     474:	ed b7       	in	r30, 0x3d	; 61
     476:	fe b7       	in	r31, 0x3e	; 62
     478:	92 83       	std	Z+2, r25	; 0x02
     47a:	81 83       	std	Z+1, r24	; 0x01
     47c:	0e 94 e8 07 	call	0xfd0	; 0xfd0 <debugprint>
     480:	0f 90       	pop	r0
     482:	0f 90       	pop	r0
	}		
}
     484:	0f 90       	pop	r0
     486:	0f 90       	pop	r0
     488:	0f 90       	pop	r0
     48a:	0f 90       	pop	r0
     48c:	df 91       	pop	r29
     48e:	cf 91       	pop	r28
     490:	1f 91       	pop	r17
     492:	0f 91       	pop	r16
     494:	ff 90       	pop	r15
     496:	ef 90       	pop	r14
     498:	df 90       	pop	r13
     49a:	cf 90       	pop	r12
     49c:	08 95       	ret

0000049e <main>:
		}
	}
}

int main(void)
{
     49e:	cf 93       	push	r28
     4a0:	df 93       	push	r29
     4a2:	cd b7       	in	r28, 0x3d	; 61
     4a4:	de b7       	in	r29, 0x3e	; 62
     4a6:	c5 56       	subi	r28, 0x65	; 101
     4a8:	d0 40       	sbci	r29, 0x00	; 0
     4aa:	0f b6       	in	r0, 0x3f	; 63
     4ac:	f8 94       	cli
     4ae:	de bf       	out	0x3e, r29	; 62
     4b0:	0f be       	out	0x3f, r0	; 63
     4b2:	cd bf       	out	0x3d, r28	; 61
	debugInit();	
     4b4:	0e 94 d1 07 	call	0xfa2	; 0xfa2 <debugInit>
	wifiInit();			// init wifi
     4b8:	0e 94 8a 08 	call	0x1114	; 0x1114 <wifiInit>
	btInit();			// init bluetooth
     4bc:	0e 94 54 06 	call	0xca8	; 0xca8 <btInit>
	
	sei();				// set interrupt
     4c0:	78 94       	sei
	
	
	debugprint("\r\nread Bluetooth Mac Address \r\n");
     4c2:	0f 92       	push	r0
     4c4:	0f 92       	push	r0
     4c6:	8f ed       	ldi	r24, 0xDF	; 223
     4c8:	92 e0       	ldi	r25, 0x02	; 2
     4ca:	ad b7       	in	r26, 0x3d	; 61
     4cc:	be b7       	in	r27, 0x3e	; 62
     4ce:	12 96       	adiw	r26, 0x02	; 2
     4d0:	9c 93       	st	X, r25
     4d2:	8e 93       	st	-X, r24
     4d4:	11 97       	sbiw	r26, 0x01	; 1
     4d6:	0e 94 e8 07 	call	0xfd0	; 0xfd0 <debugprint>
	btprint("AT+ADDR?");
     4da:	8f ef       	ldi	r24, 0xFF	; 255
     4dc:	92 e0       	ldi	r25, 0x02	; 2
     4de:	ed b7       	in	r30, 0x3d	; 61
     4e0:	fe b7       	in	r31, 0x3e	; 62
     4e2:	92 83       	std	Z+2, r25	; 0x02
     4e4:	81 83       	std	Z+1, r24	; 0x01
     4e6:	0e 94 67 06 	call	0xcce	; 0xcce <btprint>
	#else
		//round up by default
		__ticks_dc = (uint32_t)(ceil(fabs(__tmp)));
	#endif

	__builtin_avr_delay_cycles(__ticks_dc);
     4ea:	8f ef       	ldi	r24, 0xFF	; 255
     4ec:	9f ef       	ldi	r25, 0xFF	; 255
     4ee:	ac e2       	ldi	r26, 0x2C	; 44
     4f0:	81 50       	subi	r24, 0x01	; 1
     4f2:	90 40       	sbci	r25, 0x00	; 0
     4f4:	a0 40       	sbci	r26, 0x00	; 0
     4f6:	e1 f7       	brne	.-8      	; 0x4f0 <main+0x52>
     4f8:	00 c0       	rjmp	.+0      	; 0x4fa <main+0x5c>
     4fa:	00 00       	nop

	_delay_ms(1000);

	btReadMac();
     4fc:	0f 90       	pop	r0
     4fe:	0f 90       	pop	r0
     500:	0e 94 98 06 	call	0xd30	; 0xd30 <btReadMac>
     504:	8f ef       	ldi	r24, 0xFF	; 255
     506:	9f ef       	ldi	r25, 0xFF	; 255
     508:	a3 eb       	ldi	r26, 0xB3	; 179
     50a:	81 50       	subi	r24, 0x01	; 1
     50c:	90 40       	sbci	r25, 0x00	; 0
     50e:	a0 40       	sbci	r26, 0x00	; 0
     510:	e1 f7       	brne	.-8      	; 0x50a <main+0x6c>
     512:	00 c0       	rjmp	.+0      	; 0x514 <main+0x76>
     514:	00 00       	nop
	_delay_ms(4000);
	
	
	debugprint("wifi start\r\n");
     516:	0f 92       	push	r0
     518:	0f 92       	push	r0
     51a:	88 e0       	ldi	r24, 0x08	; 8
     51c:	93 e0       	ldi	r25, 0x03	; 3
     51e:	ad b7       	in	r26, 0x3d	; 61
     520:	be b7       	in	r27, 0x3e	; 62
     522:	12 96       	adiw	r26, 0x02	; 2
     524:	9c 93       	st	X, r25
     526:	8e 93       	st	-X, r24
     528:	11 97       	sbiw	r26, 0x01	; 1
     52a:	0e 94 e8 07 	call	0xfd0	; 0xfd0 <debugprint>
     52e:	8f ef       	ldi	r24, 0xFF	; 255
     530:	9f ef       	ldi	r25, 0xFF	; 255
     532:	ac e2       	ldi	r26, 0x2C	; 44
     534:	81 50       	subi	r24, 0x01	; 1
     536:	90 40       	sbci	r25, 0x00	; 0
     538:	a0 40       	sbci	r26, 0x00	; 0
     53a:	e1 f7       	brne	.-8      	; 0x534 <main+0x96>
     53c:	00 c0       	rjmp	.+0      	; 0x53e <main+0xa0>
     53e:	00 00       	nop
	_delay_ms(1000);

	wificlearUartBuff();
     540:	0f 90       	pop	r0
     542:	0f 90       	pop	r0
     544:	0e 94 fe 0e 	call	0x1dfc	; 0x1dfc <wificlearUartBuff>
	// UART echo disable 
	wifiEchoDisable();
     548:	0e 94 1f 0f 	call	0x1e3e	; 0x1e3e <wifiEchoDisable>
	wificlearUartBuff();
     54c:	0e 94 fe 0e 	call	0x1dfc	; 0x1dfc <wificlearUartBuff>
	
	// register callback function 
	wifiSetEventCallback(eventCallback);
     550:	80 eb       	ldi	r24, 0xB0	; 176
     552:	90 e0       	ldi	r25, 0x00	; 0
     554:	0e 94 6f 0e 	call	0x1cde	; 0x1cde <wifiSetEventCallback>
	
	// Auto connection disable
	wifiAutoConnectDisable();
     558:	0e 94 05 0f 	call	0x1e0a	; 0x1e0a <wifiAutoConnectDisable>
	wificlearUartBuff();
     55c:	0e 94 fe 0e 	call	0x1dfc	; 0x1dfc <wificlearUartBuff>
	
	wifiModeSet();
     560:	0e 94 1a 0e 	call	0x1c34	; 0x1c34 <wifiModeSet>
	
	wifiEnableDHCP();
     564:	0e 94 38 0e 	call	0x1c70	; 0x1c70 <wifiEnableDHCP>
	
	debugprint("\r\nAP list display:\r\n");
     568:	0f 92       	push	r0
     56a:	0f 92       	push	r0
     56c:	85 e1       	ldi	r24, 0x15	; 21
     56e:	93 e0       	ldi	r25, 0x03	; 3
     570:	ad b7       	in	r26, 0x3d	; 61
     572:	be b7       	in	r27, 0x3e	; 62
     574:	12 96       	adiw	r26, 0x02	; 2
     576:	9c 93       	st	X, r25
     578:	8e 93       	st	-X, r24
     57a:	11 97       	sbiw	r26, 0x01	; 1
     57c:	0e 94 e8 07 	call	0xfd0	; 0xfd0 <debugprint>
	wifiDisplayAPlist();
     580:	0f 90       	pop	r0
     582:	0f 90       	pop	r0
     584:	0e 94 e2 0d 	call	0x1bc4	; 0x1bc4 <wifiDisplayAPlist>
	
	// connect  AP 
	debugprint("\r\n");
     588:	0f 92       	push	r0
     58a:	0f 92       	push	r0
     58c:	8a e2       	ldi	r24, 0x2A	; 42
     58e:	93 e0       	ldi	r25, 0x03	; 3
     590:	ed b7       	in	r30, 0x3d	; 61
     592:	fe b7       	in	r31, 0x3e	; 62
     594:	92 83       	std	Z+2, r25	; 0x02
     596:	81 83       	std	Z+1, r24	; 0x01
     598:	0e 94 e8 07 	call	0xfd0	; 0xfd0 <debugprint>
	if ( !wifiConnectAP(SELECTED_AP_SSID, SELECTED_AP_PASS))
     59c:	0f 90       	pop	r0
     59e:	0f 90       	pop	r0
     5a0:	8d e2       	ldi	r24, 0x2D	; 45
     5a2:	93 e0       	ldi	r25, 0x03	; 3
     5a4:	66 e3       	ldi	r22, 0x36	; 54
     5a6:	73 e0       	ldi	r23, 0x03	; 3
     5a8:	0e 94 fc 0d 	call	0x1bf8	; 0x1bf8 <wifiConnectAP>
     5ac:	88 23       	and	r24, r24
     5ae:	79 f4       	brne	.+30     	; 0x5ce <main+0x130>
	{
		debugprint("AP connected.\r\n");
     5b0:	0f 92       	push	r0
     5b2:	0f 92       	push	r0
     5b4:	84 e4       	ldi	r24, 0x44	; 68
     5b6:	93 e0       	ldi	r25, 0x03	; 3
     5b8:	ad b7       	in	r26, 0x3d	; 61
     5ba:	be b7       	in	r27, 0x3e	; 62
     5bc:	12 96       	adiw	r26, 0x02	; 2
     5be:	9c 93       	st	X, r25
     5c0:	8e 93       	st	-X, r24
     5c2:	11 97       	sbiw	r26, 0x01	; 1
     5c4:	0e 94 e8 07 	call	0xfd0	; 0xfd0 <debugprint>
     5c8:	0f 90       	pop	r0
     5ca:	0f 90       	pop	r0
     5cc:	0c c0       	rjmp	.+24     	; 0x5e6 <main+0x148>
	}
	else
	{
		debugprint("AP connection fail.\r\n");
     5ce:	0f 92       	push	r0
     5d0:	0f 92       	push	r0
     5d2:	84 e5       	ldi	r24, 0x54	; 84
     5d4:	93 e0       	ldi	r25, 0x03	; 3
     5d6:	ed b7       	in	r30, 0x3d	; 61
     5d8:	fe b7       	in	r31, 0x3e	; 62
     5da:	92 83       	std	Z+2, r25	; 0x02
     5dc:	81 83       	std	Z+1, r24	; 0x01
     5de:	0e 94 e8 07 	call	0xfd0	; 0xfd0 <debugprint>
     5e2:	0f 90       	pop	r0
     5e4:	0f 90       	pop	r0
	}
	// display local allocated IP 
	debugprint("\r\n Allocated local IP:\r\n");
     5e6:	0f 92       	push	r0
     5e8:	0f 92       	push	r0
     5ea:	8a e6       	ldi	r24, 0x6A	; 106
     5ec:	93 e0       	ldi	r25, 0x03	; 3
     5ee:	ad b7       	in	r26, 0x3d	; 61
     5f0:	be b7       	in	r27, 0x3e	; 62
     5f2:	12 96       	adiw	r26, 0x02	; 2
     5f4:	9c 93       	st	X, r25
     5f6:	8e 93       	st	-X, r24
     5f8:	11 97       	sbiw	r26, 0x01	; 1
     5fa:	0e 94 e8 07 	call	0xfd0	; 0xfd0 <debugprint>
	wifiDisplayLocalIP();
     5fe:	0f 90       	pop	r0
     600:	0f 90       	pop	r0
     602:	0e 94 29 0e 	call	0x1c52	; 0x1c52 <wifiDisplayLocalIP>
	debugprint("\r\n");
     606:	0f 92       	push	r0
     608:	0f 92       	push	r0
     60a:	8a e2       	ldi	r24, 0x2A	; 42
     60c:	93 e0       	ldi	r25, 0x03	; 3
     60e:	ed b7       	in	r30, 0x3d	; 61
     610:	fe b7       	in	r31, 0x3e	; 62
     612:	92 83       	std	Z+2, r25	; 0x02
     614:	81 83       	std	Z+1, r24	; 0x01
     616:	0e 94 e8 07 	call	0xfd0	; 0xfd0 <debugprint>
	
	// TCP remote server connection
	if( !wifiConnectTCPServer(SERVER_IP_STR,SERVER_PORT))
     61a:	0f 90       	pop	r0
     61c:	0f 90       	pop	r0
     61e:	83 e8       	ldi	r24, 0x83	; 131
     620:	93 e0       	ldi	r25, 0x03	; 3
     622:	41 e5       	ldi	r20, 0x51	; 81
     624:	53 ec       	ldi	r21, 0xC3	; 195
     626:	60 e0       	ldi	r22, 0x00	; 0
     628:	70 e0       	ldi	r23, 0x00	; 0
     62a:	0e 94 47 0e 	call	0x1c8e	; 0x1c8e <wifiConnectTCPServer>
     62e:	88 23       	and	r24, r24
     630:	91 f4       	brne	.+36     	; 0x656 <main+0x1b8>
	{
		bClientConnected = 1;
     632:	81 e0       	ldi	r24, 0x01	; 1
     634:	80 93 f9 05 	sts	0x05F9, r24
		debugprint("Connected Server.\r\n");
     638:	0f 92       	push	r0
     63a:	0f 92       	push	r0
     63c:	82 e9       	ldi	r24, 0x92	; 146
     63e:	93 e0       	ldi	r25, 0x03	; 3
     640:	ad b7       	in	r26, 0x3d	; 61
     642:	be b7       	in	r27, 0x3e	; 62
     644:	12 96       	adiw	r26, 0x02	; 2
     646:	9c 93       	st	X, r25
     648:	8e 93       	st	-X, r24
     64a:	11 97       	sbiw	r26, 0x01	; 1
     64c:	0e 94 e8 07 	call	0xfd0	; 0xfd0 <debugprint>
     650:	0f 90       	pop	r0
     652:	0f 90       	pop	r0
     654:	0e c0       	rjmp	.+28     	; 0x672 <main+0x1d4>
	}
	else
	{
		bClientConnected = 0;
     656:	10 92 f9 05 	sts	0x05F9, r1
		debugprint("Server connection fail.\r\n");
     65a:	0f 92       	push	r0
     65c:	0f 92       	push	r0
     65e:	86 ea       	ldi	r24, 0xA6	; 166
     660:	93 e0       	ldi	r25, 0x03	; 3
     662:	ed b7       	in	r30, 0x3d	; 61
     664:	fe b7       	in	r31, 0x3e	; 62
     666:	92 83       	std	Z+2, r25	; 0x02
     668:	81 83       	std	Z+1, r24	; 0x01
     66a:	0e 94 e8 07 	call	0xfd0	; 0xfd0 <debugprint>
     66e:	0f 90       	pop	r0
     670:	0f 90       	pop	r0
	}				
	debugprint("\r\n");
     672:	0f 92       	push	r0
     674:	0f 92       	push	r0
     676:	8a e2       	ldi	r24, 0x2A	; 42
     678:	93 e0       	ldi	r25, 0x03	; 3
     67a:	ad b7       	in	r26, 0x3d	; 61
     67c:	be b7       	in	r27, 0x3e	; 62
     67e:	12 96       	adiw	r26, 0x02	; 2
     680:	9c 93       	st	X, r25
     682:	8e 93       	st	-X, r24
     684:	11 97       	sbiw	r26, 0x01	; 1
     686:	0e 94 e8 07 	call	0xfd0	; 0xfd0 <debugprint>
	wificlearUartBuff();
     68a:	0f 90       	pop	r0
     68c:	0f 90       	pop	r0
     68e:	0e 94 fe 0e 	call	0x1dfc	; 0x1dfc <wificlearUartBuff>

/**********		temp, humi sensor		**********/
#ifdef TEMP_HUMI
	handler_id  handleIdSensor = -1;		// Temp sensor
	
	char  obj_des[] = OBJECT_DESC_TEMP_MONITOR;
     692:	de 01       	movw	r26, r28
     694:	11 96       	adiw	r26, 0x01	; 1
     696:	e2 e3       	ldi	r30, 0x32	; 50
     698:	f4 e0       	ldi	r31, 0x04	; 4
     69a:	8f e0       	ldi	r24, 0x0F	; 15
     69c:	01 90       	ld	r0, Z+
     69e:	0d 92       	st	X+, r0
     6a0:	81 50       	subi	r24, 0x01	; 1
     6a2:	e1 f7       	brne	.-8      	; 0x69c <main+0x1fe>
	char  entity_sort1[] = ENTITY_SORT1_TEMP_MONITOR;
     6a4:	83 e4       	ldi	r24, 0x43	; 67
     6a6:	90 e0       	ldi	r25, 0x00	; 0
     6a8:	99 8b       	std	Y+17, r25	; 0x11
     6aa:	88 8b       	std	Y+16, r24	; 0x10
	char  entity_sort2[] = ENTITY_SORT2_TEMP_MONITOR;
     6ac:	1a 8a       	std	Y+18, r1	; 0x12
	
	handleIdSensor = createPktHandle((uint32_t)CNDI_USER_DOMAIN,(uint32_t)CONTROL_ID, (uint32_t)OBJECT_ID_TEMP_MONITOR, obj_des, (uint8_t)CMD_OBJ_TYPE_SENSOR,1, 
     6ae:	00 d0       	rcall	.+0      	; 0x6b0 <main+0x212>
     6b0:	00 d0       	rcall	.+0      	; 0x6b2 <main+0x214>
     6b2:	ed b7       	in	r30, 0x3d	; 61
     6b4:	fe b7       	in	r31, 0x3e	; 62
     6b6:	31 96       	adiw	r30, 0x01	; 1
     6b8:	81 e0       	ldi	r24, 0x01	; 1
     6ba:	ad b7       	in	r26, 0x3d	; 61
     6bc:	be b7       	in	r27, 0x3e	; 62
     6be:	11 96       	adiw	r26, 0x01	; 1
     6c0:	8c 93       	st	X, r24
										(uint8_t)ENTITYID_1_TEMP_MONITOR1,entity_sort1,(uint8_t)ENTITYID_2_TEMP_MONITOR2, entity_sort2); 
     6c2:	ce 01       	movw	r24, r28
     6c4:	40 96       	adiw	r24, 0x10	; 16
	
	char  obj_des[] = OBJECT_DESC_TEMP_MONITOR;
	char  entity_sort1[] = ENTITY_SORT1_TEMP_MONITOR;
	char  entity_sort2[] = ENTITY_SORT2_TEMP_MONITOR;
	
	handleIdSensor = createPktHandle((uint32_t)CNDI_USER_DOMAIN,(uint32_t)CONTROL_ID, (uint32_t)OBJECT_ID_TEMP_MONITOR, obj_des, (uint8_t)CMD_OBJ_TYPE_SENSOR,1, 
     6c6:	92 83       	std	Z+2, r25	; 0x02
     6c8:	81 83       	std	Z+1, r24	; 0x01
     6ca:	82 e0       	ldi	r24, 0x02	; 2
     6cc:	83 83       	std	Z+3, r24	; 0x03
										(uint8_t)ENTITYID_1_TEMP_MONITOR1,entity_sort1,(uint8_t)ENTITYID_2_TEMP_MONITOR2, entity_sort2); 
     6ce:	ce 01       	movw	r24, r28
     6d0:	42 96       	adiw	r24, 0x12	; 18
	
	char  obj_des[] = OBJECT_DESC_TEMP_MONITOR;
	char  entity_sort1[] = ENTITY_SORT1_TEMP_MONITOR;
	char  entity_sort2[] = ENTITY_SORT2_TEMP_MONITOR;
	
	handleIdSensor = createPktHandle((uint32_t)CNDI_USER_DOMAIN,(uint32_t)CONTROL_ID, (uint32_t)OBJECT_ID_TEMP_MONITOR, obj_des, (uint8_t)CMD_OBJ_TYPE_SENSOR,1, 
     6d2:	95 83       	std	Z+5, r25	; 0x05
     6d4:	84 83       	std	Z+4, r24	; 0x04
     6d6:	67 e5       	ldi	r22, 0x57	; 87
     6d8:	74 e0       	ldi	r23, 0x04	; 4
     6da:	80 e0       	ldi	r24, 0x00	; 0
     6dc:	90 e0       	ldi	r25, 0x00	; 0
     6de:	20 e1       	ldi	r18, 0x10	; 16
     6e0:	30 e0       	ldi	r19, 0x00	; 0
     6e2:	40 e0       	ldi	r20, 0x00	; 0
     6e4:	50 e0       	ldi	r21, 0x00	; 0
     6e6:	0f 2e       	mov	r0, r31
     6e8:	f1 e1       	ldi	r31, 0x11	; 17
     6ea:	ef 2e       	mov	r14, r31
     6ec:	f0 e0       	ldi	r31, 0x00	; 0
     6ee:	ff 2e       	mov	r15, r31
     6f0:	f0 e0       	ldi	r31, 0x00	; 0
     6f2:	0f 2f       	mov	r16, r31
     6f4:	f0 e0       	ldi	r31, 0x00	; 0
     6f6:	1f 2f       	mov	r17, r31
     6f8:	f0 2d       	mov	r31, r0
     6fa:	6e 01       	movw	r12, r28
     6fc:	08 94       	sec
     6fe:	c1 1c       	adc	r12, r1
     700:	d1 1c       	adc	r13, r1
     702:	aa 24       	eor	r10, r10
     704:	88 24       	eor	r8, r8
     706:	83 94       	inc	r8
     708:	0e 94 ff 12 	call	0x25fe	; 0x25fe <createPktHandle>
     70c:	a2 96       	adiw	r28, 0x22	; 34
     70e:	6c af       	sts	0x7c, r22
     710:	7d af       	sts	0x7d, r23
     712:	8e af       	sts	0x7e, r24
     714:	9f af       	sts	0x7f, r25
     716:	a2 97       	sbiw	r28, 0x22	; 34
										(uint8_t)ENTITYID_1_TEMP_MONITOR1,entity_sort1,(uint8_t)ENTITYID_2_TEMP_MONITOR2, entity_sort2); 

	int tempData;
	SHT11_Init();
     718:	ed b7       	in	r30, 0x3d	; 61
     71a:	fe b7       	in	r31, 0x3e	; 62
     71c:	36 96       	adiw	r30, 0x06	; 6
     71e:	0f b6       	in	r0, 0x3f	; 63
     720:	f8 94       	cli
     722:	fe bf       	out	0x3e, r31	; 62
     724:	0f be       	out	0x3f, r0	; 63
     726:	ed bf       	out	0x3d, r30	; 61
     728:	0e 94 1a 16 	call	0x2c34	; 0x2c34 <SHT11_Init>
	
	SendSensorData(handleIdSensor, SENSOR_INIT, 0);
     72c:	a2 96       	adiw	r28, 0x22	; 34
     72e:	6c ad       	sts	0x6c, r22
     730:	7d ad       	sts	0x6d, r23
     732:	8e ad       	sts	0x6e, r24
     734:	9f ad       	sts	0x6f, r25
     736:	a2 97       	sbiw	r28, 0x22	; 34
     738:	40 e0       	ldi	r20, 0x00	; 0
     73a:	50 e0       	ldi	r21, 0x00	; 0
     73c:	20 e0       	ldi	r18, 0x00	; 0
     73e:	30 e0       	ldi	r19, 0x00	; 0
     740:	0e 94 b7 01 	call	0x36e	; 0x36e <SendSensorData>

/**********		cds sensor		**********/
#ifdef CDS
	handler_id  handleIdSensor1 = -1;		// CDS sensor
	
	char  obj_des_s1[] = OBJECT_DESC_CDS_MONITOR;
     744:	fe 01       	movw	r30, r28
     746:	73 96       	adiw	r30, 0x13	; 19
     748:	a1 e4       	ldi	r26, 0x41	; 65
     74a:	b4 e0       	ldi	r27, 0x04	; 4
     74c:	8e e0       	ldi	r24, 0x0E	; 14
     74e:	0d 90       	ld	r0, X+
     750:	01 92       	st	Z+, r0
     752:	81 50       	subi	r24, 0x01	; 1
     754:	e1 f7       	brne	.-8      	; 0x74e <main+0x2b0>
	char  entity_sort1_s1[] = ENTITY_SORT1_CDS_MONITOR;
     756:	8c e4       	ldi	r24, 0x4C	; 76
     758:	95 e7       	ldi	r25, 0x75	; 117
     75a:	a8 e7       	ldi	r26, 0x78	; 120
     75c:	b0 e0       	ldi	r27, 0x00	; 0
     75e:	89 a3       	lds	r24, 0x59
     760:	9a a3       	lds	r25, 0x5a
     762:	ab a3       	lds	r26, 0x5b
     764:	bc a3       	lds	r27, 0x5c
	char  entity_sort2_s1[] = ENTITY_SORT2_CDS_MONITOR;
     766:	1d a2       	lds	r17, 0x9d
	
	handleIdSensor1 = createPktHandle((uint32_t)CNDI_USER_DOMAIN,(uint32_t)CONTROL_ID, (uint32_t)OBJECT_ID_CDS_MONITOR, obj_des_s1, (uint8_t)CMD_OBJ_TYPE_SENSOR,1,
     768:	00 d0       	rcall	.+0      	; 0x76a <main+0x2cc>
     76a:	00 d0       	rcall	.+0      	; 0x76c <main+0x2ce>
     76c:	ed b7       	in	r30, 0x3d	; 61
     76e:	fe b7       	in	r31, 0x3e	; 62
     770:	31 96       	adiw	r30, 0x01	; 1
     772:	81 e0       	ldi	r24, 0x01	; 1
     774:	ad b7       	in	r26, 0x3d	; 61
     776:	be b7       	in	r27, 0x3e	; 62
     778:	11 96       	adiw	r26, 0x01	; 1
     77a:	8c 93       	st	X, r24
										(uint8_t)ENTITYID_1_CDS_MONITOR1,entity_sort1_s1,(uint8_t)ENTITYID_2_CDS_MONITOR2, entity_sort2_s1);
     77c:	ce 01       	movw	r24, r28
     77e:	81 96       	adiw	r24, 0x21	; 33
	
	char  obj_des_s1[] = OBJECT_DESC_CDS_MONITOR;
	char  entity_sort1_s1[] = ENTITY_SORT1_CDS_MONITOR;
	char  entity_sort2_s1[] = ENTITY_SORT2_CDS_MONITOR;
	
	handleIdSensor1 = createPktHandle((uint32_t)CNDI_USER_DOMAIN,(uint32_t)CONTROL_ID, (uint32_t)OBJECT_ID_CDS_MONITOR, obj_des_s1, (uint8_t)CMD_OBJ_TYPE_SENSOR,1,
     780:	92 83       	std	Z+2, r25	; 0x02
     782:	81 83       	std	Z+1, r24	; 0x01
     784:	82 e0       	ldi	r24, 0x02	; 2
     786:	83 83       	std	Z+3, r24	; 0x03
										(uint8_t)ENTITYID_1_CDS_MONITOR1,entity_sort1_s1,(uint8_t)ENTITYID_2_CDS_MONITOR2, entity_sort2_s1);
     788:	ce 01       	movw	r24, r28
     78a:	85 96       	adiw	r24, 0x25	; 37
	
	char  obj_des_s1[] = OBJECT_DESC_CDS_MONITOR;
	char  entity_sort1_s1[] = ENTITY_SORT1_CDS_MONITOR;
	char  entity_sort2_s1[] = ENTITY_SORT2_CDS_MONITOR;
	
	handleIdSensor1 = createPktHandle((uint32_t)CNDI_USER_DOMAIN,(uint32_t)CONTROL_ID, (uint32_t)OBJECT_ID_CDS_MONITOR, obj_des_s1, (uint8_t)CMD_OBJ_TYPE_SENSOR,1,
     78c:	95 83       	std	Z+5, r25	; 0x05
     78e:	84 83       	std	Z+4, r24	; 0x04
     790:	67 e5       	ldi	r22, 0x57	; 87
     792:	74 e0       	ldi	r23, 0x04	; 4
     794:	80 e0       	ldi	r24, 0x00	; 0
     796:	90 e0       	ldi	r25, 0x00	; 0
     798:	20 e1       	ldi	r18, 0x10	; 16
     79a:	30 e0       	ldi	r19, 0x00	; 0
     79c:	40 e0       	ldi	r20, 0x00	; 0
     79e:	50 e0       	ldi	r21, 0x00	; 0
     7a0:	0f 2e       	mov	r0, r31
     7a2:	f3 e1       	ldi	r31, 0x13	; 19
     7a4:	ef 2e       	mov	r14, r31
     7a6:	f0 e0       	ldi	r31, 0x00	; 0
     7a8:	ff 2e       	mov	r15, r31
     7aa:	f0 e0       	ldi	r31, 0x00	; 0
     7ac:	0f 2f       	mov	r16, r31
     7ae:	f0 e0       	ldi	r31, 0x00	; 0
     7b0:	1f 2f       	mov	r17, r31
     7b2:	f0 2d       	mov	r31, r0
     7b4:	0f 2e       	mov	r0, r31
     7b6:	f3 e1       	ldi	r31, 0x13	; 19
     7b8:	cf 2e       	mov	r12, r31
     7ba:	dd 24       	eor	r13, r13
     7bc:	f0 2d       	mov	r31, r0
     7be:	cc 0e       	add	r12, r28
     7c0:	dd 1e       	adc	r13, r29
     7c2:	aa 24       	eor	r10, r10
     7c4:	88 24       	eor	r8, r8
     7c6:	83 94       	inc	r8
     7c8:	0e 94 ff 12 	call	0x25fe	; 0x25fe <createPktHandle>
     7cc:	a6 96       	adiw	r28, 0x26	; 38
     7ce:	6c af       	sts	0x7c, r22
     7d0:	7d af       	sts	0x7d, r23
     7d2:	8e af       	sts	0x7e, r24
     7d4:	9f af       	sts	0x7f, r25
     7d6:	a6 97       	sbiw	r28, 0x26	; 38
										(uint8_t)ENTITYID_1_CDS_MONITOR1,entity_sort1_s1,(uint8_t)ENTITYID_2_CDS_MONITOR2, entity_sort2_s1);

	int cdsData;
	CDS_Init(CDS_CHANNEL);		// CDS_CHANNEL = ADC channel
     7d8:	ed b7       	in	r30, 0x3d	; 61
     7da:	fe b7       	in	r31, 0x3e	; 62
     7dc:	36 96       	adiw	r30, 0x06	; 6
     7de:	0f b6       	in	r0, 0x3f	; 63
     7e0:	f8 94       	cli
     7e2:	fe bf       	out	0x3e, r31	; 62
     7e4:	0f be       	out	0x3f, r0	; 63
     7e6:	ed bf       	out	0x3d, r30	; 61
     7e8:	81 e0       	ldi	r24, 0x01	; 1
     7ea:	90 e0       	ldi	r25, 0x00	; 0
     7ec:	0e 94 9c 07 	call	0xf38	; 0xf38 <CDS_Init>
	
	SendSensorData(handleIdSensor1, SENSOR_INIT, 0);
     7f0:	a6 96       	adiw	r28, 0x26	; 38
     7f2:	6c ad       	sts	0x6c, r22
     7f4:	7d ad       	sts	0x6d, r23
     7f6:	8e ad       	sts	0x6e, r24
     7f8:	9f ad       	sts	0x6f, r25
     7fa:	a6 97       	sbiw	r28, 0x26	; 38
     7fc:	40 e0       	ldi	r20, 0x00	; 0
     7fe:	50 e0       	ldi	r21, 0x00	; 0
     800:	20 e0       	ldi	r18, 0x00	; 0
     802:	30 e0       	ldi	r19, 0x00	; 0
     804:	0e 94 b7 01 	call	0x36e	; 0x36e <SendSensorData>
     808:	8f ef       	ldi	r24, 0xFF	; 255
     80a:	9f ef       	ldi	r25, 0xFF	; 255
     80c:	ac e2       	ldi	r26, 0x2C	; 44
     80e:	81 50       	subi	r24, 0x01	; 1
     810:	90 40       	sbci	r25, 0x00	; 0
     812:	a0 40       	sbci	r26, 0x00	; 0
     814:	e1 f7       	brne	.-8      	; 0x80e <main+0x370>
     816:	00 c0       	rjmp	.+0      	; 0x818 <main+0x37a>
     818:	00 00       	nop

/**********		fan actuator		**********/
#ifdef FAN
	handler_id  handleIdActuator = -1;		// Fan Actuator
	
	char  obj_des_ac[] = OBJECT_DESC_FAN_CONTROL;
     81a:	fe 01       	movw	r30, r28
     81c:	b6 96       	adiw	r30, 0x26	; 38
     81e:	af e4       	ldi	r26, 0x4F	; 79
     820:	b4 e0       	ldi	r27, 0x04	; 4
     822:	8e e0       	ldi	r24, 0x0E	; 14
     824:	0d 90       	ld	r0, X+
     826:	01 92       	st	Z+, r0
     828:	81 50       	subi	r24, 0x01	; 1
     82a:	e1 f7       	brne	.-8      	; 0x824 <main+0x386>
	char  entity_sort1_ac[] = ENTITY_SORT1_FAN_CONTROL;
     82c:	fe 01       	movw	r30, r28
     82e:	f4 96       	adiw	r30, 0x34	; 52
     830:	ad e5       	ldi	r26, 0x5D	; 93
     832:	b4 e0       	ldi	r27, 0x04	; 4
     834:	83 e0       	ldi	r24, 0x03	; 3
     836:	0d 90       	ld	r0, X+
     838:	01 92       	st	Z+, r0
     83a:	81 50       	subi	r24, 0x01	; 1
     83c:	e1 f7       	brne	.-8      	; 0x836 <main+0x398>
	char  entity_sort2_ac[] = ENTITY_SORT2_FAN_CONTROL;
     83e:	1f aa       	sts	0x9f, r17
	
	handleIdActuator = createPktHandle((uint32_t)CNDI_USER_DOMAIN,(uint32_t)CONTROL_ID, (uint32_t)OBJECT_ID_FAN_CONTROL, obj_des_ac, (uint8_t)CMD_OBJ_TYPE_ACTUATOR,1,
     840:	00 d0       	rcall	.+0      	; 0x842 <main+0x3a4>
     842:	00 d0       	rcall	.+0      	; 0x844 <main+0x3a6>
     844:	ed b7       	in	r30, 0x3d	; 61
     846:	fe b7       	in	r31, 0x3e	; 62
     848:	31 96       	adiw	r30, 0x01	; 1
     84a:	81 e0       	ldi	r24, 0x01	; 1
     84c:	ad b7       	in	r26, 0x3d	; 61
     84e:	be b7       	in	r27, 0x3e	; 62
     850:	11 96       	adiw	r26, 0x01	; 1
     852:	8c 93       	st	X, r24
											(uint8_t)ENTITYID_1_FAN_CONTROL1,entity_sort1_ac,(uint8_t)ENTITYID_2_FAN_CONTROL2, entity_sort2_ac);
     854:	ce 01       	movw	r24, r28
     856:	c4 96       	adiw	r24, 0x34	; 52
	
	char  obj_des_ac[] = OBJECT_DESC_FAN_CONTROL;
	char  entity_sort1_ac[] = ENTITY_SORT1_FAN_CONTROL;
	char  entity_sort2_ac[] = ENTITY_SORT2_FAN_CONTROL;
	
	handleIdActuator = createPktHandle((uint32_t)CNDI_USER_DOMAIN,(uint32_t)CONTROL_ID, (uint32_t)OBJECT_ID_FAN_CONTROL, obj_des_ac, (uint8_t)CMD_OBJ_TYPE_ACTUATOR,1,
     858:	92 83       	std	Z+2, r25	; 0x02
     85a:	81 83       	std	Z+1, r24	; 0x01
     85c:	82 e0       	ldi	r24, 0x02	; 2
     85e:	83 83       	std	Z+3, r24	; 0x03
											(uint8_t)ENTITYID_1_FAN_CONTROL1,entity_sort1_ac,(uint8_t)ENTITYID_2_FAN_CONTROL2, entity_sort2_ac);
     860:	ce 01       	movw	r24, r28
     862:	c7 96       	adiw	r24, 0x37	; 55
	
	char  obj_des_ac[] = OBJECT_DESC_FAN_CONTROL;
	char  entity_sort1_ac[] = ENTITY_SORT1_FAN_CONTROL;
	char  entity_sort2_ac[] = ENTITY_SORT2_FAN_CONTROL;
	
	handleIdActuator = createPktHandle((uint32_t)CNDI_USER_DOMAIN,(uint32_t)CONTROL_ID, (uint32_t)OBJECT_ID_FAN_CONTROL, obj_des_ac, (uint8_t)CMD_OBJ_TYPE_ACTUATOR,1,
     864:	95 83       	std	Z+5, r25	; 0x05
     866:	84 83       	std	Z+4, r24	; 0x04
     868:	67 e5       	ldi	r22, 0x57	; 87
     86a:	74 e0       	ldi	r23, 0x04	; 4
     86c:	80 e0       	ldi	r24, 0x00	; 0
     86e:	90 e0       	ldi	r25, 0x00	; 0
     870:	20 e1       	ldi	r18, 0x10	; 16
     872:	30 e0       	ldi	r19, 0x00	; 0
     874:	40 e0       	ldi	r20, 0x00	; 0
     876:	50 e0       	ldi	r21, 0x00	; 0
     878:	0f 2e       	mov	r0, r31
     87a:	f2 e1       	ldi	r31, 0x12	; 18
     87c:	ef 2e       	mov	r14, r31
     87e:	f0 e0       	ldi	r31, 0x00	; 0
     880:	ff 2e       	mov	r15, r31
     882:	f0 e0       	ldi	r31, 0x00	; 0
     884:	0f 2f       	mov	r16, r31
     886:	f0 e0       	ldi	r31, 0x00	; 0
     888:	1f 2f       	mov	r17, r31
     88a:	f0 2d       	mov	r31, r0
     88c:	0f 2e       	mov	r0, r31
     88e:	f6 e2       	ldi	r31, 0x26	; 38
     890:	cf 2e       	mov	r12, r31
     892:	dd 24       	eor	r13, r13
     894:	f0 2d       	mov	r31, r0
     896:	cc 0e       	add	r12, r28
     898:	dd 1e       	adc	r13, r29
     89a:	aa 24       	eor	r10, r10
     89c:	a3 94       	inc	r10
     89e:	88 24       	eor	r8, r8
     8a0:	83 94       	inc	r8
     8a2:	0e 94 ff 12 	call	0x25fe	; 0x25fe <createPktHandle>
     8a6:	6b 01       	movw	r12, r22
     8a8:	7c 01       	movw	r14, r24
											(uint8_t)ENTITYID_1_FAN_CONTROL1,entity_sort1_ac,(uint8_t)ENTITYID_2_FAN_CONTROL2, entity_sort2_ac);

	gnFanOnValue = 0;			// default disable
     8aa:	10 92 0d 06 	sts	0x060D, r1
     8ae:	10 92 0c 06 	sts	0x060C, r1
	initFan();
     8b2:	ed b7       	in	r30, 0x3d	; 61
     8b4:	fe b7       	in	r31, 0x3e	; 62
     8b6:	36 96       	adiw	r30, 0x06	; 6
     8b8:	0f b6       	in	r0, 0x3f	; 63
     8ba:	f8 94       	cli
     8bc:	fe bf       	out	0x3e, r31	; 62
     8be:	0f be       	out	0x3f, r0	; 63
     8c0:	ed bf       	out	0x3d, r30	; 61
     8c2:	0e 94 40 0f 	call	0x1e80	; 0x1e80 <initFan>
	
	SendActuatorData(handleIdActuator, FAN_OFF, 0);
     8c6:	c7 01       	movw	r24, r14
     8c8:	b6 01       	movw	r22, r12
     8ca:	40 e0       	ldi	r20, 0x00	; 0
     8cc:	50 e0       	ldi	r21, 0x00	; 0
     8ce:	20 e0       	ldi	r18, 0x00	; 0
     8d0:	30 e0       	ldi	r19, 0x00	; 0
     8d2:	0e 94 03 02 	call	0x406	; 0x406 <SendActuatorData>

/**********		led actuator		**********/
#ifdef LED
	handler_id  handleIdActuator1 = -1;		// LED Actuator
	
	char  obj_des_ac1[] = OBJECT_DESC_LED_CONTROL;
     8d6:	fe 01       	movw	r30, r28
     8d8:	f8 96       	adiw	r30, 0x38	; 56
     8da:	a0 e6       	ldi	r26, 0x60	; 96
     8dc:	b4 e0       	ldi	r27, 0x04	; 4
     8de:	8e e0       	ldi	r24, 0x0E	; 14
     8e0:	0d 90       	ld	r0, X+
     8e2:	01 92       	st	Z+, r0
     8e4:	81 50       	subi	r24, 0x01	; 1
     8e6:	e1 f7       	brne	.-8      	; 0x8e0 <main+0x442>
	char  entity_sort1_ac1[] = ENTITY_SORT1_LED_CONTROL;
     8e8:	fe 01       	movw	r30, r28
     8ea:	ea 5b       	subi	r30, 0xBA	; 186
     8ec:	ff 4f       	sbci	r31, 0xFF	; 255
     8ee:	ad e5       	ldi	r26, 0x5D	; 93
     8f0:	b4 e0       	ldi	r27, 0x04	; 4
     8f2:	83 e0       	ldi	r24, 0x03	; 3
     8f4:	0d 90       	ld	r0, X+
     8f6:	01 92       	st	Z+, r0
     8f8:	81 50       	subi	r24, 0x01	; 1
     8fa:	e1 f7       	brne	.-8      	; 0x8f4 <main+0x456>
	char  entity_sort2_ac1[] = ENTITY_SORT2_LED_CONTROL;
     8fc:	9e 01       	movw	r18, r28
     8fe:	27 5b       	subi	r18, 0xB7	; 183
     900:	3f 4f       	sbci	r19, 0xFF	; 255
     902:	d9 01       	movw	r26, r18
     904:	1c 92       	st	X, r1
	
	handleIdActuator1 = createPktHandle((uint32_t)CNDI_USER_DOMAIN,(uint32_t)CONTROL_ID, (uint32_t)OBJECT_ID_LED_CONTROL, obj_des_ac1, (uint8_t)CMD_OBJ_TYPE_ACTUATOR,1,
     906:	00 d0       	rcall	.+0      	; 0x908 <main+0x46a>
     908:	00 d0       	rcall	.+0      	; 0x90a <main+0x46c>
     90a:	ed b7       	in	r30, 0x3d	; 61
     90c:	fe b7       	in	r31, 0x3e	; 62
     90e:	31 96       	adiw	r30, 0x01	; 1
     910:	81 e0       	ldi	r24, 0x01	; 1
     912:	ad b7       	in	r26, 0x3d	; 61
     914:	be b7       	in	r27, 0x3e	; 62
     916:	11 96       	adiw	r26, 0x01	; 1
     918:	8c 93       	st	X, r24
											(uint8_t)ENTITYID_1_LED_CONTROL1,entity_sort1_ac1,(uint8_t)ENTITYID_2_LED_CONTROL2, entity_sort2_ac1);
     91a:	ce 01       	movw	r24, r28
     91c:	8a 5b       	subi	r24, 0xBA	; 186
     91e:	9f 4f       	sbci	r25, 0xFF	; 255
	
	char  obj_des_ac1[] = OBJECT_DESC_LED_CONTROL;
	char  entity_sort1_ac1[] = ENTITY_SORT1_LED_CONTROL;
	char  entity_sort2_ac1[] = ENTITY_SORT2_LED_CONTROL;
	
	handleIdActuator1 = createPktHandle((uint32_t)CNDI_USER_DOMAIN,(uint32_t)CONTROL_ID, (uint32_t)OBJECT_ID_LED_CONTROL, obj_des_ac1, (uint8_t)CMD_OBJ_TYPE_ACTUATOR,1,
     920:	92 83       	std	Z+2, r25	; 0x02
     922:	81 83       	std	Z+1, r24	; 0x01
     924:	82 e0       	ldi	r24, 0x02	; 2
     926:	83 83       	std	Z+3, r24	; 0x03
     928:	35 83       	std	Z+5, r19	; 0x05
     92a:	24 83       	std	Z+4, r18	; 0x04
     92c:	67 e5       	ldi	r22, 0x57	; 87
     92e:	74 e0       	ldi	r23, 0x04	; 4
     930:	80 e0       	ldi	r24, 0x00	; 0
     932:	90 e0       	ldi	r25, 0x00	; 0
     934:	20 e1       	ldi	r18, 0x10	; 16
     936:	30 e0       	ldi	r19, 0x00	; 0
     938:	40 e0       	ldi	r20, 0x00	; 0
     93a:	50 e0       	ldi	r21, 0x00	; 0
     93c:	0f 2e       	mov	r0, r31
     93e:	f4 e1       	ldi	r31, 0x14	; 20
     940:	ef 2e       	mov	r14, r31
     942:	f0 e0       	ldi	r31, 0x00	; 0
     944:	ff 2e       	mov	r15, r31
     946:	f0 e0       	ldi	r31, 0x00	; 0
     948:	0f 2f       	mov	r16, r31
     94a:	f0 e0       	ldi	r31, 0x00	; 0
     94c:	1f 2f       	mov	r17, r31
     94e:	f0 2d       	mov	r31, r0
     950:	0f 2e       	mov	r0, r31
     952:	f8 e3       	ldi	r31, 0x38	; 56
     954:	cf 2e       	mov	r12, r31
     956:	dd 24       	eor	r13, r13
     958:	f0 2d       	mov	r31, r0
     95a:	cc 0e       	add	r12, r28
     95c:	dd 1e       	adc	r13, r29
     95e:	aa 24       	eor	r10, r10
     960:	a3 94       	inc	r10
     962:	88 24       	eor	r8, r8
     964:	83 94       	inc	r8
     966:	0e 94 ff 12 	call	0x25fe	; 0x25fe <createPktHandle>
     96a:	6b 01       	movw	r12, r22
     96c:	7c 01       	movw	r14, r24
											(uint8_t)ENTITYID_1_LED_CONTROL1,entity_sort1_ac1,(uint8_t)ENTITYID_2_LED_CONTROL2, entity_sort2_ac1);

	gnLedOnValue = 0;			// default disable
     96e:	10 92 09 06 	sts	0x0609, r1
     972:	10 92 08 06 	sts	0x0608, r1
	LED_Init (LED_PORT, LED_PIN);
     976:	ed b7       	in	r30, 0x3d	; 61
     978:	fe b7       	in	r31, 0x3e	; 62
     97a:	36 96       	adiw	r30, 0x06	; 6
     97c:	0f b6       	in	r0, 0x3f	; 63
     97e:	f8 94       	cli
     980:	fe bf       	out	0x3e, r31	; 62
     982:	0f be       	out	0x3f, r0	; 63
     984:	ed bf       	out	0x3d, r30	; 61
     986:	85 e0       	ldi	r24, 0x05	; 5
     988:	90 e0       	ldi	r25, 0x00	; 0
     98a:	60 e0       	ldi	r22, 0x00	; 0
     98c:	70 e0       	ldi	r23, 0x00	; 0
     98e:	0e 94 a4 12 	call	0x2548	; 0x2548 <LED_Init>
	
	SendActuatorData(handleIdActuator1, LED_OFF, 0);
     992:	c7 01       	movw	r24, r14
     994:	b6 01       	movw	r22, r12
     996:	40 e0       	ldi	r20, 0x00	; 0
     998:	50 e0       	ldi	r21, 0x00	; 0
     99a:	20 e0       	ldi	r18, 0x00	; 0
     99c:	30 e0       	ldi	r19, 0x00	; 0
     99e:	0e 94 03 02 	call	0x406	; 0x406 <SendActuatorData>

/**********		motor actuator		**********/
#ifdef MOTOR
	handler_id  handleIdActuator2 = -1;		// Motor Actuator
	
	char  obj_des_ac2[] = OBJECT_DESC_MOTOR_CONTROL;
     9a2:	fe 01       	movw	r30, r28
     9a4:	e6 5b       	subi	r30, 0xB6	; 182
     9a6:	ff 4f       	sbci	r31, 0xFF	; 255
     9a8:	ae e6       	ldi	r26, 0x6E	; 110
     9aa:	b4 e0       	ldi	r27, 0x04	; 4
     9ac:	80 e1       	ldi	r24, 0x10	; 16
     9ae:	0d 90       	ld	r0, X+
     9b0:	01 92       	st	Z+, r0
     9b2:	81 50       	subi	r24, 0x01	; 1
     9b4:	e1 f7       	brne	.-8      	; 0x9ae <main+0x510>
	char  entity_sort1_ac2[] = ENTITY_SORT1_MOTOR_CONTROL;
     9b6:	fe 01       	movw	r30, r28
     9b8:	e6 5a       	subi	r30, 0xA6	; 166
     9ba:	ff 4f       	sbci	r31, 0xFF	; 255
     9bc:	ad e5       	ldi	r26, 0x5D	; 93
     9be:	b4 e0       	ldi	r27, 0x04	; 4
     9c0:	83 e0       	ldi	r24, 0x03	; 3
     9c2:	0d 90       	ld	r0, X+
     9c4:	01 92       	st	Z+, r0
     9c6:	81 50       	subi	r24, 0x01	; 1
     9c8:	e1 f7       	brne	.-8      	; 0x9c2 <main+0x524>
	char  entity_sort2_ac2[] = ENTITY_SORT2_MOTOR_CONTROL;
     9ca:	9e 01       	movw	r18, r28
     9cc:	23 5a       	subi	r18, 0xA3	; 163
     9ce:	3f 4f       	sbci	r19, 0xFF	; 255
     9d0:	d9 01       	movw	r26, r18
     9d2:	1c 92       	st	X, r1
	
	handleIdActuator2 = createPktHandle((uint32_t)CNDI_USER_DOMAIN,(uint32_t)CONTROL_ID, (uint32_t)OBJECT_ID_MOTOR_CONTROL, obj_des_ac2, (uint8_t)CMD_OBJ_TYPE_ACTUATOR,1,
     9d4:	00 d0       	rcall	.+0      	; 0x9d6 <main+0x538>
     9d6:	00 d0       	rcall	.+0      	; 0x9d8 <main+0x53a>
     9d8:	ed b7       	in	r30, 0x3d	; 61
     9da:	fe b7       	in	r31, 0x3e	; 62
     9dc:	31 96       	adiw	r30, 0x01	; 1
     9de:	81 e0       	ldi	r24, 0x01	; 1
     9e0:	ad b7       	in	r26, 0x3d	; 61
     9e2:	be b7       	in	r27, 0x3e	; 62
     9e4:	11 96       	adiw	r26, 0x01	; 1
     9e6:	8c 93       	st	X, r24
										(uint8_t)ENTITYID_1_MOTOR_CONTROL1,entity_sort1_ac2,(uint8_t)ENTITYID_2_MOTOR_CONTROL2, entity_sort2_ac2);
     9e8:	ce 01       	movw	r24, r28
     9ea:	86 5a       	subi	r24, 0xA6	; 166
     9ec:	9f 4f       	sbci	r25, 0xFF	; 255
	
	char  obj_des_ac2[] = OBJECT_DESC_MOTOR_CONTROL;
	char  entity_sort1_ac2[] = ENTITY_SORT1_MOTOR_CONTROL;
	char  entity_sort2_ac2[] = ENTITY_SORT2_MOTOR_CONTROL;
	
	handleIdActuator2 = createPktHandle((uint32_t)CNDI_USER_DOMAIN,(uint32_t)CONTROL_ID, (uint32_t)OBJECT_ID_MOTOR_CONTROL, obj_des_ac2, (uint8_t)CMD_OBJ_TYPE_ACTUATOR,1,
     9ee:	92 83       	std	Z+2, r25	; 0x02
     9f0:	81 83       	std	Z+1, r24	; 0x01
     9f2:	82 e0       	ldi	r24, 0x02	; 2
     9f4:	83 83       	std	Z+3, r24	; 0x03
     9f6:	35 83       	std	Z+5, r19	; 0x05
     9f8:	24 83       	std	Z+4, r18	; 0x04
     9fa:	67 e5       	ldi	r22, 0x57	; 87
     9fc:	74 e0       	ldi	r23, 0x04	; 4
     9fe:	80 e0       	ldi	r24, 0x00	; 0
     a00:	90 e0       	ldi	r25, 0x00	; 0
     a02:	20 e1       	ldi	r18, 0x10	; 16
     a04:	30 e0       	ldi	r19, 0x00	; 0
     a06:	40 e0       	ldi	r20, 0x00	; 0
     a08:	50 e0       	ldi	r21, 0x00	; 0
     a0a:	0f 2e       	mov	r0, r31
     a0c:	f5 e1       	ldi	r31, 0x15	; 21
     a0e:	ef 2e       	mov	r14, r31
     a10:	f0 e0       	ldi	r31, 0x00	; 0
     a12:	ff 2e       	mov	r15, r31
     a14:	f0 e0       	ldi	r31, 0x00	; 0
     a16:	0f 2f       	mov	r16, r31
     a18:	f0 e0       	ldi	r31, 0x00	; 0
     a1a:	1f 2f       	mov	r17, r31
     a1c:	f0 2d       	mov	r31, r0
     a1e:	0f 2e       	mov	r0, r31
     a20:	fa e4       	ldi	r31, 0x4A	; 74
     a22:	cf 2e       	mov	r12, r31
     a24:	dd 24       	eor	r13, r13
     a26:	f0 2d       	mov	r31, r0
     a28:	cc 0e       	add	r12, r28
     a2a:	dd 1e       	adc	r13, r29
     a2c:	aa 24       	eor	r10, r10
     a2e:	a3 94       	inc	r10
     a30:	88 24       	eor	r8, r8
     a32:	83 94       	inc	r8
     a34:	0e 94 ff 12 	call	0x25fe	; 0x25fe <createPktHandle>
     a38:	6b 01       	movw	r12, r22
     a3a:	7c 01       	movw	r14, r24
										(uint8_t)ENTITYID_1_MOTOR_CONTROL1,entity_sort1_ac2,(uint8_t)ENTITYID_2_MOTOR_CONTROL2, entity_sort2_ac2);

	gnMotorValue = 0;			// default disable
     a3c:	10 92 0b 06 	sts	0x060B, r1
     a40:	10 92 0a 06 	sts	0x060A, r1
	Motor_Init();
     a44:	ed b7       	in	r30, 0x3d	; 61
     a46:	fe b7       	in	r31, 0x3e	; 62
     a48:	36 96       	adiw	r30, 0x06	; 6
     a4a:	0f b6       	in	r0, 0x3f	; 63
     a4c:	f8 94       	cli
     a4e:	fe bf       	out	0x3e, r31	; 62
     a50:	0f be       	out	0x3f, r0	; 63
     a52:	ed bf       	out	0x3d, r30	; 61
     a54:	0e 94 ea 12 	call	0x25d4	; 0x25d4 <Motor_Init>
	
	SendActuatorData(handleIdActuator2, MOTOR_OFF, 0);
     a58:	c7 01       	movw	r24, r14
     a5a:	b6 01       	movw	r22, r12
     a5c:	40 e0       	ldi	r20, 0x00	; 0
     a5e:	50 e0       	ldi	r21, 0x00	; 0
     a60:	20 e0       	ldi	r18, 0x00	; 0
     a62:	30 e0       	ldi	r19, 0x00	; 0
     a64:	0e 94 03 02 	call	0x406	; 0x406 <SendActuatorData>
	
	SendActuatorData(handleIdActuator3, TEXTLCD_INIT, 0);
#endif
	
	
	TIMER_100mSInit ();
     a68:	0e 94 77 18 	call	0x30ee	; 0x30ee <TIMER_100mSInit>
	setElapsedTime100mSUnit(100);	// 1 Sec
     a6c:	64 e6       	ldi	r22, 0x64	; 100
     a6e:	70 e0       	ldi	r23, 0x00	; 0
     a70:	80 e0       	ldi	r24, 0x00	; 0
     a72:	90 e0       	ldi	r25, 0x00	; 0
     a74:	0e 94 82 18 	call	0x3104	; 0x3104 <setElapsedTime100mSUnit>


	debugprint("INDEX_ENT_VALUE_1:%d\r\n",INDEX_ENT_VALUE_1);
     a78:	00 d0       	rcall	.+0      	; 0xa7a <main+0x5dc>
     a7a:	0f 92       	push	r0
     a7c:	80 ec       	ldi	r24, 0xC0	; 192
     a7e:	93 e0       	ldi	r25, 0x03	; 3
     a80:	ad b7       	in	r26, 0x3d	; 61
     a82:	be b7       	in	r27, 0x3e	; 62
     a84:	12 96       	adiw	r26, 0x02	; 2
     a86:	9c 93       	st	X, r25
     a88:	8e 93       	st	-X, r24
     a8a:	11 97       	sbiw	r26, 0x01	; 1
     a8c:	8c e3       	ldi	r24, 0x3C	; 60
     a8e:	90 e0       	ldi	r25, 0x00	; 0
     a90:	14 96       	adiw	r26, 0x04	; 4
     a92:	9c 93       	st	X, r25
     a94:	8e 93       	st	-X, r24
     a96:	13 97       	sbiw	r26, 0x03	; 3
     a98:	0e 94 e8 07 	call	0xfd0	; 0xfd0 <debugprint>
     a9c:	0f 90       	pop	r0
     a9e:	0f 90       	pop	r0
     aa0:	0f 90       	pop	r0
     aa2:	0f 90       	pop	r0
	while(1)
	{
		
#ifdef TEMP_HUMI
		tempData = get_SHT11_data(TEMP);
		debugprint("temp = %d [C] \r\n", tempData);
     aa4:	0f 2e       	mov	r0, r31
     aa6:	f7 ed       	ldi	r31, 0xD7	; 215
     aa8:	cf 2e       	mov	r12, r31
     aaa:	f3 e0       	ldi	r31, 0x03	; 3
     aac:	df 2e       	mov	r13, r31
     aae:	f0 2d       	mov	r31, r0
#endif

#ifdef CDS
		cdsData = AdcRead();
		debugprint("cds = %d [lux] \r\n", cdsData);
     ab0:	0f 2e       	mov	r0, r31
     ab2:	f8 ee       	ldi	r31, 0xE8	; 232
     ab4:	af 2e       	mov	r10, r31
     ab6:	f3 e0       	ldi	r31, 0x03	; 3
     ab8:	bf 2e       	mov	r11, r31
     aba:	f0 2d       	mov	r31, r0
#endif

#ifdef FAN
		debugprint("fan value = %d \r\n", gnFanOnValue);
     abc:	0f 2e       	mov	r0, r31
     abe:	fa ef       	ldi	r31, 0xFA	; 250
     ac0:	8f 2e       	mov	r8, r31
     ac2:	f3 e0       	ldi	r31, 0x03	; 3
     ac4:	9f 2e       	mov	r9, r31
     ac6:	f0 2d       	mov	r31, r0
		FAN_Action(gnFanOnValue);
#endif

#ifdef LED
		debugprint("led value = %d \r\n", gnLedOnValue);
     ac8:	0f 2e       	mov	r0, r31
     aca:	fc e0       	ldi	r31, 0x0C	; 12
     acc:	6f 2e       	mov	r6, r31
     ace:	f4 e0       	ldi	r31, 0x04	; 4
     ad0:	7f 2e       	mov	r7, r31
     ad2:	f0 2d       	mov	r31, r0
		controlLED(LED_PORT, LED_PIN, gnLedOnValue);
#endif

#ifdef MOTOR
		debugprint("motor value = %d \r\n", gnMotorValue);
     ad4:	0f 2e       	mov	r0, r31
     ad6:	fe e1       	ldi	r31, 0x1E	; 30
     ad8:	4f 2e       	mov	r4, r31
     ada:	f4 e0       	ldi	r31, 0x04	; 4
     adc:	5f 2e       	mov	r5, r31
     ade:	f0 2d       	mov	r31, r0

	while(1)
	{
		
#ifdef TEMP_HUMI
		tempData = get_SHT11_data(TEMP);
     ae0:	80 e0       	ldi	r24, 0x00	; 0
     ae2:	0e 94 d7 17 	call	0x2fae	; 0x2fae <get_SHT11_data>
     ae6:	18 2f       	mov	r17, r24
     ae8:	09 2f       	mov	r16, r25
		debugprint("temp = %d [C] \r\n", tempData);
     aea:	00 d0       	rcall	.+0      	; 0xaec <main+0x64e>
     aec:	0f 92       	push	r0
     aee:	ed b7       	in	r30, 0x3d	; 61
     af0:	fe b7       	in	r31, 0x3e	; 62
     af2:	31 96       	adiw	r30, 0x01	; 1
     af4:	ad b7       	in	r26, 0x3d	; 61
     af6:	be b7       	in	r27, 0x3e	; 62
     af8:	12 96       	adiw	r26, 0x02	; 2
     afa:	dc 92       	st	X, r13
     afc:	ce 92       	st	-X, r12
     afe:	11 97       	sbiw	r26, 0x01	; 1
     b00:	82 83       	std	Z+2, r24	; 0x02
     b02:	93 83       	std	Z+3, r25	; 0x03
     b04:	0e 94 e8 07 	call	0xfd0	; 0xfd0 <debugprint>
#endif

#ifdef CDS
		cdsData = AdcRead();
     b08:	0f 90       	pop	r0
     b0a:	0f 90       	pop	r0
     b0c:	0f 90       	pop	r0
     b0e:	0f 90       	pop	r0
     b10:	0e 94 a1 00 	call	0x142	; 0x142 <AdcRead>
     b14:	7c 01       	movw	r14, r24
		debugprint("cds = %d [lux] \r\n", cdsData);
     b16:	00 d0       	rcall	.+0      	; 0xb18 <main+0x67a>
     b18:	0f 92       	push	r0
     b1a:	ed b7       	in	r30, 0x3d	; 61
     b1c:	fe b7       	in	r31, 0x3e	; 62
     b1e:	b2 82       	std	Z+2, r11	; 0x02
     b20:	a1 82       	std	Z+1, r10	; 0x01
     b22:	94 83       	std	Z+4, r25	; 0x04
     b24:	83 83       	std	Z+3, r24	; 0x03
     b26:	0e 94 e8 07 	call	0xfd0	; 0xfd0 <debugprint>
#endif

#ifdef FAN
		debugprint("fan value = %d \r\n", gnFanOnValue);
     b2a:	80 91 0c 06 	lds	r24, 0x060C
     b2e:	90 91 0d 06 	lds	r25, 0x060D
     b32:	ad b7       	in	r26, 0x3d	; 61
     b34:	be b7       	in	r27, 0x3e	; 62
     b36:	12 96       	adiw	r26, 0x02	; 2
     b38:	9c 92       	st	X, r9
     b3a:	8e 92       	st	-X, r8
     b3c:	11 97       	sbiw	r26, 0x01	; 1
     b3e:	14 96       	adiw	r26, 0x04	; 4
     b40:	9c 93       	st	X, r25
     b42:	8e 93       	st	-X, r24
     b44:	13 97       	sbiw	r26, 0x03	; 3
     b46:	0e 94 e8 07 	call	0xfd0	; 0xfd0 <debugprint>
		FAN_Action(gnFanOnValue);
     b4a:	80 91 0c 06 	lds	r24, 0x060C
     b4e:	90 91 0d 06 	lds	r25, 0x060D
     b52:	0f 90       	pop	r0
     b54:	0f 90       	pop	r0
     b56:	0f 90       	pop	r0
     b58:	0f 90       	pop	r0
     b5a:	0e 94 39 0f 	call	0x1e72	; 0x1e72 <FAN_Action>
#endif

#ifdef LED
		debugprint("led value = %d \r\n", gnLedOnValue);
     b5e:	80 91 08 06 	lds	r24, 0x0608
     b62:	90 91 09 06 	lds	r25, 0x0609
     b66:	00 d0       	rcall	.+0      	; 0xb68 <main+0x6ca>
     b68:	0f 92       	push	r0
     b6a:	ed b7       	in	r30, 0x3d	; 61
     b6c:	fe b7       	in	r31, 0x3e	; 62
     b6e:	72 82       	std	Z+2, r7	; 0x02
     b70:	61 82       	std	Z+1, r6	; 0x01
     b72:	94 83       	std	Z+4, r25	; 0x04
     b74:	83 83       	std	Z+3, r24	; 0x03
     b76:	0e 94 e8 07 	call	0xfd0	; 0xfd0 <debugprint>
		controlLED(LED_PORT, LED_PIN, gnLedOnValue);
     b7a:	40 91 08 06 	lds	r20, 0x0608
     b7e:	50 91 09 06 	lds	r21, 0x0609
     b82:	0f 90       	pop	r0
     b84:	0f 90       	pop	r0
     b86:	0f 90       	pop	r0
     b88:	0f 90       	pop	r0
     b8a:	85 e0       	ldi	r24, 0x05	; 5
     b8c:	90 e0       	ldi	r25, 0x00	; 0
     b8e:	60 e0       	ldi	r22, 0x00	; 0
     b90:	70 e0       	ldi	r23, 0x00	; 0
     b92:	0e 94 b3 12 	call	0x2566	; 0x2566 <controlLED>
#endif

#ifdef MOTOR
		debugprint("motor value = %d \r\n", gnMotorValue);
     b96:	80 91 0a 06 	lds	r24, 0x060A
     b9a:	90 91 0b 06 	lds	r25, 0x060B
     b9e:	00 d0       	rcall	.+0      	; 0xba0 <main+0x702>
     ba0:	0f 92       	push	r0
     ba2:	ad b7       	in	r26, 0x3d	; 61
     ba4:	be b7       	in	r27, 0x3e	; 62
     ba6:	12 96       	adiw	r26, 0x02	; 2
     ba8:	5c 92       	st	X, r5
     baa:	4e 92       	st	-X, r4
     bac:	11 97       	sbiw	r26, 0x01	; 1
     bae:	14 96       	adiw	r26, 0x04	; 4
     bb0:	9c 93       	st	X, r25
     bb2:	8e 93       	st	-X, r24
     bb4:	13 97       	sbiw	r26, 0x03	; 3
     bb6:	0e 94 e8 07 	call	0xfd0	; 0xfd0 <debugprint>
		Motor_Action(gnMotorValue, gnMotorValue);
     bba:	80 91 0a 06 	lds	r24, 0x060A
     bbe:	90 91 0b 06 	lds	r25, 0x060B
     bc2:	60 91 0a 06 	lds	r22, 0x060A
     bc6:	70 91 0b 06 	lds	r23, 0x060B
     bca:	0f 90       	pop	r0
     bcc:	0f 90       	pop	r0
     bce:	0f 90       	pop	r0
     bd0:	0f 90       	pop	r0
     bd2:	0e 94 be 12 	call	0x257c	; 0x257c <Motor_Action>
		write_Command(0x02);			/* return Home */
		_delay_us(220);
	}
#endif

		wifiMain();
     bd6:	0e 94 6b 0b 	call	0x16d6	; 0x16d6 <wifiMain>
		
		if ( isElapsed())
     bda:	0e 94 95 18 	call	0x312a	; 0x312a <isElapsed>
     bde:	88 23       	and	r24, r24
     be0:	09 f4       	brne	.+2      	; 0xbe4 <main+0x746>
     be2:	7e cf       	rjmp	.-260    	; 0xae0 <main+0x642>
		{
#ifdef TEMP_HUMI
			SendSensorData(handleIdSensor, tempData, 0);
     be4:	a2 96       	adiw	r28, 0x22	; 34
     be6:	6c ad       	sts	0x6c, r22
     be8:	7d ad       	sts	0x6d, r23
     bea:	8e ad       	sts	0x6e, r24
     bec:	9f ad       	sts	0x6f, r25
     bee:	a2 97       	sbiw	r28, 0x22	; 34
     bf0:	41 2f       	mov	r20, r17
     bf2:	50 2f       	mov	r21, r16
     bf4:	20 e0       	ldi	r18, 0x00	; 0
     bf6:	30 e0       	ldi	r19, 0x00	; 0
     bf8:	0e 94 b7 01 	call	0x36e	; 0x36e <SendSensorData>
#endif
#ifdef CDS
			SendSensorData(handleIdSensor1, cdsData, 0);
     bfc:	a6 96       	adiw	r28, 0x26	; 38
     bfe:	6c ad       	sts	0x6c, r22
     c00:	7d ad       	sts	0x6d, r23
     c02:	8e ad       	sts	0x6e, r24
     c04:	9f ad       	sts	0x6f, r25
     c06:	a6 97       	sbiw	r28, 0x26	; 38
     c08:	a7 01       	movw	r20, r14
     c0a:	20 e0       	ldi	r18, 0x00	; 0
     c0c:	30 e0       	ldi	r19, 0x00	; 0
     c0e:	0e 94 b7 01 	call	0x36e	; 0x36e <SendSensorData>
     c12:	66 cf       	rjmp	.-308    	; 0xae0 <main+0x642>

00000c14 <putCh1>:
volatile unsigned char g_btRxCurrentIndex = 0;		// Rx buffer index


void putCh1(char ch)
{
	while (!(UCSR1A & 0x20));
     c14:	e8 ec       	ldi	r30, 0xC8	; 200
     c16:	f0 e0       	ldi	r31, 0x00	; 0
     c18:	90 81       	ld	r25, Z
     c1a:	95 ff       	sbrs	r25, 5
     c1c:	fd cf       	rjmp	.-6      	; 0xc18 <putCh1+0x4>
		UDR1= ch;
     c1e:	80 93 ce 00 	sts	0x00CE, r24
}
     c22:	08 95       	ret

00000c24 <__vector_36>:

ISR(USART1_RX_vect)
{
     c24:	1f 92       	push	r1
     c26:	0f 92       	push	r0
     c28:	0f b6       	in	r0, 0x3f	; 63
     c2a:	0f 92       	push	r0
     c2c:	0b b6       	in	r0, 0x3b	; 59
     c2e:	0f 92       	push	r0
     c30:	11 24       	eor	r1, r1
     c32:	8f 93       	push	r24
     c34:	9f 93       	push	r25
     c36:	ef 93       	push	r30
     c38:	ff 93       	push	r31
	g_btRxData[g_btRxCurrentIndex] = UDR1;
     c3a:	90 91 e4 05 	lds	r25, 0x05E4
     c3e:	80 91 ce 00 	lds	r24, 0x00CE
     c42:	ee e0       	ldi	r30, 0x0E	; 14
     c44:	f6 e0       	ldi	r31, 0x06	; 6
     c46:	e9 0f       	add	r30, r25
     c48:	f1 1d       	adc	r31, r1
     c4a:	80 83       	st	Z, r24
	g_btRxCurrentIndex++;
     c4c:	80 91 e4 05 	lds	r24, 0x05E4
     c50:	8f 5f       	subi	r24, 0xFF	; 255
     c52:	80 93 e4 05 	sts	0x05E4, r24
	if(g_btRxCurrentIndex >= MAX_BT_RX_DATA)
     c56:	80 91 e4 05 	lds	r24, 0x05E4
		g_btRxCurrentIndex = 0;
}
     c5a:	ff 91       	pop	r31
     c5c:	ef 91       	pop	r30
     c5e:	9f 91       	pop	r25
     c60:	8f 91       	pop	r24
     c62:	0f 90       	pop	r0
     c64:	0b be       	out	0x3b, r0	; 59
     c66:	0f 90       	pop	r0
     c68:	0f be       	out	0x3f, r0	; 63
     c6a:	0f 90       	pop	r0
     c6c:	1f 90       	pop	r1
     c6e:	18 95       	reti

00000c70 <baud115200>:
// USART1  , PD2 =>RX , PD3 =>TX

void baud115200()
{
	// Not Double mode, Not multi_communication
	UCSR1A = 0x00;								// x2 Mode
     c70:	10 92 c8 00 	sts	0x00C8, r1
	UCSR1B = 0x98;
     c74:	88 e9       	ldi	r24, 0x98	; 152
     c76:	80 93 c9 00 	sts	0x00C9, r24
	UCSR1C = 0x06;
     c7a:	86 e0       	ldi	r24, 0x06	; 6
     c7c:	80 93 ca 00 	sts	0x00CA, r24
	UBRR1H = 0x00;
     c80:	10 92 cd 00 	sts	0x00CD, r1
	UBRR1L = 16;								// 115200
     c84:	80 e1       	ldi	r24, 0x10	; 16
     c86:	80 93 cc 00 	sts	0x00CC, r24
	
}
     c8a:	08 95       	ret

00000c8c <baud9600>:
#define BAUD_RATE 9600
void baud9600()
{
	UCSR1A = 0x00;								// x2 Mode
     c8c:	10 92 c8 00 	sts	0x00C8, r1
	UCSR1B = 0x98;
     c90:	88 e9       	ldi	r24, 0x98	; 152
     c92:	80 93 c9 00 	sts	0x00C9, r24
	UCSR1C = 0x06;
     c96:	86 e0       	ldi	r24, 0x06	; 6
     c98:	80 93 ca 00 	sts	0x00CA, r24
	//	UBRR0L = 0x3F;	// 0b00110011, (14745600 / (16 * 14400)) - 1 = 0x40
	//	UBRR0L = 0x2F;	// 0b00110011, (14745600 / (16 * 19200)) - 1 = 0x2F
	//	UBRR0L = 0x17;	// 0b00110011, (14745600 / (16 * 38400)) - 1 = 0x17
	//	UBRR0L = 0x0F;	// 0b00110011, (14745600 / (16 * 57600)) - 1 = 0x0F

	UBRR1H=(unsigned char) (baud >>8);                            // baud ?????? ??????  H???????? ????
     c9c:	10 92 cd 00 	sts	0x00CD, r1
	UBRR1L=(unsigned char) (baud & 0xFF);									
     ca0:	8f e5       	ldi	r24, 0x5F	; 95
     ca2:	80 93 cc 00 	sts	0x00CC, r24
}
     ca6:	08 95       	ret

00000ca8 <btInit>:

void btInit()
{
	// USART1 use
	DDRD  &= 0xF3;										// "0" input, "1" output
     ca8:	8a b1       	in	r24, 0x0a	; 10
     caa:	83 7f       	andi	r24, 0xF3	; 243
     cac:	8a b9       	out	0x0a, r24	; 10
	PORTD |= 0x00;
     cae:	8b b1       	in	r24, 0x0b	; 11
     cb0:	8b b9       	out	0x0b, r24	; 11
	
	baud9600();
     cb2:	0e 94 46 06 	call	0xc8c	; 0xc8c <baud9600>
//	baud115200();
	
	wifiAndBTModuleReset();
     cb6:	0e 94 5b 08 	call	0x10b6	; 0x10b6 <wifiAndBTModuleReset>
     cba:	8f ef       	ldi	r24, 0xFF	; 255
     cbc:	9f e7       	ldi	r25, 0x7F	; 127
     cbe:	a4 e0       	ldi	r26, 0x04	; 4
     cc0:	81 50       	subi	r24, 0x01	; 1
     cc2:	90 40       	sbci	r25, 0x00	; 0
     cc4:	a0 40       	sbci	r26, 0x00	; 0
     cc6:	e1 f7       	brne	.-8      	; 0xcc0 <btInit+0x18>
     cc8:	00 c0       	rjmp	.+0      	; 0xcca <btInit+0x22>
     cca:	00 00       	nop
	_delay_ms(100);
}
     ccc:	08 95       	ret

00000cce <btprint>:

void btprint(const char *fmt,...)
{
     cce:	0f 93       	push	r16
     cd0:	1f 93       	push	r17
     cd2:	cf 93       	push	r28
     cd4:	df 93       	push	r29
     cd6:	cd b7       	in	r28, 0x3d	; 61
     cd8:	de b7       	in	r29, 0x3e	; 62
     cda:	c0 58       	subi	r28, 0x80	; 128
     cdc:	d0 40       	sbci	r29, 0x00	; 0
     cde:	0f b6       	in	r0, 0x3f	; 63
     ce0:	f8 94       	cli
     ce2:	de bf       	out	0x3e, r29	; 62
     ce4:	0f be       	out	0x3f, r0	; 63
     ce6:	cd bf       	out	0x3d, r28	; 61
     ce8:	fe 01       	movw	r30, r28
     cea:	e8 57       	subi	r30, 0x78	; 120
     cec:	ff 4f       	sbci	r31, 0xFF	; 255
     cee:	61 91       	ld	r22, Z+
     cf0:	71 91       	ld	r23, Z+
	va_list ap;
	char s[128];
	char *p_char = s;
	va_start(ap, fmt);
	vsprintf(s, fmt,ap);
     cf2:	ce 01       	movw	r24, r28
     cf4:	01 96       	adiw	r24, 0x01	; 1
     cf6:	4e 2f       	mov	r20, r30
     cf8:	5f 2f       	mov	r21, r31
     cfa:	0e 94 8a 1a 	call	0x3514	; 0x3514 <vsprintf>
	va_end(ap);
	while(0 != *p_char){
     cfe:	89 81       	ldd	r24, Y+1	; 0x01
     d00:	88 23       	and	r24, r24
     d02:	51 f0       	breq	.+20     	; 0xd18 <btprint+0x4a>
     d04:	8e 01       	movw	r16, r28
     d06:	0e 5f       	subi	r16, 0xFE	; 254
     d08:	1f 4f       	sbci	r17, 0xFF	; 255
		putCh1(*p_char++);
     d0a:	0e 94 0a 06 	call	0xc14	; 0xc14 <putCh1>
	char s[128];
	char *p_char = s;
	va_start(ap, fmt);
	vsprintf(s, fmt,ap);
	va_end(ap);
	while(0 != *p_char){
     d0e:	f8 01       	movw	r30, r16
     d10:	81 91       	ld	r24, Z+
     d12:	8f 01       	movw	r16, r30
     d14:	88 23       	and	r24, r24
     d16:	c9 f7       	brne	.-14     	; 0xd0a <btprint+0x3c>
		putCh1(*p_char++);
	}	
}
     d18:	c0 58       	subi	r28, 0x80	; 128
     d1a:	df 4f       	sbci	r29, 0xFF	; 255
     d1c:	0f b6       	in	r0, 0x3f	; 63
     d1e:	f8 94       	cli
     d20:	de bf       	out	0x3e, r29	; 62
     d22:	0f be       	out	0x3f, r0	; 63
     d24:	cd bf       	out	0x3d, r28	; 61
     d26:	df 91       	pop	r29
     d28:	cf 91       	pop	r28
     d2a:	1f 91       	pop	r17
     d2c:	0f 91       	pop	r16
     d2e:	08 95       	ret

00000d30 <btReadMac>:

extern void putCh2(char ch);

#define MAX_MAC_NUM		12
void btReadMac()
{
     d30:	6f 92       	push	r6
     d32:	7f 92       	push	r7
     d34:	8f 92       	push	r8
     d36:	9f 92       	push	r9
     d38:	af 92       	push	r10
     d3a:	bf 92       	push	r11
     d3c:	cf 92       	push	r12
     d3e:	df 92       	push	r13
     d40:	ef 92       	push	r14
     d42:	ff 92       	push	r15
     d44:	0f 93       	push	r16
     d46:	1f 93       	push	r17
     d48:	cf 93       	push	r28
     d4a:	df 93       	push	r29
	int i = 0;
	
	if ( !g_btRxCurrentIndex )
     d4c:	80 91 e4 05 	lds	r24, 0x05E4
     d50:	88 23       	and	r24, r24
     d52:	09 f4       	brne	.+2      	; 0xd56 <btReadMac+0x26>
     d54:	97 c0       	rjmp	.+302    	; 0xe84 <btReadMac+0x154>
	{
		return;
	}
		
	if(g_btRxCurrentIndex>=20)
     d56:	80 91 e4 05 	lds	r24, 0x05E4
     d5a:	84 31       	cpi	r24, 0x14	; 20
     d5c:	08 f4       	brcc	.+2      	; 0xd60 <btReadMac+0x30>
     d5e:	92 c0       	rjmp	.+292    	; 0xe84 <btReadMac+0x154>
	{
		if((g_btRxData[0]==0x4F)&&(g_btRxData[1]==0x4B)&&(g_btRxData[7]==0x3A))
     d60:	80 91 0e 06 	lds	r24, 0x060E
     d64:	8f 34       	cpi	r24, 0x4F	; 79
     d66:	09 f0       	breq	.+2      	; 0xd6a <btReadMac+0x3a>
     d68:	70 c0       	rjmp	.+224    	; 0xe4a <btReadMac+0x11a>
     d6a:	80 91 0f 06 	lds	r24, 0x060F
     d6e:	8b 34       	cpi	r24, 0x4B	; 75
     d70:	09 f0       	breq	.+2      	; 0xd74 <btReadMac+0x44>
     d72:	6b c0       	rjmp	.+214    	; 0xe4a <btReadMac+0x11a>
     d74:	80 91 15 06 	lds	r24, 0x0615
     d78:	8a 33       	cpi	r24, 0x3A	; 58
     d7a:	09 f0       	breq	.+2      	; 0xd7e <btReadMac+0x4e>
     d7c:	66 c0       	rjmp	.+204    	; 0xe4a <btReadMac+0x11a>
     d7e:	0f 2e       	mov	r0, r31
     d80:	fc ef       	ldi	r31, 0xFC	; 252
     d82:	ef 2e       	mov	r14, r31
     d84:	f5 e0       	ldi	r31, 0x05	; 5
     d86:	ff 2e       	mov	r15, r31
     d88:	f0 2d       	mov	r31, r0
     d8a:	c8 e0       	ldi	r28, 0x08	; 8
     d8c:	d0 e0       	ldi	r29, 0x00	; 0
     d8e:	cc 24       	eor	r12, r12
     d90:	dd 24       	eor	r13, r13
     d92:	c3 94       	inc	r12
     d94:	00 e0       	ldi	r16, 0x00	; 0
     d96:	10 e0       	ldi	r17, 0x00	; 0
		{
			for(i = 0; i<MAX_MAC_NUM; i++)
			{
				if( (i%2==0)&&(i!=0) )
					debugprint(":");
				gcBtMacNum[i] = g_btRxData[i+8];
     d98:	0f 2e       	mov	r0, r31
     d9a:	fe e0       	ldi	r31, 0x0E	; 14
     d9c:	af 2e       	mov	r10, r31
     d9e:	f6 e0       	ldi	r31, 0x06	; 6
     da0:	bf 2e       	mov	r11, r31
     da2:	f0 2d       	mov	r31, r0
				debugprint("%c",gcBtMacNum[i]);	
     da4:	0f 2e       	mov	r0, r31
     da6:	f0 e8       	ldi	r31, 0x80	; 128
     da8:	8f 2e       	mov	r8, r31
     daa:	f4 e0       	ldi	r31, 0x04	; 4
     dac:	9f 2e       	mov	r9, r31
     dae:	f0 2d       	mov	r31, r0
		if((g_btRxData[0]==0x4F)&&(g_btRxData[1]==0x4B)&&(g_btRxData[7]==0x3A))
		{
			for(i = 0; i<MAX_MAC_NUM; i++)
			{
				if( (i%2==0)&&(i!=0) )
					debugprint(":");
     db0:	0f 2e       	mov	r0, r31
     db2:	fe e7       	ldi	r31, 0x7E	; 126
     db4:	6f 2e       	mov	r6, r31
     db6:	f4 e0       	ldi	r31, 0x04	; 4
     db8:	7f 2e       	mov	r7, r31
     dba:	f0 2d       	mov	r31, r0
     dbc:	09 c0       	rjmp	.+18     	; 0xdd0 <btReadMac+0xa0>
		return;
	}
		
	if(g_btRxCurrentIndex>=20)
	{
		if((g_btRxData[0]==0x4F)&&(g_btRxData[1]==0x4B)&&(g_btRxData[7]==0x3A))
     dbe:	0f 5f       	subi	r16, 0xFF	; 255
     dc0:	1f 4f       	sbci	r17, 0xFF	; 255
     dc2:	08 94       	sec
     dc4:	c1 1c       	adc	r12, r1
     dc6:	d1 1c       	adc	r13, r1
     dc8:	21 96       	adiw	r28, 0x01	; 1
     dca:	08 94       	sec
     dcc:	e1 1c       	adc	r14, r1
     dce:	f1 1c       	adc	r15, r1
		{
			for(i = 0; i<MAX_MAC_NUM; i++)
			{
				if( (i%2==0)&&(i!=0) )
     dd0:	00 fd       	sbrc	r16, 0
     dd2:	0f c0       	rjmp	.+30     	; 0xdf2 <btReadMac+0xc2>
     dd4:	01 15       	cp	r16, r1
     dd6:	11 05       	cpc	r17, r1
     dd8:	d9 f1       	breq	.+118    	; 0xe50 <btReadMac+0x120>
					debugprint(":");
     dda:	0f 92       	push	r0
     ddc:	0f 92       	push	r0
     dde:	ad b7       	in	r26, 0x3d	; 61
     de0:	be b7       	in	r27, 0x3e	; 62
     de2:	12 96       	adiw	r26, 0x02	; 2
     de4:	7c 92       	st	X, r7
     de6:	6e 92       	st	-X, r6
     de8:	11 97       	sbiw	r26, 0x01	; 1
     dea:	0e 94 e8 07 	call	0xfd0	; 0xfd0 <debugprint>
     dee:	0f 90       	pop	r0
     df0:	0f 90       	pop	r0
				gcBtMacNum[i] = g_btRxData[i+8];
     df2:	f5 01       	movw	r30, r10
     df4:	ec 0f       	add	r30, r28
     df6:	fd 1f       	adc	r31, r29
     df8:	80 81       	ld	r24, Z
     dfa:	f7 01       	movw	r30, r14
     dfc:	80 83       	st	Z, r24
				debugprint("%c",gcBtMacNum[i]);	
     dfe:	00 d0       	rcall	.+0      	; 0xe00 <btReadMac+0xd0>
     e00:	0f 92       	push	r0
     e02:	ed b7       	in	r30, 0x3d	; 61
     e04:	fe b7       	in	r31, 0x3e	; 62
     e06:	31 96       	adiw	r30, 0x01	; 1
     e08:	ad b7       	in	r26, 0x3d	; 61
     e0a:	be b7       	in	r27, 0x3e	; 62
     e0c:	12 96       	adiw	r26, 0x02	; 2
     e0e:	9c 92       	st	X, r9
     e10:	8e 92       	st	-X, r8
     e12:	11 97       	sbiw	r26, 0x01	; 1
     e14:	82 83       	std	Z+2, r24	; 0x02
     e16:	13 82       	std	Z+3, r1	; 0x03
     e18:	0e 94 e8 07 	call	0xfd0	; 0xfd0 <debugprint>
		
	if(g_btRxCurrentIndex>=20)
	{
		if((g_btRxData[0]==0x4F)&&(g_btRxData[1]==0x4B)&&(g_btRxData[7]==0x3A))
		{
			for(i = 0; i<MAX_MAC_NUM; i++)
     e1c:	0f 90       	pop	r0
     e1e:	0f 90       	pop	r0
     e20:	0f 90       	pop	r0
     e22:	0f 90       	pop	r0
     e24:	bc e0       	ldi	r27, 0x0C	; 12
     e26:	cb 16       	cp	r12, r27
     e28:	d1 04       	cpc	r13, r1
     e2a:	4c f2       	brlt	.-110    	; 0xdbe <btReadMac+0x8e>
				if( (i%2==0)&&(i!=0) )
					debugprint(":");
				gcBtMacNum[i] = g_btRxData[i+8];
				debugprint("%c",gcBtMacNum[i]);	
			}
			debugprint("\r\n\r\n");
     e2c:	0f 92       	push	r0
     e2e:	0f 92       	push	r0
     e30:	83 e8       	ldi	r24, 0x83	; 131
     e32:	94 e0       	ldi	r25, 0x04	; 4
     e34:	ed b7       	in	r30, 0x3d	; 61
     e36:	fe b7       	in	r31, 0x3e	; 62
     e38:	92 83       	std	Z+2, r25	; 0x02
     e3a:	81 83       	std	Z+1, r24	; 0x01
     e3c:	0e 94 e8 07 	call	0xfd0	; 0xfd0 <debugprint>
			g_btRxCurrentIndex = 0;
     e40:	10 92 e4 05 	sts	0x05E4, r1
     e44:	0f 90       	pop	r0
     e46:	0f 90       	pop	r0
     e48:	1d c0       	rjmp	.+58     	; 0xe84 <btReadMac+0x154>
		}
		else
		{
			g_btRxCurrentIndex = 0;
     e4a:	10 92 e4 05 	sts	0x05E4, r1
     e4e:	1a c0       	rjmp	.+52     	; 0xe84 <btReadMac+0x154>
		{
			for(i = 0; i<MAX_MAC_NUM; i++)
			{
				if( (i%2==0)&&(i!=0) )
					debugprint(":");
				gcBtMacNum[i] = g_btRxData[i+8];
     e50:	f5 01       	movw	r30, r10
     e52:	ec 0f       	add	r30, r28
     e54:	fd 1f       	adc	r31, r29
     e56:	80 81       	ld	r24, Z
     e58:	d7 01       	movw	r26, r14
     e5a:	8c 93       	st	X, r24
				debugprint("%c",gcBtMacNum[i]);	
     e5c:	00 d0       	rcall	.+0      	; 0xe5e <btReadMac+0x12e>
     e5e:	0f 92       	push	r0
     e60:	ed b7       	in	r30, 0x3d	; 61
     e62:	fe b7       	in	r31, 0x3e	; 62
     e64:	31 96       	adiw	r30, 0x01	; 1
     e66:	ad b7       	in	r26, 0x3d	; 61
     e68:	be b7       	in	r27, 0x3e	; 62
     e6a:	12 96       	adiw	r26, 0x02	; 2
     e6c:	9c 92       	st	X, r9
     e6e:	8e 92       	st	-X, r8
     e70:	11 97       	sbiw	r26, 0x01	; 1
     e72:	82 83       	std	Z+2, r24	; 0x02
     e74:	13 82       	std	Z+3, r1	; 0x03
     e76:	0e 94 e8 07 	call	0xfd0	; 0xfd0 <debugprint>
     e7a:	0f 90       	pop	r0
     e7c:	0f 90       	pop	r0
     e7e:	0f 90       	pop	r0
     e80:	0f 90       	pop	r0
     e82:	9d cf       	rjmp	.-198    	; 0xdbe <btReadMac+0x8e>
		else
		{
			g_btRxCurrentIndex = 0;
		}
	}
}
     e84:	df 91       	pop	r29
     e86:	cf 91       	pop	r28
     e88:	1f 91       	pop	r17
     e8a:	0f 91       	pop	r16
     e8c:	ff 90       	pop	r15
     e8e:	ef 90       	pop	r14
     e90:	df 90       	pop	r13
     e92:	cf 90       	pop	r12
     e94:	bf 90       	pop	r11
     e96:	af 90       	pop	r10
     e98:	9f 90       	pop	r9
     e9a:	8f 90       	pop	r8
     e9c:	7f 90       	pop	r7
     e9e:	6f 90       	pop	r6
     ea0:	08 95       	ret

00000ea2 <btMain>:

void btMain()
{
     ea2:	cf 92       	push	r12
     ea4:	df 92       	push	r13
     ea6:	ef 92       	push	r14
     ea8:	ff 92       	push	r15
     eaa:	0f 93       	push	r16
     eac:	1f 93       	push	r17
     eae:	cf 93       	push	r28
     eb0:	df 93       	push	r29
	int i;

	if ( !g_btRxCurrentIndex )
     eb2:	80 91 e4 05 	lds	r24, 0x05E4
     eb6:	88 23       	and	r24, r24
     eb8:	b1 f1       	breq	.+108    	; 0xf26 <btMain+0x84>
	{
		return;
	}
	
	for(i = 0; i <g_btRxCurrentIndex;i++)
     eba:	80 91 e4 05 	lds	r24, 0x05E4
     ebe:	88 23       	and	r24, r24
     ec0:	81 f1       	breq	.+96     	; 0xf22 <btMain+0x80>
     ec2:	00 e0       	ldi	r16, 0x00	; 0
     ec4:	10 e0       	ldi	r17, 0x00	; 0
	{
		putCh2(g_btRxData[i]);
     ec6:	0f 2e       	mov	r0, r31
     ec8:	fe e0       	ldi	r31, 0x0E	; 14
     eca:	ef 2e       	mov	r14, r31
     ecc:	f6 e0       	ldi	r31, 0x06	; 6
     ece:	ff 2e       	mov	r15, r31
     ed0:	f0 2d       	mov	r31, r0
		debugprint("[%02X]",g_btRxData[i]);
     ed2:	0f 2e       	mov	r0, r31
     ed4:	f8 e8       	ldi	r31, 0x88	; 136
     ed6:	cf 2e       	mov	r12, r31
     ed8:	f4 e0       	ldi	r31, 0x04	; 4
     eda:	df 2e       	mov	r13, r31
     edc:	f0 2d       	mov	r31, r0
		return;
	}
	
	for(i = 0; i <g_btRxCurrentIndex;i++)
	{
		putCh2(g_btRxData[i]);
     ede:	e7 01       	movw	r28, r14
     ee0:	c0 0f       	add	r28, r16
     ee2:	d1 1f       	adc	r29, r17
     ee4:	88 81       	ld	r24, Y
     ee6:	0e 94 9f 07 	call	0xf3e	; 0xf3e <putCh2>
		debugprint("[%02X]",g_btRxData[i]);
     eea:	88 81       	ld	r24, Y
     eec:	00 d0       	rcall	.+0      	; 0xeee <btMain+0x4c>
     eee:	0f 92       	push	r0
     ef0:	ed b7       	in	r30, 0x3d	; 61
     ef2:	fe b7       	in	r31, 0x3e	; 62
     ef4:	31 96       	adiw	r30, 0x01	; 1
     ef6:	ad b7       	in	r26, 0x3d	; 61
     ef8:	be b7       	in	r27, 0x3e	; 62
     efa:	12 96       	adiw	r26, 0x02	; 2
     efc:	dc 92       	st	X, r13
     efe:	ce 92       	st	-X, r12
     f00:	11 97       	sbiw	r26, 0x01	; 1
     f02:	82 83       	std	Z+2, r24	; 0x02
     f04:	13 82       	std	Z+3, r1	; 0x03
     f06:	0e 94 e8 07 	call	0xfd0	; 0xfd0 <debugprint>
	if ( !g_btRxCurrentIndex )
	{
		return;
	}
	
	for(i = 0; i <g_btRxCurrentIndex;i++)
     f0a:	0f 5f       	subi	r16, 0xFF	; 255
     f0c:	1f 4f       	sbci	r17, 0xFF	; 255
     f0e:	80 91 e4 05 	lds	r24, 0x05E4
     f12:	90 e0       	ldi	r25, 0x00	; 0
     f14:	0f 90       	pop	r0
     f16:	0f 90       	pop	r0
     f18:	0f 90       	pop	r0
     f1a:	0f 90       	pop	r0
     f1c:	08 17       	cp	r16, r24
     f1e:	19 07       	cpc	r17, r25
     f20:	f4 f2       	brlt	.-68     	; 0xede <btMain+0x3c>
	{
		putCh2(g_btRxData[i]);
		debugprint("[%02X]",g_btRxData[i]);
	}
	
	g_btRxCurrentIndex = 0;
     f22:	10 92 e4 05 	sts	0x05E4, r1
	
}
     f26:	df 91       	pop	r29
     f28:	cf 91       	pop	r28
     f2a:	1f 91       	pop	r17
     f2c:	0f 91       	pop	r16
     f2e:	ff 90       	pop	r15
     f30:	ef 90       	pop	r14
     f32:	df 90       	pop	r13
     f34:	cf 90       	pop	r12
     f36:	08 95       	ret

00000f38 <CDS_Init>:
#include "cds.h"

// cdsChennel : 0~7
void CDS_Init (int cdsChannel)
{
	AdcInit(cdsChannel);			// PORTF = ADC1
     f38:	0e 94 96 00 	call	0x12c	; 0x12c <AdcInit>
     f3c:	08 95       	ret

00000f3e <putCh2>:
     f3e:	e0 ed       	ldi	r30, 0xD0	; 208
     f40:	f0 e0       	ldi	r31, 0x00	; 0
     f42:	90 81       	ld	r25, Z
     f44:	95 ff       	sbrs	r25, 5
     f46:	fd cf       	rjmp	.-6      	; 0xf42 <putCh2+0x4>
     f48:	80 93 d6 00 	sts	0x00D6, r24
     f4c:	08 95       	ret

00000f4e <__vector_51>:
     f4e:	1f 92       	push	r1
     f50:	0f 92       	push	r0
     f52:	0f b6       	in	r0, 0x3f	; 63
     f54:	0f 92       	push	r0
     f56:	0b b6       	in	r0, 0x3b	; 59
     f58:	0f 92       	push	r0
     f5a:	11 24       	eor	r1, r1
     f5c:	8f 93       	push	r24
     f5e:	9f 93       	push	r25
     f60:	ef 93       	push	r30
     f62:	ff 93       	push	r31
     f64:	90 91 e5 05 	lds	r25, 0x05E5
     f68:	80 91 d6 00 	lds	r24, 0x00D6
     f6c:	ee e0       	ldi	r30, 0x0E	; 14
     f6e:	f8 e0       	ldi	r31, 0x08	; 8
     f70:	e9 0f       	add	r30, r25
     f72:	f1 1d       	adc	r31, r1
     f74:	80 83       	st	Z, r24
     f76:	80 91 e5 05 	lds	r24, 0x05E5
     f7a:	8f 5f       	subi	r24, 0xFF	; 255
     f7c:	80 93 e5 05 	sts	0x05E5, r24
     f80:	80 91 e5 05 	lds	r24, 0x05E5
     f84:	80 34       	cpi	r24, 0x40	; 64
     f86:	10 f0       	brcs	.+4      	; 0xf8c <__vector_51+0x3e>
     f88:	10 92 e5 05 	sts	0x05E5, r1
     f8c:	ff 91       	pop	r31
     f8e:	ef 91       	pop	r30
     f90:	9f 91       	pop	r25
     f92:	8f 91       	pop	r24
     f94:	0f 90       	pop	r0
     f96:	0b be       	out	0x3b, r0	; 59
     f98:	0f 90       	pop	r0
     f9a:	0f be       	out	0x3f, r0	; 63
     f9c:	0f 90       	pop	r0
     f9e:	1f 90       	pop	r1
     fa0:	18 95       	reti

00000fa2 <debugInit>:
     fa2:	e1 e0       	ldi	r30, 0x01	; 1
     fa4:	f1 e0       	ldi	r31, 0x01	; 1
     fa6:	80 81       	ld	r24, Z
     fa8:	8c 7f       	andi	r24, 0xFC	; 252
     faa:	80 83       	st	Z, r24
     fac:	e2 e0       	ldi	r30, 0x02	; 2
     fae:	f1 e0       	ldi	r31, 0x01	; 1
     fb0:	80 81       	ld	r24, Z
     fb2:	80 83       	st	Z, r24
     fb4:	10 92 d0 00 	sts	0x00D0, r1
     fb8:	88 e9       	ldi	r24, 0x98	; 152
     fba:	80 93 d1 00 	sts	0x00D1, r24
     fbe:	86 e0       	ldi	r24, 0x06	; 6
     fc0:	80 93 d2 00 	sts	0x00D2, r24
     fc4:	10 92 d5 00 	sts	0x00D5, r1
     fc8:	87 e0       	ldi	r24, 0x07	; 7
     fca:	80 93 d4 00 	sts	0x00D4, r24
     fce:	08 95       	ret

00000fd0 <debugprint>:
     fd0:	0f 93       	push	r16
     fd2:	1f 93       	push	r17
     fd4:	cf 93       	push	r28
     fd6:	df 93       	push	r29
     fd8:	cd b7       	in	r28, 0x3d	; 61
     fda:	de b7       	in	r29, 0x3e	; 62
     fdc:	c0 58       	subi	r28, 0x80	; 128
     fde:	d0 40       	sbci	r29, 0x00	; 0
     fe0:	0f b6       	in	r0, 0x3f	; 63
     fe2:	f8 94       	cli
     fe4:	de bf       	out	0x3e, r29	; 62
     fe6:	0f be       	out	0x3f, r0	; 63
     fe8:	cd bf       	out	0x3d, r28	; 61
     fea:	fe 01       	movw	r30, r28
     fec:	e8 57       	subi	r30, 0x78	; 120
     fee:	ff 4f       	sbci	r31, 0xFF	; 255
     ff0:	61 91       	ld	r22, Z+
     ff2:	71 91       	ld	r23, Z+
     ff4:	ce 01       	movw	r24, r28
     ff6:	01 96       	adiw	r24, 0x01	; 1
     ff8:	4e 2f       	mov	r20, r30
     ffa:	5f 2f       	mov	r21, r31
     ffc:	0e 94 8a 1a 	call	0x3514	; 0x3514 <vsprintf>
    1000:	89 81       	ldd	r24, Y+1	; 0x01
    1002:	88 23       	and	r24, r24
    1004:	51 f0       	breq	.+20     	; 0x101a <debugprint+0x4a>
    1006:	8e 01       	movw	r16, r28
    1008:	0e 5f       	subi	r16, 0xFE	; 254
    100a:	1f 4f       	sbci	r17, 0xFF	; 255
    100c:	0e 94 9f 07 	call	0xf3e	; 0xf3e <putCh2>
    1010:	f8 01       	movw	r30, r16
    1012:	81 91       	ld	r24, Z+
    1014:	8f 01       	movw	r16, r30
    1016:	88 23       	and	r24, r24
    1018:	c9 f7       	brne	.-14     	; 0x100c <debugprint+0x3c>
    101a:	c0 58       	subi	r28, 0x80	; 128
    101c:	df 4f       	sbci	r29, 0xFF	; 255
    101e:	0f b6       	in	r0, 0x3f	; 63
    1020:	f8 94       	cli
    1022:	de bf       	out	0x3e, r29	; 62
    1024:	0f be       	out	0x3f, r0	; 63
    1026:	cd bf       	out	0x3d, r28	; 61
    1028:	df 91       	pop	r29
    102a:	cf 91       	pop	r28
    102c:	1f 91       	pop	r17
    102e:	0f 91       	pop	r16
    1030:	08 95       	ret

00001032 <debugConsoleMain>:
    1032:	80 91 e5 05 	lds	r24, 0x05E5
    1036:	88 23       	and	r24, r24
    1038:	79 f0       	breq	.+30     	; 0x1058 <debugConsoleMain+0x26>
    103a:	80 91 e5 05 	lds	r24, 0x05E5
    103e:	88 23       	and	r24, r24
    1040:	49 f0       	breq	.+18     	; 0x1054 <debugConsoleMain+0x22>
    1042:	80 e0       	ldi	r24, 0x00	; 0
    1044:	90 e0       	ldi	r25, 0x00	; 0
    1046:	01 96       	adiw	r24, 0x01	; 1
    1048:	20 91 e5 05 	lds	r18, 0x05E5
    104c:	30 e0       	ldi	r19, 0x00	; 0
    104e:	82 17       	cp	r24, r18
    1050:	93 07       	cpc	r25, r19
    1052:	cc f3       	brlt	.-14     	; 0x1046 <debugConsoleMain+0x14>
    1054:	10 92 e5 05 	sts	0x05E5, r1
    1058:	08 95       	ret

0000105a <putCh0>:
    105a:	e0 ec       	ldi	r30, 0xC0	; 192
    105c:	f0 e0       	ldi	r31, 0x00	; 0
    105e:	90 81       	ld	r25, Z
    1060:	95 ff       	sbrs	r25, 5
    1062:	fd cf       	rjmp	.-6      	; 0x105e <putCh0+0x4>
    1064:	80 93 c6 00 	sts	0x00C6, r24
    1068:	08 95       	ret

0000106a <__vector_25>:
    106a:	1f 92       	push	r1
    106c:	0f 92       	push	r0
    106e:	0f b6       	in	r0, 0x3f	; 63
    1070:	0f 92       	push	r0
    1072:	0b b6       	in	r0, 0x3b	; 59
    1074:	0f 92       	push	r0
    1076:	11 24       	eor	r1, r1
    1078:	8f 93       	push	r24
    107a:	9f 93       	push	r25
    107c:	ef 93       	push	r30
    107e:	ff 93       	push	r31
    1080:	90 91 eb 05 	lds	r25, 0x05EB
    1084:	80 91 c6 00 	lds	r24, 0x00C6
    1088:	ee e4       	ldi	r30, 0x4E	; 78
    108a:	fa e0       	ldi	r31, 0x0A	; 10
    108c:	e9 0f       	add	r30, r25
    108e:	f1 1d       	adc	r31, r1
    1090:	80 83       	st	Z, r24
    1092:	80 91 eb 05 	lds	r24, 0x05EB
    1096:	8f 5f       	subi	r24, 0xFF	; 255
    1098:	80 93 eb 05 	sts	0x05EB, r24
    109c:	80 91 eb 05 	lds	r24, 0x05EB
    10a0:	ff 91       	pop	r31
    10a2:	ef 91       	pop	r30
    10a4:	9f 91       	pop	r25
    10a6:	8f 91       	pop	r24
    10a8:	0f 90       	pop	r0
    10aa:	0b be       	out	0x3b, r0	; 59
    10ac:	0f 90       	pop	r0
    10ae:	0f be       	out	0x3f, r0	; 63
    10b0:	0f 90       	pop	r0
    10b2:	1f 90       	pop	r1
    10b4:	18 95       	reti

000010b6 <wifiAndBTModuleReset>:
    10b6:	56 98       	cbi	0x0a, 6	; 10
    10b8:	5e 98       	cbi	0x0b, 6	; 11
    10ba:	89 e9       	ldi	r24, 0x99	; 153
    10bc:	99 e5       	ldi	r25, 0x59	; 89
    10be:	a1 e0       	ldi	r26, 0x01	; 1
    10c0:	81 50       	subi	r24, 0x01	; 1
    10c2:	90 40       	sbci	r25, 0x00	; 0
    10c4:	a0 40       	sbci	r26, 0x00	; 0
    10c6:	e1 f7       	brne	.-8      	; 0x10c0 <wifiAndBTModuleReset+0xa>
    10c8:	00 00       	nop
    10ca:	56 9a       	sbi	0x0a, 6	; 10
    10cc:	8f ef       	ldi	r24, 0xFF	; 255
    10ce:	9f e3       	ldi	r25, 0x3F	; 63
    10d0:	a2 e0       	ldi	r26, 0x02	; 2
    10d2:	81 50       	subi	r24, 0x01	; 1
    10d4:	90 40       	sbci	r25, 0x00	; 0
    10d6:	a0 40       	sbci	r26, 0x00	; 0
    10d8:	e1 f7       	brne	.-8      	; 0x10d2 <wifiAndBTModuleReset+0x1c>
    10da:	00 c0       	rjmp	.+0      	; 0x10dc <wifiAndBTModuleReset+0x26>
    10dc:	00 00       	nop
    10de:	56 98       	cbi	0x0a, 6	; 10
    10e0:	5e 9a       	sbi	0x0b, 6	; 11
    10e2:	8f ef       	ldi	r24, 0xFF	; 255
    10e4:	9f ef       	ldi	r25, 0xFF	; 255
    10e6:	a9 e5       	ldi	r26, 0x59	; 89
    10e8:	81 50       	subi	r24, 0x01	; 1
    10ea:	90 40       	sbci	r25, 0x00	; 0
    10ec:	a0 40       	sbci	r26, 0x00	; 0
    10ee:	e1 f7       	brne	.-8      	; 0x10e8 <wifiAndBTModuleReset+0x32>
    10f0:	00 c0       	rjmp	.+0      	; 0x10f2 <wifiAndBTModuleReset+0x3c>
    10f2:	00 00       	nop
    10f4:	08 95       	ret

000010f6 <wifiEnable>:
    10f6:	88 23       	and	r24, r24
    10f8:	11 f0       	breq	.+4      	; 0x10fe <wifiEnable+0x8>
    10fa:	5f 9a       	sbi	0x0b, 7	; 11
    10fc:	01 c0       	rjmp	.+2      	; 0x1100 <wifiEnable+0xa>
    10fe:	5f 98       	cbi	0x0b, 7	; 11
    1100:	8f ef       	ldi	r24, 0xFF	; 255
    1102:	9f ef       	ldi	r25, 0xFF	; 255
    1104:	a8 e0       	ldi	r26, 0x08	; 8
    1106:	81 50       	subi	r24, 0x01	; 1
    1108:	90 40       	sbci	r25, 0x00	; 0
    110a:	a0 40       	sbci	r26, 0x00	; 0
    110c:	e1 f7       	brne	.-8      	; 0x1106 <wifiEnable+0x10>
    110e:	00 c0       	rjmp	.+0      	; 0x1110 <wifiEnable+0x1a>
    1110:	00 00       	nop
    1112:	08 95       	ret

00001114 <wifiInit>:
    1114:	8d b1       	in	r24, 0x0d	; 13
    1116:	8c 7f       	andi	r24, 0xFC	; 252
    1118:	8d b9       	out	0x0d, r24	; 13
    111a:	8e b1       	in	r24, 0x0e	; 14
    111c:	8e b9       	out	0x0e, r24	; 14
    111e:	10 92 c0 00 	sts	0x00C0, r1
    1122:	88 e9       	ldi	r24, 0x98	; 152
    1124:	80 93 c1 00 	sts	0x00C1, r24
    1128:	86 e0       	ldi	r24, 0x06	; 6
    112a:	80 93 c2 00 	sts	0x00C2, r24
    112e:	10 92 c5 00 	sts	0x00C5, r1
    1132:	87 e0       	ldi	r24, 0x07	; 7
    1134:	80 93 c4 00 	sts	0x00C4, r24
    1138:	57 9a       	sbi	0x0a, 7	; 10
    113a:	5f 9a       	sbi	0x0b, 7	; 11
    113c:	0e 94 5b 08 	call	0x10b6	; 0x10b6 <wifiAndBTModuleReset>
    1140:	8f ef       	ldi	r24, 0xFF	; 255
    1142:	9f e7       	ldi	r25, 0x7F	; 127
    1144:	a4 e0       	ldi	r26, 0x04	; 4
    1146:	81 50       	subi	r24, 0x01	; 1
    1148:	90 40       	sbci	r25, 0x00	; 0
    114a:	a0 40       	sbci	r26, 0x00	; 0
    114c:	e1 f7       	brne	.-8      	; 0x1146 <wifiInit+0x32>
    114e:	00 c0       	rjmp	.+0      	; 0x1150 <wifiInit+0x3c>
    1150:	00 00       	nop
    1152:	81 e0       	ldi	r24, 0x01	; 1
    1154:	0e 94 7b 08 	call	0x10f6	; 0x10f6 <wifiEnable>
    1158:	10 92 4f 0e 	sts	0x0E4F, r1
    115c:	10 92 4e 0e 	sts	0x0E4E, r1
    1160:	08 95       	ret

00001162 <wifiprint>:
    1162:	0f 93       	push	r16
    1164:	1f 93       	push	r17
    1166:	cf 93       	push	r28
    1168:	df 93       	push	r29
    116a:	cd b7       	in	r28, 0x3d	; 61
    116c:	de b7       	in	r29, 0x3e	; 62
    116e:	c0 58       	subi	r28, 0x80	; 128
    1170:	d0 40       	sbci	r29, 0x00	; 0
    1172:	0f b6       	in	r0, 0x3f	; 63
    1174:	f8 94       	cli
    1176:	de bf       	out	0x3e, r29	; 62
    1178:	0f be       	out	0x3f, r0	; 63
    117a:	cd bf       	out	0x3d, r28	; 61
    117c:	fe 01       	movw	r30, r28
    117e:	e8 57       	subi	r30, 0x78	; 120
    1180:	ff 4f       	sbci	r31, 0xFF	; 255
    1182:	61 91       	ld	r22, Z+
    1184:	71 91       	ld	r23, Z+
    1186:	ce 01       	movw	r24, r28
    1188:	01 96       	adiw	r24, 0x01	; 1
    118a:	4e 2f       	mov	r20, r30
    118c:	5f 2f       	mov	r21, r31
    118e:	0e 94 8a 1a 	call	0x3514	; 0x3514 <vsprintf>
    1192:	89 81       	ldd	r24, Y+1	; 0x01
    1194:	88 23       	and	r24, r24
    1196:	51 f0       	breq	.+20     	; 0x11ac <wifiprint+0x4a>
    1198:	8e 01       	movw	r16, r28
    119a:	0e 5f       	subi	r16, 0xFE	; 254
    119c:	1f 4f       	sbci	r17, 0xFF	; 255
    119e:	0e 94 2d 08 	call	0x105a	; 0x105a <putCh0>
    11a2:	f8 01       	movw	r30, r16
    11a4:	81 91       	ld	r24, Z+
    11a6:	8f 01       	movw	r16, r30
    11a8:	88 23       	and	r24, r24
    11aa:	c9 f7       	brne	.-14     	; 0x119e <wifiprint+0x3c>
    11ac:	c0 58       	subi	r28, 0x80	; 128
    11ae:	df 4f       	sbci	r29, 0xFF	; 255
    11b0:	0f b6       	in	r0, 0x3f	; 63
    11b2:	f8 94       	cli
    11b4:	de bf       	out	0x3e, r29	; 62
    11b6:	0f be       	out	0x3f, r0	; 63
    11b8:	cd bf       	out	0x3d, r28	; 61
    11ba:	df 91       	pop	r29
    11bc:	cf 91       	pop	r28
    11be:	1f 91       	pop	r17
    11c0:	0f 91       	pop	r16
    11c2:	08 95       	ret

000011c4 <parsingIPDRxData>:
    11c4:	8f 92       	push	r8
    11c6:	9f 92       	push	r9
    11c8:	af 92       	push	r10
    11ca:	bf 92       	push	r11
    11cc:	cf 92       	push	r12
    11ce:	df 92       	push	r13
    11d0:	ef 92       	push	r14
    11d2:	ff 92       	push	r15
    11d4:	0f 93       	push	r16
    11d6:	1f 93       	push	r17
    11d8:	cf 93       	push	r28
    11da:	df 93       	push	r29
    11dc:	cd b7       	in	r28, 0x3d	; 61
    11de:	de b7       	in	r29, 0x3e	; 62
    11e0:	2a 97       	sbiw	r28, 0x0a	; 10
    11e2:	0f b6       	in	r0, 0x3f	; 63
    11e4:	f8 94       	cli
    11e6:	de bf       	out	0x3e, r29	; 62
    11e8:	0f be       	out	0x3f, r0	; 63
    11ea:	cd bf       	out	0x3d, r28	; 61
    11ec:	6c 01       	movw	r12, r24
    11ee:	7b 01       	movw	r14, r22
    11f0:	16 16       	cp	r1, r22
    11f2:	17 06       	cpc	r1, r23
    11f4:	0c f0       	brlt	.+2      	; 0x11f8 <parsingIPDRxData+0x34>
    11f6:	76 c0       	rjmp	.+236    	; 0x12e4 <parsingIPDRxData+0x120>
    11f8:	fc 01       	movw	r30, r24
    11fa:	80 81       	ld	r24, Z
    11fc:	8a 33       	cpi	r24, 0x3A	; 58
    11fe:	c1 f0       	breq	.+48     	; 0x1230 <parsingIPDRxData+0x6c>
    1200:	31 96       	adiw	r30, 0x01	; 1
    1202:	80 e0       	ldi	r24, 0x00	; 0
    1204:	90 e0       	ldi	r25, 0x00	; 0
    1206:	03 c0       	rjmp	.+6      	; 0x120e <parsingIPDRxData+0x4a>
    1208:	21 91       	ld	r18, Z+
    120a:	2a 33       	cpi	r18, 0x3A	; 58
    120c:	31 f0       	breq	.+12     	; 0x121a <parsingIPDRxData+0x56>
    120e:	01 96       	adiw	r24, 0x01	; 1
    1210:	8e 15       	cp	r24, r14
    1212:	9f 05       	cpc	r25, r15
    1214:	c9 f7       	brne	.-14     	; 0x1208 <parsingIPDRxData+0x44>
    1216:	81 e0       	ldi	r24, 0x01	; 1
    1218:	6e c0       	rjmp	.+220    	; 0x12f6 <parsingIPDRxData+0x132>
    121a:	ff ef       	ldi	r31, 0xFF	; 255
    121c:	8f 3f       	cpi	r24, 0xFF	; 255
    121e:	9f 07       	cpc	r25, r31
    1220:	09 f4       	brne	.+2      	; 0x1224 <parsingIPDRxData+0x60>
    1222:	62 c0       	rjmp	.+196    	; 0x12e8 <parsingIPDRxData+0x124>
    1224:	5c 01       	movw	r10, r24
    1226:	8c 30       	cpi	r24, 0x0C	; 12
    1228:	91 05       	cpc	r25, r1
    122a:	0c f0       	brlt	.+2      	; 0x122e <parsingIPDRxData+0x6a>
    122c:	5f c0       	rjmp	.+190    	; 0x12ec <parsingIPDRxData+0x128>
    122e:	02 c0       	rjmp	.+4      	; 0x1234 <parsingIPDRxData+0x70>
    1230:	aa 24       	eor	r10, r10
    1232:	bb 24       	eor	r11, r11
    1234:	85 01       	movw	r16, r10
    1236:	05 50       	subi	r16, 0x05	; 5
    1238:	10 40       	sbci	r17, 0x00	; 0
    123a:	b6 01       	movw	r22, r12
    123c:	6b 5f       	subi	r22, 0xFB	; 251
    123e:	7f 4f       	sbci	r23, 0xFF	; 255
    1240:	ce 01       	movw	r24, r28
    1242:	01 96       	adiw	r24, 0x01	; 1
    1244:	40 2f       	mov	r20, r16
    1246:	51 2f       	mov	r21, r17
    1248:	0e 94 6b 1a 	call	0x34d6	; 0x34d6 <memcpy>
    124c:	e1 e0       	ldi	r30, 0x01	; 1
    124e:	f0 e0       	ldi	r31, 0x00	; 0
    1250:	ec 0f       	add	r30, r28
    1252:	fd 1f       	adc	r31, r29
    1254:	e0 0f       	add	r30, r16
    1256:	f1 1f       	adc	r31, r17
    1258:	10 82       	st	Z, r1
    125a:	ce 01       	movw	r24, r28
    125c:	01 96       	adiw	r24, 0x01	; 1
    125e:	0e 94 4d 1a 	call	0x349a	; 0x349a <atoi>
    1262:	ac 01       	movw	r20, r24
    1264:	00 97       	sbiw	r24, 0x00	; 0
    1266:	09 f4       	brne	.+2      	; 0x126a <parsingIPDRxData+0xa6>
    1268:	43 c0       	rjmp	.+134    	; 0x12f0 <parsingIPDRxData+0x12c>
    126a:	ea 18       	sub	r14, r10
    126c:	fb 08       	sbc	r15, r11
    126e:	87 01       	movw	r16, r14
    1270:	01 50       	subi	r16, 0x01	; 1
    1272:	10 40       	sbci	r17, 0x00	; 0
    1274:	08 17       	cp	r16, r24
    1276:	19 07       	cpc	r17, r25
    1278:	34 f5       	brge	.+76     	; 0x12c6 <parsingIPDRxData+0x102>
    127a:	c7 01       	movw	r24, r14
    127c:	01 96       	adiw	r24, 0x01	; 1
    127e:	84 17       	cp	r24, r20
    1280:	95 07       	cpc	r25, r21
    1282:	c1 f5       	brne	.+112    	; 0x12f4 <parsingIPDRxData+0x130>
    1284:	90 93 ea 05 	sts	0x05EA, r25
    1288:	80 93 e9 05 	sts	0x05E9, r24
    128c:	0f 2e       	mov	r0, r31
    128e:	fe e4       	ldi	r31, 0x4E	; 78
    1290:	8f 2e       	mov	r8, r31
    1292:	f8 e0       	ldi	r31, 0x08	; 8
    1294:	9f 2e       	mov	r9, r31
    1296:	f0 2d       	mov	r31, r0
    1298:	b5 01       	movw	r22, r10
    129a:	6f 5f       	subi	r22, 0xFF	; 255
    129c:	7f 4f       	sbci	r23, 0xFF	; 255
    129e:	6c 0d       	add	r22, r12
    12a0:	7d 1d       	adc	r23, r13
    12a2:	88 2d       	mov	r24, r8
    12a4:	99 2d       	mov	r25, r9
    12a6:	40 2f       	mov	r20, r16
    12a8:	51 2f       	mov	r21, r17
    12aa:	0e 94 6b 1a 	call	0x34d6	; 0x34d6 <memcpy>
    12ae:	f4 01       	movw	r30, r8
    12b0:	e0 0f       	add	r30, r16
    12b2:	f1 1f       	adc	r31, r17
    12b4:	8d e0       	ldi	r24, 0x0D	; 13
    12b6:	80 83       	st	Z, r24
    12b8:	f4 01       	movw	r30, r8
    12ba:	ee 0d       	add	r30, r14
    12bc:	ff 1d       	adc	r31, r15
    12be:	8a e0       	ldi	r24, 0x0A	; 10
    12c0:	80 83       	st	Z, r24
    12c2:	80 e0       	ldi	r24, 0x00	; 0
    12c4:	18 c0       	rjmp	.+48     	; 0x12f6 <parsingIPDRxData+0x132>
    12c6:	90 93 ea 05 	sts	0x05EA, r25
    12ca:	80 93 e9 05 	sts	0x05E9, r24
    12ce:	8e e4       	ldi	r24, 0x4E	; 78
    12d0:	98 e0       	ldi	r25, 0x08	; 8
    12d2:	b5 01       	movw	r22, r10
    12d4:	6f 5f       	subi	r22, 0xFF	; 255
    12d6:	7f 4f       	sbci	r23, 0xFF	; 255
    12d8:	6c 0d       	add	r22, r12
    12da:	7d 1d       	adc	r23, r13
    12dc:	0e 94 6b 1a 	call	0x34d6	; 0x34d6 <memcpy>
    12e0:	80 e0       	ldi	r24, 0x00	; 0
    12e2:	09 c0       	rjmp	.+18     	; 0x12f6 <parsingIPDRxData+0x132>
    12e4:	81 e0       	ldi	r24, 0x01	; 1
    12e6:	07 c0       	rjmp	.+14     	; 0x12f6 <parsingIPDRxData+0x132>
    12e8:	81 e0       	ldi	r24, 0x01	; 1
    12ea:	05 c0       	rjmp	.+10     	; 0x12f6 <parsingIPDRxData+0x132>
    12ec:	82 e0       	ldi	r24, 0x02	; 2
    12ee:	03 c0       	rjmp	.+6      	; 0x12f6 <parsingIPDRxData+0x132>
    12f0:	82 e0       	ldi	r24, 0x02	; 2
    12f2:	01 c0       	rjmp	.+2      	; 0x12f6 <parsingIPDRxData+0x132>
    12f4:	81 e0       	ldi	r24, 0x01	; 1
    12f6:	2a 96       	adiw	r28, 0x0a	; 10
    12f8:	0f b6       	in	r0, 0x3f	; 63
    12fa:	f8 94       	cli
    12fc:	de bf       	out	0x3e, r29	; 62
    12fe:	0f be       	out	0x3f, r0	; 63
    1300:	cd bf       	out	0x3d, r28	; 61
    1302:	df 91       	pop	r29
    1304:	cf 91       	pop	r28
    1306:	1f 91       	pop	r17
    1308:	0f 91       	pop	r16
    130a:	ff 90       	pop	r15
    130c:	ef 90       	pop	r14
    130e:	df 90       	pop	r13
    1310:	cf 90       	pop	r12
    1312:	bf 90       	pop	r11
    1314:	af 90       	pop	r10
    1316:	9f 90       	pop	r9
    1318:	8f 90       	pop	r8
    131a:	08 95       	ret

0000131c <parsingMsg>:
    131c:	0f 93       	push	r16
    131e:	1f 93       	push	r17
    1320:	cf 93       	push	r28
    1322:	df 93       	push	r29
    1324:	ec 01       	movw	r28, r24
    1326:	8b 01       	movw	r16, r22
    1328:	6f e8       	ldi	r22, 0x8F	; 143
    132a:	74 e0       	ldi	r23, 0x04	; 4
    132c:	42 e0       	ldi	r20, 0x02	; 2
    132e:	50 e0       	ldi	r21, 0x00	; 0
    1330:	0e 94 74 1a 	call	0x34e8	; 0x34e8 <strncmp>
    1334:	28 2f       	mov	r18, r24
    1336:	39 2f       	mov	r19, r25
    1338:	21 15       	cp	r18, r1
    133a:	31 05       	cpc	r19, r1
    133c:	09 f4       	brne	.+2      	; 0x1340 <parsingMsg+0x24>
    133e:	6a c0       	rjmp	.+212    	; 0x1414 <parsingMsg+0xf8>
    1340:	88 81       	ld	r24, Y
    1342:	8e 33       	cpi	r24, 0x3E	; 62
    1344:	09 f4       	brne	.+2      	; 0x1348 <parsingMsg+0x2c>
    1346:	68 c0       	rjmp	.+208    	; 0x1418 <parsingMsg+0xfc>
    1348:	07 30       	cpi	r16, 0x07	; 7
    134a:	11 05       	cpc	r17, r1
    134c:	6c f0       	brlt	.+26     	; 0x1368 <parsingMsg+0x4c>
    134e:	ce 01       	movw	r24, r28
    1350:	62 e9       	ldi	r22, 0x92	; 146
    1352:	74 e0       	ldi	r23, 0x04	; 4
    1354:	47 e0       	ldi	r20, 0x07	; 7
    1356:	50 e0       	ldi	r21, 0x00	; 0
    1358:	0e 94 74 1a 	call	0x34e8	; 0x34e8 <strncmp>
    135c:	28 2f       	mov	r18, r24
    135e:	39 2f       	mov	r19, r25
    1360:	21 15       	cp	r18, r1
    1362:	31 05       	cpc	r19, r1
    1364:	09 f4       	brne	.+2      	; 0x1368 <parsingMsg+0x4c>
    1366:	5a c0       	rjmp	.+180    	; 0x141c <parsingMsg+0x100>
    1368:	04 30       	cpi	r16, 0x04	; 4
    136a:	11 05       	cpc	r17, r1
    136c:	c4 f0       	brlt	.+48     	; 0x139e <parsingMsg+0x82>
    136e:	ce 01       	movw	r24, r28
    1370:	6a e9       	ldi	r22, 0x9A	; 154
    1372:	74 e0       	ldi	r23, 0x04	; 4
    1374:	44 e0       	ldi	r20, 0x04	; 4
    1376:	50 e0       	ldi	r21, 0x00	; 0
    1378:	0e 94 74 1a 	call	0x34e8	; 0x34e8 <strncmp>
    137c:	28 2f       	mov	r18, r24
    137e:	39 2f       	mov	r19, r25
    1380:	21 15       	cp	r18, r1
    1382:	31 05       	cpc	r19, r1
    1384:	61 f4       	brne	.+24     	; 0x139e <parsingMsg+0x82>
    1386:	ce 01       	movw	r24, r28
    1388:	b8 01       	movw	r22, r16
    138a:	0e 94 e2 08 	call	0x11c4	; 0x11c4 <parsingIPDRxData>
    138e:	88 23       	and	r24, r24
    1390:	09 f4       	brne	.+2      	; 0x1394 <parsingMsg+0x78>
    1392:	46 c0       	rjmp	.+140    	; 0x1420 <parsingMsg+0x104>
    1394:	81 30       	cpi	r24, 0x01	; 1
    1396:	09 f0       	breq	.+2      	; 0x139a <parsingMsg+0x7e>
    1398:	45 c0       	rjmp	.+138    	; 0x1424 <parsingMsg+0x108>
    139a:	84 e0       	ldi	r24, 0x04	; 4
    139c:	4e c0       	rjmp	.+156    	; 0x143a <parsingMsg+0x11e>
    139e:	05 30       	cpi	r16, 0x05	; 5
    13a0:	11 05       	cpc	r17, r1
    13a2:	64 f0       	brlt	.+24     	; 0x13bc <parsingMsg+0xa0>
    13a4:	ce 01       	movw	r24, r28
    13a6:	60 ea       	ldi	r22, 0xA0	; 160
    13a8:	74 e0       	ldi	r23, 0x04	; 4
    13aa:	45 e0       	ldi	r20, 0x05	; 5
    13ac:	50 e0       	ldi	r21, 0x00	; 0
    13ae:	0e 94 74 1a 	call	0x34e8	; 0x34e8 <strncmp>
    13b2:	28 2f       	mov	r18, r24
    13b4:	39 2f       	mov	r19, r25
    13b6:	21 15       	cp	r18, r1
    13b8:	31 05       	cpc	r19, r1
    13ba:	b1 f1       	breq	.+108    	; 0x1428 <parsingMsg+0x10c>
    13bc:	04 30       	cpi	r16, 0x04	; 4
    13be:	11 05       	cpc	r17, r1
    13c0:	64 f0       	brlt	.+24     	; 0x13da <parsingMsg+0xbe>
    13c2:	ce 01       	movw	r24, r28
    13c4:	66 ea       	ldi	r22, 0xA6	; 166
    13c6:	74 e0       	ldi	r23, 0x04	; 4
    13c8:	45 e0       	ldi	r20, 0x05	; 5
    13ca:	50 e0       	ldi	r21, 0x00	; 0
    13cc:	0e 94 74 1a 	call	0x34e8	; 0x34e8 <strncmp>
    13d0:	28 2f       	mov	r18, r24
    13d2:	39 2f       	mov	r19, r25
    13d4:	21 15       	cp	r18, r1
    13d6:	31 05       	cpc	r19, r1
    13d8:	49 f1       	breq	.+82     	; 0x142c <parsingMsg+0x110>
    13da:	07 30       	cpi	r16, 0x07	; 7
    13dc:	11 05       	cpc	r17, r1
    13de:	44 f1       	brlt	.+80     	; 0x1430 <parsingMsg+0x114>
    13e0:	ce 01       	movw	r24, r28
    13e2:	6b ea       	ldi	r22, 0xAB	; 171
    13e4:	74 e0       	ldi	r23, 0x04	; 4
    13e6:	47 e0       	ldi	r20, 0x07	; 7
    13e8:	50 e0       	ldi	r21, 0x00	; 0
    13ea:	0e 94 74 1a 	call	0x34e8	; 0x34e8 <strncmp>
    13ee:	28 2f       	mov	r18, r24
    13f0:	39 2f       	mov	r19, r25
    13f2:	21 15       	cp	r18, r1
    13f4:	31 05       	cpc	r19, r1
    13f6:	f1 f0       	breq	.+60     	; 0x1434 <parsingMsg+0x118>
    13f8:	ce 01       	movw	r24, r28
    13fa:	63 eb       	ldi	r22, 0xB3	; 179
    13fc:	74 e0       	ldi	r23, 0x04	; 4
    13fe:	47 e0       	ldi	r20, 0x07	; 7
    1400:	50 e0       	ldi	r21, 0x00	; 0
    1402:	0e 94 74 1a 	call	0x34e8	; 0x34e8 <strncmp>
    1406:	28 2f       	mov	r18, r24
    1408:	39 2f       	mov	r19, r25
    140a:	21 15       	cp	r18, r1
    140c:	31 05       	cpc	r19, r1
    140e:	a1 f4       	brne	.+40     	; 0x1438 <parsingMsg+0x11c>
    1410:	89 e0       	ldi	r24, 0x09	; 9
    1412:	13 c0       	rjmp	.+38     	; 0x143a <parsingMsg+0x11e>
    1414:	82 e0       	ldi	r24, 0x02	; 2
    1416:	11 c0       	rjmp	.+34     	; 0x143a <parsingMsg+0x11e>
    1418:	88 e0       	ldi	r24, 0x08	; 8
    141a:	0f c0       	rjmp	.+30     	; 0x143a <parsingMsg+0x11e>
    141c:	81 e0       	ldi	r24, 0x01	; 1
    141e:	0d c0       	rjmp	.+26     	; 0x143a <parsingMsg+0x11e>
    1420:	83 e0       	ldi	r24, 0x03	; 3
    1422:	0b c0       	rjmp	.+22     	; 0x143a <parsingMsg+0x11e>
    1424:	80 e0       	ldi	r24, 0x00	; 0
    1426:	09 c0       	rjmp	.+18     	; 0x143a <parsingMsg+0x11e>
    1428:	85 e0       	ldi	r24, 0x05	; 5
    142a:	07 c0       	rjmp	.+14     	; 0x143a <parsingMsg+0x11e>
    142c:	86 e0       	ldi	r24, 0x06	; 6
    142e:	05 c0       	rjmp	.+10     	; 0x143a <parsingMsg+0x11e>
    1430:	8a e0       	ldi	r24, 0x0A	; 10
    1432:	03 c0       	rjmp	.+6      	; 0x143a <parsingMsg+0x11e>
    1434:	87 e0       	ldi	r24, 0x07	; 7
    1436:	01 c0       	rjmp	.+2      	; 0x143a <parsingMsg+0x11e>
    1438:	80 e0       	ldi	r24, 0x00	; 0
    143a:	df 91       	pop	r29
    143c:	cf 91       	pop	r28
    143e:	1f 91       	pop	r17
    1440:	0f 91       	pop	r16
    1442:	08 95       	ret

00001444 <rxDataProcess>:
    1444:	2f 92       	push	r2
    1446:	3f 92       	push	r3
    1448:	4f 92       	push	r4
    144a:	5f 92       	push	r5
    144c:	6f 92       	push	r6
    144e:	7f 92       	push	r7
    1450:	8f 92       	push	r8
    1452:	9f 92       	push	r9
    1454:	af 92       	push	r10
    1456:	bf 92       	push	r11
    1458:	cf 92       	push	r12
    145a:	df 92       	push	r13
    145c:	ef 92       	push	r14
    145e:	ff 92       	push	r15
    1460:	0f 93       	push	r16
    1462:	1f 93       	push	r17
    1464:	cf 93       	push	r28
    1466:	df 93       	push	r29
    1468:	cd b7       	in	r28, 0x3d	; 61
    146a:	de b7       	in	r29, 0x3e	; 62
    146c:	c2 50       	subi	r28, 0x02	; 2
    146e:	d2 40       	sbci	r29, 0x02	; 2
    1470:	0f b6       	in	r0, 0x3f	; 63
    1472:	f8 94       	cli
    1474:	de bf       	out	0x3e, r29	; 62
    1476:	0f be       	out	0x3f, r0	; 63
    1478:	cd bf       	out	0x3d, r28	; 61
    147a:	3c 01       	movw	r6, r24
    147c:	c6 2e       	mov	r12, r22
    147e:	80 91 eb 05 	lds	r24, 0x05EB
    1482:	88 23       	and	r24, r24
    1484:	09 f4       	brne	.+2      	; 0x1488 <rxDataProcess+0x44>
    1486:	0b c1       	rjmp	.+534    	; 0x169e <rxDataProcess+0x25a>
    1488:	20 91 eb 05 	lds	r18, 0x05EB
    148c:	80 91 e6 05 	lds	r24, 0x05E6
    1490:	90 91 e7 05 	lds	r25, 0x05E7
    1494:	82 0f       	add	r24, r18
    1496:	91 1d       	adc	r25, r1
    1498:	22 e0       	ldi	r18, 0x02	; 2
    149a:	80 30       	cpi	r24, 0x00	; 0
    149c:	92 07       	cpc	r25, r18
    149e:	44 f0       	brlt	.+16     	; 0x14b0 <rxDataProcess+0x6c>
    14a0:	10 92 e7 05 	sts	0x05E7, r1
    14a4:	10 92 e6 05 	sts	0x05E6, r1
    14a8:	10 92 e8 05 	sts	0x05E8, r1
    14ac:	dd 24       	eor	r13, r13
    14ae:	f8 c0       	rjmp	.+496    	; 0x16a0 <rxDataProcess+0x25c>
    14b0:	40 91 eb 05 	lds	r20, 0x05EB
    14b4:	8e e4       	ldi	r24, 0x4E	; 78
    14b6:	9c e0       	ldi	r25, 0x0C	; 12
    14b8:	6e e4       	ldi	r22, 0x4E	; 78
    14ba:	7a e0       	ldi	r23, 0x0A	; 10
    14bc:	50 e0       	ldi	r21, 0x00	; 0
    14be:	0e 94 6b 1a 	call	0x34d6	; 0x34d6 <memcpy>
    14c2:	20 91 eb 05 	lds	r18, 0x05EB
    14c6:	80 91 e6 05 	lds	r24, 0x05E6
    14ca:	90 91 e7 05 	lds	r25, 0x05E7
    14ce:	82 0f       	add	r24, r18
    14d0:	91 1d       	adc	r25, r1
    14d2:	90 93 e7 05 	sts	0x05E7, r25
    14d6:	80 93 e6 05 	sts	0x05E6, r24
    14da:	10 92 eb 05 	sts	0x05EB, r1
    14de:	dd 24       	eor	r13, r13
    14e0:	aa 24       	eor	r10, r10
    14e2:	bb 24       	eor	r11, r11
    14e4:	88 24       	eor	r8, r8
    14e6:	8a 94       	dec	r8
    14e8:	98 2c       	mov	r9, r8
    14ea:	0f 2e       	mov	r0, r31
    14ec:	fe e4       	ldi	r31, 0x4E	; 78
    14ee:	ef 2e       	mov	r14, r31
    14f0:	fc e0       	ldi	r31, 0x0C	; 12
    14f2:	ff 2e       	mov	r15, r31
    14f4:	f0 2d       	mov	r31, r0
    14f6:	cf 5f       	subi	r28, 0xFF	; 255
    14f8:	dd 4f       	sbci	r29, 0xFD	; 253
    14fa:	e8 82       	st	Y, r14
    14fc:	c1 50       	subi	r28, 0x01	; 1
    14fe:	d2 40       	sbci	r29, 0x02	; 2
    1500:	ce 5f       	subi	r28, 0xFE	; 254
    1502:	dd 4f       	sbci	r29, 0xFD	; 253
    1504:	f8 82       	st	Y, r15
    1506:	c2 50       	subi	r28, 0x02	; 2
    1508:	d2 40       	sbci	r29, 0x02	; 2
    150a:	0f 2e       	mov	r0, r31
    150c:	f0 e5       	ldi	r31, 0x50	; 80
    150e:	4f 2e       	mov	r4, r31
    1510:	fc e0       	ldi	r31, 0x0C	; 12
    1512:	5f 2e       	mov	r5, r31
    1514:	f0 2d       	mov	r31, r0
    1516:	0f 2e       	mov	r0, r31
    1518:	fe ef       	ldi	r31, 0xFE	; 254
    151a:	2f 2e       	mov	r2, r31
    151c:	ff ef       	ldi	r31, 0xFF	; 255
    151e:	3f 2e       	mov	r3, r31
    1520:	f0 2d       	mov	r31, r0
    1522:	24 0c       	add	r2, r4
    1524:	35 1c       	adc	r3, r5
    1526:	80 91 e6 05 	lds	r24, 0x05E6
    152a:	90 91 e7 05 	lds	r25, 0x05E7
    152e:	18 16       	cp	r1, r24
    1530:	19 06       	cpc	r1, r25
    1532:	0c f0       	brlt	.+2      	; 0x1536 <rxDataProcess+0xf2>
    1534:	9b c0       	rjmp	.+310    	; 0x166c <rxDataProcess+0x228>
    1536:	85 01       	movw	r16, r10
    1538:	b4 01       	movw	r22, r8
    153a:	8f ef       	ldi	r24, 0xFF	; 255
    153c:	6f 3f       	cpi	r22, 0xFF	; 255
    153e:	78 07       	cpc	r23, r24
    1540:	09 f4       	brne	.+2      	; 0x1544 <rxDataProcess+0x100>
    1542:	83 c0       	rjmp	.+262    	; 0x164a <rxDataProcess+0x206>
    1544:	f7 01       	movw	r30, r14
    1546:	e0 0f       	add	r30, r16
    1548:	f1 1f       	adc	r31, r17
    154a:	80 81       	ld	r24, Z
    154c:	8a 30       	cpi	r24, 0x0A	; 10
    154e:	09 f0       	breq	.+2      	; 0x1552 <rxDataProcess+0x10e>
    1550:	83 c0       	rjmp	.+262    	; 0x1658 <rxDataProcess+0x214>
    1552:	cb 01       	movw	r24, r22
    1554:	01 96       	adiw	r24, 0x01	; 1
    1556:	80 17       	cp	r24, r16
    1558:	91 07       	cpc	r25, r17
    155a:	09 f0       	breq	.+2      	; 0x155e <rxDataProcess+0x11a>
    155c:	7d c0       	rjmp	.+250    	; 0x1658 <rxDataProcess+0x214>
    155e:	81 30       	cpi	r24, 0x01	; 1
    1560:	91 05       	cpc	r25, r1
    1562:	19 f5       	brne	.+70     	; 0x15aa <rxDataProcess+0x166>
    1564:	40 91 e6 05 	lds	r20, 0x05E6
    1568:	50 91 e7 05 	lds	r21, 0x05E7
    156c:	42 50       	subi	r20, 0x02	; 2
    156e:	50 40       	sbci	r21, 0x00	; 0
    1570:	ce 01       	movw	r24, r28
    1572:	01 96       	adiw	r24, 0x01	; 1
    1574:	64 2d       	mov	r22, r4
    1576:	75 2d       	mov	r23, r5
    1578:	0e 94 6b 1a 	call	0x34d6	; 0x34d6 <memcpy>
    157c:	40 91 e6 05 	lds	r20, 0x05E6
    1580:	50 91 e7 05 	lds	r21, 0x05E7
    1584:	42 50       	subi	r20, 0x02	; 2
    1586:	50 40       	sbci	r21, 0x00	; 0
    1588:	82 2d       	mov	r24, r2
    158a:	93 2d       	mov	r25, r3
    158c:	be 01       	movw	r22, r28
    158e:	6f 5f       	subi	r22, 0xFF	; 255
    1590:	7f 4f       	sbci	r23, 0xFF	; 255
    1592:	0e 94 6b 1a 	call	0x34d6	; 0x34d6 <memcpy>
    1596:	80 91 e6 05 	lds	r24, 0x05E6
    159a:	90 91 e7 05 	lds	r25, 0x05E7
    159e:	02 97       	sbiw	r24, 0x02	; 2
    15a0:	90 93 e7 05 	sts	0x05E7, r25
    15a4:	80 93 e6 05 	sts	0x05E6, r24
    15a8:	be cf       	rjmp	.-132    	; 0x1526 <rxDataProcess+0xe2>
    15aa:	cf 5f       	subi	r28, 0xFF	; 255
    15ac:	dd 4f       	sbci	r29, 0xFD	; 253
    15ae:	88 81       	ld	r24, Y
    15b0:	c1 50       	subi	r28, 0x01	; 1
    15b2:	d2 40       	sbci	r29, 0x02	; 2
    15b4:	ce 5f       	subi	r28, 0xFE	; 254
    15b6:	dd 4f       	sbci	r29, 0xFD	; 253
    15b8:	98 81       	ld	r25, Y
    15ba:	c2 50       	subi	r28, 0x02	; 2
    15bc:	d2 40       	sbci	r29, 0x02	; 2
    15be:	0e 94 8e 09 	call	0x131c	; 0x131c <parsingMsg>
    15c2:	dc 14       	cp	r13, r12
    15c4:	28 f4       	brcc	.+10     	; 0x15d0 <rxDataProcess+0x18c>
    15c6:	f3 01       	movw	r30, r6
    15c8:	ed 0d       	add	r30, r13
    15ca:	f1 1d       	adc	r31, r1
    15cc:	80 83       	st	Z, r24
    15ce:	d3 94       	inc	r13
    15d0:	20 91 e6 05 	lds	r18, 0x05E6
    15d4:	30 91 e7 05 	lds	r19, 0x05E7
    15d8:	c8 01       	movw	r24, r16
    15da:	01 96       	adiw	r24, 0x01	; 1
    15dc:	82 17       	cp	r24, r18
    15de:	93 07       	cpc	r25, r19
    15e0:	19 f4       	brne	.+6      	; 0x15e8 <rxDataProcess+0x1a4>
    15e2:	10 92 e8 05 	sts	0x05E8, r1
    15e6:	5c c0       	rjmp	.+184    	; 0x16a0 <rxDataProcess+0x25c>
    15e8:	b8 01       	movw	r22, r16
    15ea:	61 5b       	subi	r22, 0xB1	; 177
    15ec:	73 4f       	sbci	r23, 0xF3	; 243
    15ee:	40 91 e6 05 	lds	r20, 0x05E6
    15f2:	50 91 e7 05 	lds	r21, 0x05E7
    15f6:	40 1b       	sub	r20, r16
    15f8:	51 0b       	sbc	r21, r17
    15fa:	41 50       	subi	r20, 0x01	; 1
    15fc:	50 40       	sbci	r21, 0x00	; 0
    15fe:	ce 01       	movw	r24, r28
    1600:	01 96       	adiw	r24, 0x01	; 1
    1602:	0e 94 6b 1a 	call	0x34d6	; 0x34d6 <memcpy>
    1606:	40 91 e6 05 	lds	r20, 0x05E6
    160a:	50 91 e7 05 	lds	r21, 0x05E7
    160e:	40 1b       	sub	r20, r16
    1610:	51 0b       	sbc	r21, r17
    1612:	41 50       	subi	r20, 0x01	; 1
    1614:	50 40       	sbci	r21, 0x00	; 0
    1616:	8e 2d       	mov	r24, r14
    1618:	9f 2d       	mov	r25, r15
    161a:	be 01       	movw	r22, r28
    161c:	6f 5f       	subi	r22, 0xFF	; 255
    161e:	7f 4f       	sbci	r23, 0xFF	; 255
    1620:	0e 94 6b 1a 	call	0x34d6	; 0x34d6 <memcpy>
    1624:	20 91 e6 05 	lds	r18, 0x05E6
    1628:	30 91 e7 05 	lds	r19, 0x05E7
    162c:	c8 01       	movw	r24, r16
    162e:	80 95       	com	r24
    1630:	90 95       	com	r25
    1632:	82 0f       	add	r24, r18
    1634:	93 1f       	adc	r25, r19
    1636:	90 93 e7 05 	sts	0x05E7, r25
    163a:	80 93 e6 05 	sts	0x05E6, r24
    163e:	2f ef       	ldi	r18, 0xFF	; 255
    1640:	0f 3f       	cpi	r16, 0xFF	; 255
    1642:	12 07       	cpc	r17, r18
    1644:	09 f0       	breq	.+2      	; 0x1648 <rxDataProcess+0x204>
    1646:	6f cf       	rjmp	.-290    	; 0x1526 <rxDataProcess+0xe2>
    1648:	11 c0       	rjmp	.+34     	; 0x166c <rxDataProcess+0x228>
    164a:	f7 01       	movw	r30, r14
    164c:	e0 0f       	add	r30, r16
    164e:	f1 1f       	adc	r31, r17
    1650:	80 81       	ld	r24, Z
    1652:	8d 30       	cpi	r24, 0x0D	; 13
    1654:	09 f4       	brne	.+2      	; 0x1658 <rxDataProcess+0x214>
    1656:	b8 01       	movw	r22, r16
    1658:	0f 5f       	subi	r16, 0xFF	; 255
    165a:	1f 4f       	sbci	r17, 0xFF	; 255
    165c:	80 91 e6 05 	lds	r24, 0x05E6
    1660:	90 91 e7 05 	lds	r25, 0x05E7
    1664:	08 17       	cp	r16, r24
    1666:	19 07       	cpc	r17, r25
    1668:	0c f4       	brge	.+2      	; 0x166c <rxDataProcess+0x228>
    166a:	67 cf       	rjmp	.-306    	; 0x153a <rxDataProcess+0xf6>
    166c:	81 e0       	ldi	r24, 0x01	; 1
    166e:	80 93 e8 05 	sts	0x05E8, r24
    1672:	60 91 e6 05 	lds	r22, 0x05E6
    1676:	70 91 e7 05 	lds	r23, 0x05E7
    167a:	8e e4       	ldi	r24, 0x4E	; 78
    167c:	9c e0       	ldi	r25, 0x0C	; 12
    167e:	0e 94 8e 09 	call	0x131c	; 0x131c <parsingMsg>
    1682:	8a 30       	cpi	r24, 0x0A	; 10
    1684:	31 f0       	breq	.+12     	; 0x1692 <rxDataProcess+0x24e>
    1686:	84 30       	cpi	r24, 0x04	; 4
    1688:	21 f0       	breq	.+8      	; 0x1692 <rxDataProcess+0x24e>
    168a:	10 92 e7 05 	sts	0x05E7, r1
    168e:	10 92 e6 05 	sts	0x05E6, r1
    1692:	f3 01       	movw	r30, r6
    1694:	ed 0d       	add	r30, r13
    1696:	f1 1d       	adc	r31, r1
    1698:	80 83       	st	Z, r24
    169a:	d3 94       	inc	r13
    169c:	01 c0       	rjmp	.+2      	; 0x16a0 <rxDataProcess+0x25c>
    169e:	dd 24       	eor	r13, r13
    16a0:	8d 2d       	mov	r24, r13
    16a2:	ce 5f       	subi	r28, 0xFE	; 254
    16a4:	dd 4f       	sbci	r29, 0xFD	; 253
    16a6:	0f b6       	in	r0, 0x3f	; 63
    16a8:	f8 94       	cli
    16aa:	de bf       	out	0x3e, r29	; 62
    16ac:	0f be       	out	0x3f, r0	; 63
    16ae:	cd bf       	out	0x3d, r28	; 61
    16b0:	df 91       	pop	r29
    16b2:	cf 91       	pop	r28
    16b4:	1f 91       	pop	r17
    16b6:	0f 91       	pop	r16
    16b8:	ff 90       	pop	r15
    16ba:	ef 90       	pop	r14
    16bc:	df 90       	pop	r13
    16be:	cf 90       	pop	r12
    16c0:	bf 90       	pop	r11
    16c2:	af 90       	pop	r10
    16c4:	9f 90       	pop	r9
    16c6:	8f 90       	pop	r8
    16c8:	7f 90       	pop	r7
    16ca:	6f 90       	pop	r6
    16cc:	5f 90       	pop	r5
    16ce:	4f 90       	pop	r4
    16d0:	3f 90       	pop	r3
    16d2:	2f 90       	pop	r2
    16d4:	08 95       	ret

000016d6 <wifiMain>:
    16d6:	cf 93       	push	r28
    16d8:	df 93       	push	r29
    16da:	00 d0       	rcall	.+0      	; 0x16dc <wifiMain+0x6>
    16dc:	0f 92       	push	r0
    16de:	cd b7       	in	r28, 0x3d	; 61
    16e0:	de b7       	in	r29, 0x3e	; 62
    16e2:	80 91 e9 05 	lds	r24, 0x05E9
    16e6:	90 91 ea 05 	lds	r25, 0x05EA
    16ea:	00 97       	sbiw	r24, 0x00	; 0
    16ec:	99 f0       	breq	.+38     	; 0x1714 <wifiMain+0x3e>
    16ee:	e0 91 4e 0e 	lds	r30, 0x0E4E
    16f2:	f0 91 4f 0e 	lds	r31, 0x0E4F
    16f6:	30 97       	sbiw	r30, 0x00	; 0
    16f8:	49 f0       	breq	.+18     	; 0x170c <wifiMain+0x36>
    16fa:	40 91 e9 05 	lds	r20, 0x05E9
    16fe:	50 91 ea 05 	lds	r21, 0x05EA
    1702:	81 e0       	ldi	r24, 0x01	; 1
    1704:	90 e0       	ldi	r25, 0x00	; 0
    1706:	6e e4       	ldi	r22, 0x4E	; 78
    1708:	78 e0       	ldi	r23, 0x08	; 8
    170a:	19 95       	eicall
    170c:	10 92 ea 05 	sts	0x05EA, r1
    1710:	10 92 e9 05 	sts	0x05E9, r1
    1714:	80 91 eb 05 	lds	r24, 0x05EB
    1718:	88 23       	and	r24, r24
    171a:	f1 f0       	breq	.+60     	; 0x1758 <wifiMain+0x82>
    171c:	ce 01       	movw	r24, r28
    171e:	01 96       	adiw	r24, 0x01	; 1
    1720:	64 e0       	ldi	r22, 0x04	; 4
    1722:	0e 94 22 0a 	call	0x1444	; 0x1444 <rxDataProcess>
    1726:	80 91 e9 05 	lds	r24, 0x05E9
    172a:	90 91 ea 05 	lds	r25, 0x05EA
    172e:	00 97       	sbiw	r24, 0x00	; 0
    1730:	99 f0       	breq	.+38     	; 0x1758 <wifiMain+0x82>
    1732:	e0 91 4e 0e 	lds	r30, 0x0E4E
    1736:	f0 91 4f 0e 	lds	r31, 0x0E4F
    173a:	30 97       	sbiw	r30, 0x00	; 0
    173c:	49 f0       	breq	.+18     	; 0x1750 <wifiMain+0x7a>
    173e:	40 91 e9 05 	lds	r20, 0x05E9
    1742:	50 91 ea 05 	lds	r21, 0x05EA
    1746:	81 e0       	ldi	r24, 0x01	; 1
    1748:	90 e0       	ldi	r25, 0x00	; 0
    174a:	6e e4       	ldi	r22, 0x4E	; 78
    174c:	78 e0       	ldi	r23, 0x08	; 8
    174e:	19 95       	eicall
    1750:	10 92 ea 05 	sts	0x05EA, r1
    1754:	10 92 e9 05 	sts	0x05E9, r1
    1758:	0f 90       	pop	r0
    175a:	0f 90       	pop	r0
    175c:	0f 90       	pop	r0
    175e:	0f 90       	pop	r0
    1760:	df 91       	pop	r29
    1762:	cf 91       	pop	r28
    1764:	08 95       	ret

00001766 <WaitOKWithPrint>:
    1766:	2f 92       	push	r2
    1768:	3f 92       	push	r3
    176a:	4f 92       	push	r4
    176c:	5f 92       	push	r5
    176e:	6f 92       	push	r6
    1770:	7f 92       	push	r7
    1772:	8f 92       	push	r8
    1774:	9f 92       	push	r9
    1776:	af 92       	push	r10
    1778:	bf 92       	push	r11
    177a:	cf 92       	push	r12
    177c:	df 92       	push	r13
    177e:	ef 92       	push	r14
    1780:	ff 92       	push	r15
    1782:	0f 93       	push	r16
    1784:	1f 93       	push	r17
    1786:	cf 93       	push	r28
    1788:	df 93       	push	r29
    178a:	cd b7       	in	r28, 0x3d	; 61
    178c:	de b7       	in	r29, 0x3e	; 62
    178e:	c0 50       	subi	r28, 0x00	; 0
    1790:	d2 40       	sbci	r29, 0x02	; 2
    1792:	0f b6       	in	r0, 0x3f	; 63
    1794:	f8 94       	cli
    1796:	de bf       	out	0x3e, r29	; 62
    1798:	0f be       	out	0x3f, r0	; 63
    179a:	cd bf       	out	0x3d, r28	; 61
    179c:	ee 24       	eor	r14, r14
    179e:	ff 24       	eor	r15, r15
    17a0:	0f 2e       	mov	r0, r31
    17a2:	fe e4       	ldi	r31, 0x4E	; 78
    17a4:	af 2e       	mov	r10, r31
    17a6:	fa e0       	ldi	r31, 0x0A	; 10
    17a8:	bf 2e       	mov	r11, r31
    17aa:	f0 2d       	mov	r31, r0
    17ac:	0f 2e       	mov	r0, r31
    17ae:	f0 ea       	ldi	r31, 0xA0	; 160
    17b0:	2f 2e       	mov	r2, r31
    17b2:	f4 e0       	ldi	r31, 0x04	; 4
    17b4:	3f 2e       	mov	r3, r31
    17b6:	f0 2d       	mov	r31, r0
    17b8:	0f 2e       	mov	r0, r31
    17ba:	ff e8       	ldi	r31, 0x8F	; 143
    17bc:	6f 2e       	mov	r6, r31
    17be:	f4 e0       	ldi	r31, 0x04	; 4
    17c0:	7f 2e       	mov	r7, r31
    17c2:	f0 2d       	mov	r31, r0
    17c4:	0f 2e       	mov	r0, r31
    17c6:	fa e9       	ldi	r31, 0x9A	; 154
    17c8:	4f 2e       	mov	r4, r31
    17ca:	f4 e0       	ldi	r31, 0x04	; 4
    17cc:	5f 2e       	mov	r5, r31
    17ce:	f0 2d       	mov	r31, r0
    17d0:	80 91 eb 05 	lds	r24, 0x05EB
    17d4:	88 23       	and	r24, r24
    17d6:	e1 f3       	breq	.-8      	; 0x17d0 <WaitOKWithPrint+0x6a>
    17d8:	80 91 eb 05 	lds	r24, 0x05EB
    17dc:	88 23       	and	r24, r24
    17de:	09 f4       	brne	.+2      	; 0x17e2 <WaitOKWithPrint+0x7c>
    17e0:	a9 c0       	rjmp	.+338    	; 0x1934 <WaitOKWithPrint+0x1ce>
    17e2:	cc 24       	eor	r12, r12
    17e4:	dd 24       	eor	r13, r13
    17e6:	88 24       	eor	r8, r8
    17e8:	99 24       	eor	r9, r9
    17ea:	85 01       	movw	r16, r10
    17ec:	0c 0d       	add	r16, r12
    17ee:	1d 1d       	adc	r17, r13
    17f0:	f8 01       	movw	r30, r16
    17f2:	80 81       	ld	r24, Z
    17f4:	e1 e0       	ldi	r30, 0x01	; 1
    17f6:	f0 e0       	ldi	r31, 0x00	; 0
    17f8:	ec 0f       	add	r30, r28
    17fa:	fd 1f       	adc	r31, r29
    17fc:	ee 0d       	add	r30, r14
    17fe:	ff 1d       	adc	r31, r15
    1800:	80 83       	st	Z, r24
    1802:	08 94       	sec
    1804:	e1 1c       	adc	r14, r1
    1806:	f1 1c       	adc	r15, r1
    1808:	f8 01       	movw	r30, r16
    180a:	80 81       	ld	r24, Z
    180c:	0e 94 9f 07 	call	0xf3e	; 0xf3e <putCh2>
    1810:	f8 01       	movw	r30, r16
    1812:	80 81       	ld	r24, Z
    1814:	8a 30       	cpi	r24, 0x0A	; 10
    1816:	09 f0       	breq	.+2      	; 0x181a <WaitOKWithPrint+0xb4>
    1818:	83 c0       	rjmp	.+262    	; 0x1920 <WaitOKWithPrint+0x1ba>
    181a:	f4 e0       	ldi	r31, 0x04	; 4
    181c:	ef 16       	cp	r14, r31
    181e:	f1 04       	cpc	r15, r1
    1820:	0c f4       	brge	.+2      	; 0x1824 <WaitOKWithPrint+0xbe>
    1822:	79 c0       	rjmp	.+242    	; 0x1916 <WaitOKWithPrint+0x1b0>
    1824:	ce 01       	movw	r24, r28
    1826:	01 96       	adiw	r24, 0x01	; 1
    1828:	b3 01       	movw	r22, r6
    182a:	42 e0       	ldi	r20, 0x02	; 2
    182c:	50 e0       	ldi	r21, 0x00	; 0
    182e:	0e 94 74 1a 	call	0x34e8	; 0x34e8 <strncmp>
    1832:	28 2f       	mov	r18, r24
    1834:	39 2f       	mov	r19, r25
    1836:	21 15       	cp	r18, r1
    1838:	31 05       	cpc	r19, r1
    183a:	29 f4       	brne	.+10     	; 0x1846 <WaitOKWithPrint+0xe0>
    183c:	10 92 eb 05 	sts	0x05EB, r1
    1840:	80 e0       	ldi	r24, 0x00	; 0
    1842:	90 e0       	ldi	r25, 0x00	; 0
    1844:	7a c0       	rjmp	.+244    	; 0x193a <WaitOKWithPrint+0x1d4>
    1846:	ce 01       	movw	r24, r28
    1848:	01 96       	adiw	r24, 0x01	; 1
    184a:	b2 01       	movw	r22, r4
    184c:	44 e0       	ldi	r20, 0x04	; 4
    184e:	50 e0       	ldi	r21, 0x00	; 0
    1850:	0e 94 74 1a 	call	0x34e8	; 0x34e8 <strncmp>
    1854:	28 2f       	mov	r18, r24
    1856:	39 2f       	mov	r19, r25
    1858:	21 15       	cp	r18, r1
    185a:	31 05       	cpc	r19, r1
    185c:	29 f4       	brne	.+10     	; 0x1868 <WaitOKWithPrint+0x102>
    185e:	10 92 eb 05 	sts	0x05EB, r1
    1862:	8f ef       	ldi	r24, 0xFF	; 255
    1864:	9f ef       	ldi	r25, 0xFF	; 255
    1866:	69 c0       	rjmp	.+210    	; 0x193a <WaitOKWithPrint+0x1d4>
    1868:	87 e0       	ldi	r24, 0x07	; 7
    186a:	e8 16       	cp	r14, r24
    186c:	f1 04       	cpc	r15, r1
    186e:	8c f0       	brlt	.+34     	; 0x1892 <WaitOKWithPrint+0x12c>
    1870:	ce 01       	movw	r24, r28
    1872:	01 96       	adiw	r24, 0x01	; 1
    1874:	b1 01       	movw	r22, r2
    1876:	45 e0       	ldi	r20, 0x05	; 5
    1878:	50 e0       	ldi	r21, 0x00	; 0
    187a:	0e 94 74 1a 	call	0x34e8	; 0x34e8 <strncmp>
    187e:	28 2f       	mov	r18, r24
    1880:	39 2f       	mov	r19, r25
    1882:	21 15       	cp	r18, r1
    1884:	31 05       	cpc	r19, r1
    1886:	29 f4       	brne	.+10     	; 0x1892 <WaitOKWithPrint+0x12c>
    1888:	10 92 eb 05 	sts	0x05EB, r1
    188c:	8f ef       	ldi	r24, 0xFF	; 255
    188e:	9f ef       	ldi	r25, 0xFF	; 255
    1890:	54 c0       	rjmp	.+168    	; 0x193a <WaitOKWithPrint+0x1d4>
    1892:	e6 e0       	ldi	r30, 0x06	; 6
    1894:	ee 16       	cp	r14, r30
    1896:	f1 04       	cpc	r15, r1
    1898:	94 f0       	brlt	.+36     	; 0x18be <WaitOKWithPrint+0x158>
    189a:	ce 01       	movw	r24, r28
    189c:	01 96       	adiw	r24, 0x01	; 1
    189e:	66 ea       	ldi	r22, 0xA6	; 166
    18a0:	74 e0       	ldi	r23, 0x04	; 4
    18a2:	45 e0       	ldi	r20, 0x05	; 5
    18a4:	50 e0       	ldi	r21, 0x00	; 0
    18a6:	0e 94 74 1a 	call	0x34e8	; 0x34e8 <strncmp>
    18aa:	28 2f       	mov	r18, r24
    18ac:	39 2f       	mov	r19, r25
    18ae:	21 15       	cp	r18, r1
    18b0:	31 05       	cpc	r19, r1
    18b2:	29 f4       	brne	.+10     	; 0x18be <WaitOKWithPrint+0x158>
    18b4:	10 92 eb 05 	sts	0x05EB, r1
    18b8:	8f ef       	ldi	r24, 0xFF	; 255
    18ba:	9f ef       	ldi	r25, 0xFF	; 255
    18bc:	3e c0       	rjmp	.+124    	; 0x193a <WaitOKWithPrint+0x1d4>
    18be:	f7 e0       	ldi	r31, 0x07	; 7
    18c0:	ef 16       	cp	r14, r31
    18c2:	f1 04       	cpc	r15, r1
    18c4:	94 f0       	brlt	.+36     	; 0x18ea <WaitOKWithPrint+0x184>
    18c6:	ce 01       	movw	r24, r28
    18c8:	01 96       	adiw	r24, 0x01	; 1
    18ca:	6b eb       	ldi	r22, 0xBB	; 187
    18cc:	74 e0       	ldi	r23, 0x04	; 4
    18ce:	45 e0       	ldi	r20, 0x05	; 5
    18d0:	50 e0       	ldi	r21, 0x00	; 0
    18d2:	0e 94 74 1a 	call	0x34e8	; 0x34e8 <strncmp>
    18d6:	28 2f       	mov	r18, r24
    18d8:	39 2f       	mov	r19, r25
    18da:	21 15       	cp	r18, r1
    18dc:	31 05       	cpc	r19, r1
    18de:	29 f4       	brne	.+10     	; 0x18ea <WaitOKWithPrint+0x184>
    18e0:	10 92 eb 05 	sts	0x05EB, r1
    18e4:	80 e0       	ldi	r24, 0x00	; 0
    18e6:	90 e0       	ldi	r25, 0x00	; 0
    18e8:	28 c0       	rjmp	.+80     	; 0x193a <WaitOKWithPrint+0x1d4>
    18ea:	89 e0       	ldi	r24, 0x09	; 9
    18ec:	e8 16       	cp	r14, r24
    18ee:	f1 04       	cpc	r15, r1
    18f0:	a4 f0       	brlt	.+40     	; 0x191a <WaitOKWithPrint+0x1b4>
    18f2:	ce 01       	movw	r24, r28
    18f4:	01 96       	adiw	r24, 0x01	; 1
    18f6:	62 e9       	ldi	r22, 0x92	; 146
    18f8:	74 e0       	ldi	r23, 0x04	; 4
    18fa:	47 e0       	ldi	r20, 0x07	; 7
    18fc:	50 e0       	ldi	r21, 0x00	; 0
    18fe:	0e 94 74 1a 	call	0x34e8	; 0x34e8 <strncmp>
    1902:	28 2f       	mov	r18, r24
    1904:	39 2f       	mov	r19, r25
    1906:	21 15       	cp	r18, r1
    1908:	31 05       	cpc	r19, r1
    190a:	49 f4       	brne	.+18     	; 0x191e <WaitOKWithPrint+0x1b8>
    190c:	10 92 eb 05 	sts	0x05EB, r1
    1910:	80 e0       	ldi	r24, 0x00	; 0
    1912:	90 e0       	ldi	r25, 0x00	; 0
    1914:	12 c0       	rjmp	.+36     	; 0x193a <WaitOKWithPrint+0x1d4>
    1916:	74 01       	movw	r14, r8
    1918:	03 c0       	rjmp	.+6      	; 0x1920 <WaitOKWithPrint+0x1ba>
    191a:	74 01       	movw	r14, r8
    191c:	01 c0       	rjmp	.+2      	; 0x1920 <WaitOKWithPrint+0x1ba>
    191e:	74 01       	movw	r14, r8
    1920:	08 94       	sec
    1922:	c1 1c       	adc	r12, r1
    1924:	d1 1c       	adc	r13, r1
    1926:	80 91 eb 05 	lds	r24, 0x05EB
    192a:	90 e0       	ldi	r25, 0x00	; 0
    192c:	c8 16       	cp	r12, r24
    192e:	d9 06       	cpc	r13, r25
    1930:	0c f4       	brge	.+2      	; 0x1934 <WaitOKWithPrint+0x1ce>
    1932:	5b cf       	rjmp	.-330    	; 0x17ea <WaitOKWithPrint+0x84>
    1934:	10 92 eb 05 	sts	0x05EB, r1
    1938:	4b cf       	rjmp	.-362    	; 0x17d0 <WaitOKWithPrint+0x6a>
    193a:	c0 50       	subi	r28, 0x00	; 0
    193c:	de 4f       	sbci	r29, 0xFE	; 254
    193e:	0f b6       	in	r0, 0x3f	; 63
    1940:	f8 94       	cli
    1942:	de bf       	out	0x3e, r29	; 62
    1944:	0f be       	out	0x3f, r0	; 63
    1946:	cd bf       	out	0x3d, r28	; 61
    1948:	df 91       	pop	r29
    194a:	cf 91       	pop	r28
    194c:	1f 91       	pop	r17
    194e:	0f 91       	pop	r16
    1950:	ff 90       	pop	r15
    1952:	ef 90       	pop	r14
    1954:	df 90       	pop	r13
    1956:	cf 90       	pop	r12
    1958:	bf 90       	pop	r11
    195a:	af 90       	pop	r10
    195c:	9f 90       	pop	r9
    195e:	8f 90       	pop	r8
    1960:	7f 90       	pop	r7
    1962:	6f 90       	pop	r6
    1964:	5f 90       	pop	r5
    1966:	4f 90       	pop	r4
    1968:	3f 90       	pop	r3
    196a:	2f 90       	pop	r2
    196c:	08 95       	ret

0000196e <WaitSendReadyWithoutPrint>:
    196e:	cf 92       	push	r12
    1970:	df 92       	push	r13
    1972:	ff 92       	push	r15
    1974:	0f 93       	push	r16
    1976:	1f 93       	push	r17
    1978:	cf 93       	push	r28
    197a:	df 93       	push	r29
    197c:	00 d0       	rcall	.+0      	; 0x197e <WaitSendReadyWithoutPrint+0x10>
    197e:	0f 92       	push	r0
    1980:	cd b7       	in	r28, 0x3d	; 61
    1982:	de b7       	in	r29, 0x3e	; 62
    1984:	0f 2e       	mov	r0, r31
    1986:	f5 e6       	ldi	r31, 0x65	; 101
    1988:	cf 2e       	mov	r12, r31
    198a:	dd 24       	eor	r13, r13
    198c:	f0 2d       	mov	r31, r0
    198e:	00 e0       	ldi	r16, 0x00	; 0
    1990:	ff 24       	eor	r15, r15
    1992:	11 e0       	ldi	r17, 0x01	; 1
    1994:	ce 01       	movw	r24, r28
    1996:	01 96       	adiw	r24, 0x01	; 1
    1998:	64 e0       	ldi	r22, 0x04	; 4
    199a:	0e 94 22 0a 	call	0x1444	; 0x1444 <rxDataProcess>
    199e:	88 23       	and	r24, r24
    19a0:	a1 f0       	breq	.+40     	; 0x19ca <WaitSendReadyWithoutPrint+0x5c>
    19a2:	fe 01       	movw	r30, r28
    19a4:	31 96       	adiw	r30, 0x01	; 1
    19a6:	9f 01       	movw	r18, r30
    19a8:	28 0f       	add	r18, r24
    19aa:	31 1d       	adc	r19, r1
    19ac:	c9 01       	movw	r24, r18
    19ae:	21 91       	ld	r18, Z+
    19b0:	28 30       	cpi	r18, 0x08	; 8
    19b2:	29 f0       	breq	.+10     	; 0x19be <WaitSendReadyWithoutPrint+0x50>
    19b4:	22 30       	cpi	r18, 0x02	; 2
    19b6:	29 f0       	breq	.+10     	; 0x19c2 <WaitSendReadyWithoutPrint+0x54>
    19b8:	25 30       	cpi	r18, 0x05	; 5
    19ba:	21 f4       	brne	.+8      	; 0x19c4 <WaitSendReadyWithoutPrint+0x56>
    19bc:	26 c0       	rjmp	.+76     	; 0x1a0a <WaitSendReadyWithoutPrint+0x9c>
    19be:	01 2f       	mov	r16, r17
    19c0:	01 c0       	rjmp	.+2      	; 0x19c4 <WaitSendReadyWithoutPrint+0x56>
    19c2:	f1 2e       	mov	r15, r17
    19c4:	e8 17       	cp	r30, r24
    19c6:	f9 07       	cpc	r31, r25
    19c8:	91 f7       	brne	.-28     	; 0x19ae <WaitSendReadyWithoutPrint+0x40>
    19ca:	00 23       	and	r16, r16
    19cc:	11 f0       	breq	.+4      	; 0x19d2 <WaitSendReadyWithoutPrint+0x64>
    19ce:	ff 20       	and	r15, r15
    19d0:	f9 f4       	brne	.+62     	; 0x1a10 <WaitSendReadyWithoutPrint+0xa2>
    19d2:	08 94       	sec
    19d4:	c1 08       	sbc	r12, r1
    19d6:	d1 08       	sbc	r13, r1
    19d8:	c1 14       	cp	r12, r1
    19da:	d1 04       	cpc	r13, r1
    19dc:	79 f4       	brne	.+30     	; 0x19fc <WaitSendReadyWithoutPrint+0x8e>
    19de:	0f 92       	push	r0
    19e0:	0f 92       	push	r0
    19e2:	82 ec       	ldi	r24, 0xC2	; 194
    19e4:	94 e0       	ldi	r25, 0x04	; 4
    19e6:	ed b7       	in	r30, 0x3d	; 61
    19e8:	fe b7       	in	r31, 0x3e	; 62
    19ea:	92 83       	std	Z+2, r25	; 0x02
    19ec:	81 83       	std	Z+1, r24	; 0x01
    19ee:	0e 94 e8 07 	call	0xfd0	; 0xfd0 <debugprint>
    19f2:	0f 90       	pop	r0
    19f4:	0f 90       	pop	r0
    19f6:	8f ef       	ldi	r24, 0xFF	; 255
    19f8:	9f ef       	ldi	r25, 0xFF	; 255
    19fa:	0c c0       	rjmp	.+24     	; 0x1a14 <WaitSendReadyWithoutPrint+0xa6>
    19fc:	8f ef       	ldi	r24, 0xFF	; 255
    19fe:	9f e8       	ldi	r25, 0x8F	; 143
    1a00:	01 97       	sbiw	r24, 0x01	; 1
    1a02:	f1 f7       	brne	.-4      	; 0x1a00 <WaitSendReadyWithoutPrint+0x92>
    1a04:	00 c0       	rjmp	.+0      	; 0x1a06 <WaitSendReadyWithoutPrint+0x98>
    1a06:	00 00       	nop
    1a08:	c5 cf       	rjmp	.-118    	; 0x1994 <WaitSendReadyWithoutPrint+0x26>
    1a0a:	8f ef       	ldi	r24, 0xFF	; 255
    1a0c:	9f ef       	ldi	r25, 0xFF	; 255
    1a0e:	02 c0       	rjmp	.+4      	; 0x1a14 <WaitSendReadyWithoutPrint+0xa6>
    1a10:	80 e0       	ldi	r24, 0x00	; 0
    1a12:	90 e0       	ldi	r25, 0x00	; 0
    1a14:	0f 90       	pop	r0
    1a16:	0f 90       	pop	r0
    1a18:	0f 90       	pop	r0
    1a1a:	0f 90       	pop	r0
    1a1c:	df 91       	pop	r29
    1a1e:	cf 91       	pop	r28
    1a20:	1f 91       	pop	r17
    1a22:	0f 91       	pop	r16
    1a24:	ff 90       	pop	r15
    1a26:	df 90       	pop	r13
    1a28:	cf 90       	pop	r12
    1a2a:	08 95       	ret

00001a2c <WaitSendOKWithoutPrint>:
    1a2c:	0f 93       	push	r16
    1a2e:	1f 93       	push	r17
    1a30:	cf 93       	push	r28
    1a32:	df 93       	push	r29
    1a34:	00 d0       	rcall	.+0      	; 0x1a36 <WaitSendOKWithoutPrint+0xa>
    1a36:	0f 92       	push	r0
    1a38:	cd b7       	in	r28, 0x3d	; 61
    1a3a:	de b7       	in	r29, 0x3e	; 62
    1a3c:	05 e6       	ldi	r16, 0x65	; 101
    1a3e:	10 e0       	ldi	r17, 0x00	; 0
    1a40:	ce 01       	movw	r24, r28
    1a42:	01 96       	adiw	r24, 0x01	; 1
    1a44:	64 e0       	ldi	r22, 0x04	; 4
    1a46:	0e 94 22 0a 	call	0x1444	; 0x1444 <rxDataProcess>
    1a4a:	88 23       	and	r24, r24
    1a4c:	b9 f0       	breq	.+46     	; 0x1a7c <WaitSendOKWithoutPrint+0x50>
    1a4e:	99 81       	ldd	r25, Y+1	; 0x01
    1a50:	91 30       	cpi	r25, 0x01	; 1
    1a52:	69 f1       	breq	.+90     	; 0x1aae <WaitSendOKWithoutPrint+0x82>
    1a54:	95 30       	cpi	r25, 0x05	; 5
    1a56:	71 f1       	breq	.+92     	; 0x1ab4 <WaitSendOKWithoutPrint+0x88>
    1a58:	fe 01       	movw	r30, r28
    1a5a:	32 96       	adiw	r30, 0x02	; 2
    1a5c:	21 e0       	ldi	r18, 0x01	; 1
    1a5e:	30 e0       	ldi	r19, 0x00	; 0
    1a60:	2c 0f       	add	r18, r28
    1a62:	3d 1f       	adc	r19, r29
    1a64:	28 0f       	add	r18, r24
    1a66:	31 1d       	adc	r19, r1
    1a68:	c9 01       	movw	r24, r18
    1a6a:	05 c0       	rjmp	.+10     	; 0x1a76 <WaitSendOKWithoutPrint+0x4a>
    1a6c:	21 91       	ld	r18, Z+
    1a6e:	21 30       	cpi	r18, 0x01	; 1
    1a70:	21 f1       	breq	.+72     	; 0x1aba <WaitSendOKWithoutPrint+0x8e>
    1a72:	25 30       	cpi	r18, 0x05	; 5
    1a74:	29 f1       	breq	.+74     	; 0x1ac0 <WaitSendOKWithoutPrint+0x94>
    1a76:	e8 17       	cp	r30, r24
    1a78:	f9 07       	cpc	r31, r25
    1a7a:	c1 f7       	brne	.-16     	; 0x1a6c <WaitSendOKWithoutPrint+0x40>
    1a7c:	01 50       	subi	r16, 0x01	; 1
    1a7e:	10 40       	sbci	r17, 0x00	; 0
    1a80:	79 f4       	brne	.+30     	; 0x1aa0 <WaitSendOKWithoutPrint+0x74>
    1a82:	0f 92       	push	r0
    1a84:	0f 92       	push	r0
    1a86:	8a ee       	ldi	r24, 0xEA	; 234
    1a88:	94 e0       	ldi	r25, 0x04	; 4
    1a8a:	ed b7       	in	r30, 0x3d	; 61
    1a8c:	fe b7       	in	r31, 0x3e	; 62
    1a8e:	92 83       	std	Z+2, r25	; 0x02
    1a90:	81 83       	std	Z+1, r24	; 0x01
    1a92:	0e 94 e8 07 	call	0xfd0	; 0xfd0 <debugprint>
    1a96:	0f 90       	pop	r0
    1a98:	0f 90       	pop	r0
    1a9a:	8f ef       	ldi	r24, 0xFF	; 255
    1a9c:	9f ef       	ldi	r25, 0xFF	; 255
    1a9e:	12 c0       	rjmp	.+36     	; 0x1ac4 <WaitSendOKWithoutPrint+0x98>
    1aa0:	8f ef       	ldi	r24, 0xFF	; 255
    1aa2:	9f e8       	ldi	r25, 0x8F	; 143
    1aa4:	01 97       	sbiw	r24, 0x01	; 1
    1aa6:	f1 f7       	brne	.-4      	; 0x1aa4 <WaitSendOKWithoutPrint+0x78>
    1aa8:	00 c0       	rjmp	.+0      	; 0x1aaa <WaitSendOKWithoutPrint+0x7e>
    1aaa:	00 00       	nop
    1aac:	c9 cf       	rjmp	.-110    	; 0x1a40 <WaitSendOKWithoutPrint+0x14>
    1aae:	80 e0       	ldi	r24, 0x00	; 0
    1ab0:	90 e0       	ldi	r25, 0x00	; 0
    1ab2:	08 c0       	rjmp	.+16     	; 0x1ac4 <WaitSendOKWithoutPrint+0x98>
    1ab4:	8f ef       	ldi	r24, 0xFF	; 255
    1ab6:	9f ef       	ldi	r25, 0xFF	; 255
    1ab8:	05 c0       	rjmp	.+10     	; 0x1ac4 <WaitSendOKWithoutPrint+0x98>
    1aba:	80 e0       	ldi	r24, 0x00	; 0
    1abc:	90 e0       	ldi	r25, 0x00	; 0
    1abe:	02 c0       	rjmp	.+4      	; 0x1ac4 <WaitSendOKWithoutPrint+0x98>
    1ac0:	8f ef       	ldi	r24, 0xFF	; 255
    1ac2:	9f ef       	ldi	r25, 0xFF	; 255
    1ac4:	0f 90       	pop	r0
    1ac6:	0f 90       	pop	r0
    1ac8:	0f 90       	pop	r0
    1aca:	0f 90       	pop	r0
    1acc:	df 91       	pop	r29
    1ace:	cf 91       	pop	r28
    1ad0:	1f 91       	pop	r17
    1ad2:	0f 91       	pop	r16
    1ad4:	08 95       	ret

00001ad6 <WaitOk>:
    1ad6:	cf 92       	push	r12
    1ad8:	df 92       	push	r13
    1ada:	ef 92       	push	r14
    1adc:	ff 92       	push	r15
    1ade:	0f 93       	push	r16
    1ae0:	1f 93       	push	r17
    1ae2:	cf 93       	push	r28
    1ae4:	df 93       	push	r29
    1ae6:	cd b7       	in	r28, 0x3d	; 61
    1ae8:	de b7       	in	r29, 0x3e	; 62
    1aea:	c0 50       	subi	r28, 0x00	; 0
    1aec:	d1 40       	sbci	r29, 0x01	; 1
    1aee:	0f b6       	in	r0, 0x3f	; 63
    1af0:	f8 94       	cli
    1af2:	de bf       	out	0x3e, r29	; 62
    1af4:	0f be       	out	0x3f, r0	; 63
    1af6:	cd bf       	out	0x3d, r28	; 61
    1af8:	dd 24       	eor	r13, r13
    1afa:	40 e0       	ldi	r20, 0x00	; 0
    1afc:	50 e0       	ldi	r21, 0x00	; 0
    1afe:	be 01       	movw	r22, r28
    1b00:	6f 5f       	subi	r22, 0xFF	; 255
    1b02:	7f 4f       	sbci	r23, 0xFF	; 255
    1b04:	ee 24       	eor	r14, r14
    1b06:	ff 24       	eor	r15, r15
    1b08:	0e e4       	ldi	r16, 0x4E	; 78
    1b0a:	1a e0       	ldi	r17, 0x0A	; 10
    1b0c:	cc 24       	eor	r12, r12
    1b0e:	c3 94       	inc	r12
    1b10:	80 91 eb 05 	lds	r24, 0x05EB
    1b14:	88 23       	and	r24, r24
    1b16:	e1 f3       	breq	.-8      	; 0x1b10 <WaitOk+0x3a>
    1b18:	80 91 eb 05 	lds	r24, 0x05EB
    1b1c:	88 23       	and	r24, r24
    1b1e:	c1 f3       	breq	.-16     	; 0x1b10 <WaitOk+0x3a>
    1b20:	db 01       	movw	r26, r22
    1b22:	a4 0f       	add	r26, r20
    1b24:	b5 1f       	adc	r27, r21
    1b26:	97 01       	movw	r18, r14
    1b28:	f8 01       	movw	r30, r16
    1b2a:	e2 0f       	add	r30, r18
    1b2c:	f3 1f       	adc	r31, r19
    1b2e:	80 81       	ld	r24, Z
    1b30:	8d 93       	st	X+, r24
    1b32:	80 81       	ld	r24, Z
    1b34:	8a 30       	cpi	r24, 0x0A	; 10
    1b36:	39 f5       	brne	.+78     	; 0x1b86 <WaitOk+0xb0>
    1b38:	dd 20       	and	r13, r13
    1b3a:	21 f1       	breq	.+72     	; 0x1b84 <WaitOk+0xae>
    1b3c:	ce 01       	movw	r24, r28
    1b3e:	03 96       	adiw	r24, 0x03	; 3
    1b40:	6f e8       	ldi	r22, 0x8F	; 143
    1b42:	74 e0       	ldi	r23, 0x04	; 4
    1b44:	42 e0       	ldi	r20, 0x02	; 2
    1b46:	50 e0       	ldi	r21, 0x00	; 0
    1b48:	0e 94 74 1a 	call	0x34e8	; 0x34e8 <strncmp>
    1b4c:	28 2f       	mov	r18, r24
    1b4e:	39 2f       	mov	r19, r25
    1b50:	21 15       	cp	r18, r1
    1b52:	31 05       	cpc	r19, r1
    1b54:	29 f4       	brne	.+10     	; 0x1b60 <WaitOk+0x8a>
    1b56:	10 92 eb 05 	sts	0x05EB, r1
    1b5a:	80 e0       	ldi	r24, 0x00	; 0
    1b5c:	90 e0       	ldi	r25, 0x00	; 0
    1b5e:	22 c0       	rjmp	.+68     	; 0x1ba4 <WaitOk+0xce>
    1b60:	ce 01       	movw	r24, r28
    1b62:	03 96       	adiw	r24, 0x03	; 3
    1b64:	60 ea       	ldi	r22, 0xA0	; 160
    1b66:	74 e0       	ldi	r23, 0x04	; 4
    1b68:	45 e0       	ldi	r20, 0x05	; 5
    1b6a:	50 e0       	ldi	r21, 0x00	; 0
    1b6c:	0e 94 74 1a 	call	0x34e8	; 0x34e8 <strncmp>
    1b70:	28 2f       	mov	r18, r24
    1b72:	39 2f       	mov	r19, r25
    1b74:	21 15       	cp	r18, r1
    1b76:	31 05       	cpc	r19, r1
    1b78:	99 f4       	brne	.+38     	; 0x1ba0 <WaitOk+0xca>
    1b7a:	10 92 eb 05 	sts	0x05EB, r1
    1b7e:	8f ef       	ldi	r24, 0xFF	; 255
    1b80:	9f ef       	ldi	r25, 0xFF	; 255
    1b82:	10 c0       	rjmp	.+32     	; 0x1ba4 <WaitOk+0xce>
    1b84:	dc 2c       	mov	r13, r12
    1b86:	ad 01       	movw	r20, r26
    1b88:	46 1b       	sub	r20, r22
    1b8a:	57 0b       	sbc	r21, r23
    1b8c:	2f 5f       	subi	r18, 0xFF	; 255
    1b8e:	3f 4f       	sbci	r19, 0xFF	; 255
    1b90:	80 91 eb 05 	lds	r24, 0x05EB
    1b94:	90 e0       	ldi	r25, 0x00	; 0
    1b96:	28 17       	cp	r18, r24
    1b98:	39 07       	cpc	r19, r25
    1b9a:	0c f0       	brlt	.+2      	; 0x1b9e <WaitOk+0xc8>
    1b9c:	b9 cf       	rjmp	.-142    	; 0x1b10 <WaitOk+0x3a>
    1b9e:	c4 cf       	rjmp	.-120    	; 0x1b28 <WaitOk+0x52>
    1ba0:	8f ef       	ldi	r24, 0xFF	; 255
    1ba2:	9f ef       	ldi	r25, 0xFF	; 255
    1ba4:	c0 50       	subi	r28, 0x00	; 0
    1ba6:	df 4f       	sbci	r29, 0xFF	; 255
    1ba8:	0f b6       	in	r0, 0x3f	; 63
    1baa:	f8 94       	cli
    1bac:	de bf       	out	0x3e, r29	; 62
    1bae:	0f be       	out	0x3f, r0	; 63
    1bb0:	cd bf       	out	0x3d, r28	; 61
    1bb2:	df 91       	pop	r29
    1bb4:	cf 91       	pop	r28
    1bb6:	1f 91       	pop	r17
    1bb8:	0f 91       	pop	r16
    1bba:	ff 90       	pop	r15
    1bbc:	ef 90       	pop	r14
    1bbe:	df 90       	pop	r13
    1bc0:	cf 90       	pop	r12
    1bc2:	08 95       	ret

00001bc4 <wifiDisplayAPlist>:
    1bc4:	0f 92       	push	r0
    1bc6:	0f 92       	push	r0
    1bc8:	8b e0       	ldi	r24, 0x0B	; 11
    1bca:	95 e0       	ldi	r25, 0x05	; 5
    1bcc:	ad b7       	in	r26, 0x3d	; 61
    1bce:	be b7       	in	r27, 0x3e	; 62
    1bd0:	12 96       	adiw	r26, 0x02	; 2
    1bd2:	9c 93       	st	X, r25
    1bd4:	8e 93       	st	-X, r24
    1bd6:	11 97       	sbiw	r26, 0x01	; 1
    1bd8:	0e 94 b1 08 	call	0x1162	; 0x1162 <wifiprint>
    1bdc:	8f ef       	ldi	r24, 0xFF	; 255
    1bde:	9f ef       	ldi	r25, 0xFF	; 255
    1be0:	a9 e5       	ldi	r26, 0x59	; 89
    1be2:	81 50       	subi	r24, 0x01	; 1
    1be4:	90 40       	sbci	r25, 0x00	; 0
    1be6:	a0 40       	sbci	r26, 0x00	; 0
    1be8:	e1 f7       	brne	.-8      	; 0x1be2 <wifiDisplayAPlist+0x1e>
    1bea:	00 c0       	rjmp	.+0      	; 0x1bec <wifiDisplayAPlist+0x28>
    1bec:	00 00       	nop
    1bee:	0f 90       	pop	r0
    1bf0:	0f 90       	pop	r0
    1bf2:	0e 94 b3 0b 	call	0x1766	; 0x1766 <WaitOKWithPrint>
    1bf6:	08 95       	ret

00001bf8 <wifiConnectAP>:
    1bf8:	00 d0       	rcall	.+0      	; 0x1bfa <wifiConnectAP+0x2>
    1bfa:	00 d0       	rcall	.+0      	; 0x1bfc <wifiConnectAP+0x4>
    1bfc:	ed b7       	in	r30, 0x3d	; 61
    1bfe:	fe b7       	in	r31, 0x3e	; 62
    1c00:	31 96       	adiw	r30, 0x01	; 1
    1c02:	26 e1       	ldi	r18, 0x16	; 22
    1c04:	35 e0       	ldi	r19, 0x05	; 5
    1c06:	ad b7       	in	r26, 0x3d	; 61
    1c08:	be b7       	in	r27, 0x3e	; 62
    1c0a:	12 96       	adiw	r26, 0x02	; 2
    1c0c:	3c 93       	st	X, r19
    1c0e:	2e 93       	st	-X, r18
    1c10:	11 97       	sbiw	r26, 0x01	; 1
    1c12:	93 83       	std	Z+3, r25	; 0x03
    1c14:	82 83       	std	Z+2, r24	; 0x02
    1c16:	75 83       	std	Z+5, r23	; 0x05
    1c18:	64 83       	std	Z+4, r22	; 0x04
    1c1a:	0e 94 b1 08 	call	0x1162	; 0x1162 <wifiprint>
    1c1e:	8d b7       	in	r24, 0x3d	; 61
    1c20:	9e b7       	in	r25, 0x3e	; 62
    1c22:	06 96       	adiw	r24, 0x06	; 6
    1c24:	0f b6       	in	r0, 0x3f	; 63
    1c26:	f8 94       	cli
    1c28:	9e bf       	out	0x3e, r25	; 62
    1c2a:	0f be       	out	0x3f, r0	; 63
    1c2c:	8d bf       	out	0x3d, r24	; 61
    1c2e:	0e 94 b3 0b 	call	0x1766	; 0x1766 <WaitOKWithPrint>
    1c32:	08 95       	ret

00001c34 <wifiModeSet>:
    1c34:	0f 92       	push	r0
    1c36:	0f 92       	push	r0
    1c38:	8f e2       	ldi	r24, 0x2F	; 47
    1c3a:	95 e0       	ldi	r25, 0x05	; 5
    1c3c:	ed b7       	in	r30, 0x3d	; 61
    1c3e:	fe b7       	in	r31, 0x3e	; 62
    1c40:	92 83       	std	Z+2, r25	; 0x02
    1c42:	81 83       	std	Z+1, r24	; 0x01
    1c44:	0e 94 b1 08 	call	0x1162	; 0x1162 <wifiprint>
    1c48:	0f 90       	pop	r0
    1c4a:	0f 90       	pop	r0
    1c4c:	0e 94 b3 0b 	call	0x1766	; 0x1766 <WaitOKWithPrint>
    1c50:	08 95       	ret

00001c52 <wifiDisplayLocalIP>:
    1c52:	0f 92       	push	r0
    1c54:	0f 92       	push	r0
    1c56:	8d e3       	ldi	r24, 0x3D	; 61
    1c58:	95 e0       	ldi	r25, 0x05	; 5
    1c5a:	ed b7       	in	r30, 0x3d	; 61
    1c5c:	fe b7       	in	r31, 0x3e	; 62
    1c5e:	92 83       	std	Z+2, r25	; 0x02
    1c60:	81 83       	std	Z+1, r24	; 0x01
    1c62:	0e 94 b1 08 	call	0x1162	; 0x1162 <wifiprint>
    1c66:	0f 90       	pop	r0
    1c68:	0f 90       	pop	r0
    1c6a:	0e 94 b3 0b 	call	0x1766	; 0x1766 <WaitOKWithPrint>
    1c6e:	08 95       	ret

00001c70 <wifiEnableDHCP>:
    1c70:	0f 92       	push	r0
    1c72:	0f 92       	push	r0
    1c74:	8e e4       	ldi	r24, 0x4E	; 78
    1c76:	95 e0       	ldi	r25, 0x05	; 5
    1c78:	ed b7       	in	r30, 0x3d	; 61
    1c7a:	fe b7       	in	r31, 0x3e	; 62
    1c7c:	92 83       	std	Z+2, r25	; 0x02
    1c7e:	81 83       	std	Z+1, r24	; 0x01
    1c80:	0e 94 b1 08 	call	0x1162	; 0x1162 <wifiprint>
    1c84:	0f 90       	pop	r0
    1c86:	0f 90       	pop	r0
    1c88:	0e 94 b3 0b 	call	0x1766	; 0x1766 <WaitOKWithPrint>
    1c8c:	08 95       	ret

00001c8e <wifiConnectTCPServer>:
    1c8e:	2d b7       	in	r18, 0x3d	; 61
    1c90:	3e b7       	in	r19, 0x3e	; 62
    1c92:	28 50       	subi	r18, 0x08	; 8
    1c94:	30 40       	sbci	r19, 0x00	; 0
    1c96:	0f b6       	in	r0, 0x3f	; 63
    1c98:	f8 94       	cli
    1c9a:	3e bf       	out	0x3e, r19	; 62
    1c9c:	0f be       	out	0x3f, r0	; 63
    1c9e:	2d bf       	out	0x3d, r18	; 61
    1ca0:	ed b7       	in	r30, 0x3d	; 61
    1ca2:	fe b7       	in	r31, 0x3e	; 62
    1ca4:	31 96       	adiw	r30, 0x01	; 1
    1ca6:	22 e6       	ldi	r18, 0x62	; 98
    1ca8:	35 e0       	ldi	r19, 0x05	; 5
    1caa:	ad b7       	in	r26, 0x3d	; 61
    1cac:	be b7       	in	r27, 0x3e	; 62
    1cae:	12 96       	adiw	r26, 0x02	; 2
    1cb0:	3c 93       	st	X, r19
    1cb2:	2e 93       	st	-X, r18
    1cb4:	11 97       	sbiw	r26, 0x01	; 1
    1cb6:	93 83       	std	Z+3, r25	; 0x03
    1cb8:	82 83       	std	Z+2, r24	; 0x02
    1cba:	44 83       	std	Z+4, r20	; 0x04
    1cbc:	55 83       	std	Z+5, r21	; 0x05
    1cbe:	66 83       	std	Z+6, r22	; 0x06
    1cc0:	77 83       	std	Z+7, r23	; 0x07
    1cc2:	0e 94 b1 08 	call	0x1162	; 0x1162 <wifiprint>
    1cc6:	2d b7       	in	r18, 0x3d	; 61
    1cc8:	3e b7       	in	r19, 0x3e	; 62
    1cca:	28 5f       	subi	r18, 0xF8	; 248
    1ccc:	3f 4f       	sbci	r19, 0xFF	; 255
    1cce:	0f b6       	in	r0, 0x3f	; 63
    1cd0:	f8 94       	cli
    1cd2:	3e bf       	out	0x3e, r19	; 62
    1cd4:	0f be       	out	0x3f, r0	; 63
    1cd6:	2d bf       	out	0x3d, r18	; 61
    1cd8:	0e 94 b3 0b 	call	0x1766	; 0x1766 <WaitOKWithPrint>
    1cdc:	08 95       	ret

00001cde <wifiSetEventCallback>:
    1cde:	90 93 4f 0e 	sts	0x0E4F, r25
    1ce2:	80 93 4e 0e 	sts	0x0E4E, r24
    1ce6:	80 e0       	ldi	r24, 0x00	; 0
    1ce8:	08 95       	ret

00001cea <wifiSendData>:
    1cea:	ef 92       	push	r14
    1cec:	ff 92       	push	r15
    1cee:	0f 93       	push	r16
    1cf0:	1f 93       	push	r17
    1cf2:	cf 93       	push	r28
    1cf4:	df 93       	push	r29
    1cf6:	08 2f       	mov	r16, r24
    1cf8:	19 2f       	mov	r17, r25
    1cfa:	eb 01       	movw	r28, r22
    1cfc:	00 d0       	rcall	.+0      	; 0x1cfe <wifiSendData+0x14>
    1cfe:	0f 92       	push	r0
    1d00:	8e e7       	ldi	r24, 0x7E	; 126
    1d02:	95 e0       	ldi	r25, 0x05	; 5
    1d04:	ad b7       	in	r26, 0x3d	; 61
    1d06:	be b7       	in	r27, 0x3e	; 62
    1d08:	12 96       	adiw	r26, 0x02	; 2
    1d0a:	9c 93       	st	X, r25
    1d0c:	8e 93       	st	-X, r24
    1d0e:	11 97       	sbiw	r26, 0x01	; 1
    1d10:	14 96       	adiw	r26, 0x04	; 4
    1d12:	7c 93       	st	X, r23
    1d14:	6e 93       	st	-X, r22
    1d16:	13 97       	sbiw	r26, 0x03	; 3
    1d18:	0e 94 b1 08 	call	0x1162	; 0x1162 <wifiprint>
    1d1c:	0f 90       	pop	r0
    1d1e:	0f 90       	pop	r0
    1d20:	0f 90       	pop	r0
    1d22:	0f 90       	pop	r0
    1d24:	0e 94 b7 0c 	call	0x196e	; 0x196e <WaitSendReadyWithoutPrint>
    1d28:	99 23       	and	r25, r25
    1d2a:	2c f0       	brlt	.+10     	; 0x1d36 <wifiSendData+0x4c>
    1d2c:	1c 16       	cp	r1, r28
    1d2e:	1d 06       	cpc	r1, r29
    1d30:	0c f4       	brge	.+2      	; 0x1d34 <wifiSendData+0x4a>
    1d32:	4a c0       	rjmp	.+148    	; 0x1dc8 <wifiSendData+0xde>
    1d34:	57 c0       	rjmp	.+174    	; 0x1de4 <wifiSendData+0xfa>
    1d36:	0f 92       	push	r0
    1d38:	0f 92       	push	r0
    1d3a:	8e e8       	ldi	r24, 0x8E	; 142
    1d3c:	95 e0       	ldi	r25, 0x05	; 5
    1d3e:	ed b7       	in	r30, 0x3d	; 61
    1d40:	fe b7       	in	r31, 0x3e	; 62
    1d42:	92 83       	std	Z+2, r25	; 0x02
    1d44:	81 83       	std	Z+1, r24	; 0x01
    1d46:	0e 94 e8 07 	call	0xfd0	; 0xfd0 <debugprint>
    1d4a:	87 ea       	ldi	r24, 0xA7	; 167
    1d4c:	95 e0       	ldi	r25, 0x05	; 5
    1d4e:	ad b7       	in	r26, 0x3d	; 61
    1d50:	be b7       	in	r27, 0x3e	; 62
    1d52:	12 96       	adiw	r26, 0x02	; 2
    1d54:	9c 93       	st	X, r25
    1d56:	8e 93       	st	-X, r24
    1d58:	11 97       	sbiw	r26, 0x01	; 1
    1d5a:	0e 94 e8 07 	call	0xfd0	; 0xfd0 <debugprint>
    1d5e:	80 91 e6 05 	lds	r24, 0x05E6
    1d62:	90 91 e7 05 	lds	r25, 0x05E7
    1d66:	0f 90       	pop	r0
    1d68:	0f 90       	pop	r0
    1d6a:	18 16       	cp	r1, r24
    1d6c:	19 06       	cpc	r1, r25
    1d6e:	ec f5       	brge	.+122    	; 0x1dea <wifiSendData+0x100>
    1d70:	c0 e0       	ldi	r28, 0x00	; 0
    1d72:	d0 e0       	ldi	r29, 0x00	; 0
    1d74:	0e e4       	ldi	r16, 0x4E	; 78
    1d76:	1c e0       	ldi	r17, 0x0C	; 12
    1d78:	0f 2e       	mov	r0, r31
    1d7a:	fa ea       	ldi	r31, 0xAA	; 170
    1d7c:	ef 2e       	mov	r14, r31
    1d7e:	f5 e0       	ldi	r31, 0x05	; 5
    1d80:	ff 2e       	mov	r15, r31
    1d82:	f0 2d       	mov	r31, r0
    1d84:	f8 01       	movw	r30, r16
    1d86:	ec 0f       	add	r30, r28
    1d88:	fd 1f       	adc	r31, r29
    1d8a:	80 81       	ld	r24, Z
    1d8c:	00 d0       	rcall	.+0      	; 0x1d8e <wifiSendData+0xa4>
    1d8e:	0f 92       	push	r0
    1d90:	ed b7       	in	r30, 0x3d	; 61
    1d92:	fe b7       	in	r31, 0x3e	; 62
    1d94:	31 96       	adiw	r30, 0x01	; 1
    1d96:	ad b7       	in	r26, 0x3d	; 61
    1d98:	be b7       	in	r27, 0x3e	; 62
    1d9a:	12 96       	adiw	r26, 0x02	; 2
    1d9c:	fc 92       	st	X, r15
    1d9e:	ee 92       	st	-X, r14
    1da0:	11 97       	sbiw	r26, 0x01	; 1
    1da2:	82 83       	std	Z+2, r24	; 0x02
    1da4:	13 82       	std	Z+3, r1	; 0x03
    1da6:	0e 94 e8 07 	call	0xfd0	; 0xfd0 <debugprint>
    1daa:	21 96       	adiw	r28, 0x01	; 1
    1dac:	80 91 e6 05 	lds	r24, 0x05E6
    1db0:	90 91 e7 05 	lds	r25, 0x05E7
    1db4:	0f 90       	pop	r0
    1db6:	0f 90       	pop	r0
    1db8:	0f 90       	pop	r0
    1dba:	0f 90       	pop	r0
    1dbc:	c8 17       	cp	r28, r24
    1dbe:	d9 07       	cpc	r29, r25
    1dc0:	0c f3       	brlt	.-62     	; 0x1d84 <wifiSendData+0x9a>
    1dc2:	8f ef       	ldi	r24, 0xFF	; 255
    1dc4:	9f ef       	ldi	r25, 0xFF	; 255
    1dc6:	13 c0       	rjmp	.+38     	; 0x1dee <wifiSendData+0x104>
    1dc8:	e0 2e       	mov	r14, r16
    1dca:	f1 2e       	mov	r15, r17
    1dcc:	00 e0       	ldi	r16, 0x00	; 0
    1dce:	10 e0       	ldi	r17, 0x00	; 0
    1dd0:	f7 01       	movw	r30, r14
    1dd2:	81 91       	ld	r24, Z+
    1dd4:	7f 01       	movw	r14, r30
    1dd6:	0e 94 2d 08 	call	0x105a	; 0x105a <putCh0>
    1dda:	0f 5f       	subi	r16, 0xFF	; 255
    1ddc:	1f 4f       	sbci	r17, 0xFF	; 255
    1dde:	0c 17       	cp	r16, r28
    1de0:	1d 07       	cpc	r17, r29
    1de2:	b1 f7       	brne	.-20     	; 0x1dd0 <wifiSendData+0xe6>
    1de4:	0e 94 16 0d 	call	0x1a2c	; 0x1a2c <WaitSendOKWithoutPrint>
    1de8:	02 c0       	rjmp	.+4      	; 0x1dee <wifiSendData+0x104>
    1dea:	8f ef       	ldi	r24, 0xFF	; 255
    1dec:	9f ef       	ldi	r25, 0xFF	; 255
    1dee:	df 91       	pop	r29
    1df0:	cf 91       	pop	r28
    1df2:	1f 91       	pop	r17
    1df4:	0f 91       	pop	r16
    1df6:	ff 90       	pop	r15
    1df8:	ef 90       	pop	r14
    1dfa:	08 95       	ret

00001dfc <wificlearUartBuff>:
    1dfc:	10 92 eb 05 	sts	0x05EB, r1
    1e00:	10 92 e7 05 	sts	0x05E7, r1
    1e04:	10 92 e6 05 	sts	0x05E6, r1
    1e08:	08 95       	ret

00001e0a <wifiAutoConnectDisable>:
    1e0a:	0f 92       	push	r0
    1e0c:	0f 92       	push	r0
    1e0e:	81 eb       	ldi	r24, 0xB1	; 177
    1e10:	95 e0       	ldi	r25, 0x05	; 5
    1e12:	ad b7       	in	r26, 0x3d	; 61
    1e14:	be b7       	in	r27, 0x3e	; 62
    1e16:	12 96       	adiw	r26, 0x02	; 2
    1e18:	9c 93       	st	X, r25
    1e1a:	8e 93       	st	-X, r24
    1e1c:	11 97       	sbiw	r26, 0x01	; 1
    1e1e:	0e 94 b1 08 	call	0x1162	; 0x1162 <wifiprint>
    1e22:	8f ef       	ldi	r24, 0xFF	; 255
    1e24:	9f e3       	ldi	r25, 0x3F	; 63
    1e26:	a2 e0       	ldi	r26, 0x02	; 2
    1e28:	81 50       	subi	r24, 0x01	; 1
    1e2a:	90 40       	sbci	r25, 0x00	; 0
    1e2c:	a0 40       	sbci	r26, 0x00	; 0
    1e2e:	e1 f7       	brne	.-8      	; 0x1e28 <wifiAutoConnectDisable+0x1e>
    1e30:	00 c0       	rjmp	.+0      	; 0x1e32 <wifiAutoConnectDisable+0x28>
    1e32:	00 00       	nop
    1e34:	0f 90       	pop	r0
    1e36:	0f 90       	pop	r0
    1e38:	0e 94 6b 0d 	call	0x1ad6	; 0x1ad6 <WaitOk>
    1e3c:	08 95       	ret

00001e3e <wifiEchoDisable>:
    1e3e:	0f 92       	push	r0
    1e40:	0f 92       	push	r0
    1e42:	83 ec       	ldi	r24, 0xC3	; 195
    1e44:	95 e0       	ldi	r25, 0x05	; 5
    1e46:	ad b7       	in	r26, 0x3d	; 61
    1e48:	be b7       	in	r27, 0x3e	; 62
    1e4a:	12 96       	adiw	r26, 0x02	; 2
    1e4c:	9c 93       	st	X, r25
    1e4e:	8e 93       	st	-X, r24
    1e50:	11 97       	sbiw	r26, 0x01	; 1
    1e52:	0e 94 b1 08 	call	0x1162	; 0x1162 <wifiprint>
    1e56:	8f ef       	ldi	r24, 0xFF	; 255
    1e58:	9f e7       	ldi	r25, 0x7F	; 127
    1e5a:	a4 e0       	ldi	r26, 0x04	; 4
    1e5c:	81 50       	subi	r24, 0x01	; 1
    1e5e:	90 40       	sbci	r25, 0x00	; 0
    1e60:	a0 40       	sbci	r26, 0x00	; 0
    1e62:	e1 f7       	brne	.-8      	; 0x1e5c <wifiEchoDisable+0x1e>
    1e64:	00 c0       	rjmp	.+0      	; 0x1e66 <wifiEchoDisable+0x28>
    1e66:	00 00       	nop
    1e68:	0f 90       	pop	r0
    1e6a:	0f 90       	pop	r0
    1e6c:	0e 94 fe 0e 	call	0x1dfc	; 0x1dfc <wificlearUartBuff>
    1e70:	08 95       	ret

00001e72 <FAN_Action>:
	FAN_Action(OFF);
}

void FAN_Action (unsigned int motion)
{
	if (motion == 1)			// turn on
    1e72:	81 30       	cpi	r24, 0x01	; 1
    1e74:	91 05       	cpc	r25, r1
    1e76:	11 f4       	brne	.+4      	; 0x1e7c <FAN_Action+0xa>
		FAN_PORT	|=	0x04;
    1e78:	42 9a       	sbi	0x08, 2	; 8
    1e7a:	08 95       	ret
	else						// turn off
		FAN_PORT	&=	~(0x04);
    1e7c:	42 98       	cbi	0x08, 2	; 8
    1e7e:	08 95       	ret

00001e80 <initFan>:
#include "fan.h"

void initFan(void)
{
	debugprint("Fan Initialize.\n");	
    1e80:	8a ec       	ldi	r24, 0xCA	; 202
    1e82:	95 e0       	ldi	r25, 0x05	; 5
    1e84:	0e 94 e8 07 	call	0xfd0	; 0xfd0 <debugprint>
	
	FAN_DDR		|=	0x0C;
    1e88:	87 b1       	in	r24, 0x07	; 7
    1e8a:	8c 60       	ori	r24, 0x0C	; 12
    1e8c:	87 b9       	out	0x07, r24	; 7
	FAN_PORT	&=	~(0x0C);
    1e8e:	88 b1       	in	r24, 0x08	; 8
    1e90:	83 7f       	andi	r24, 0xF3	; 243
    1e92:	88 b9       	out	0x08, r24	; 8
	
	FAN_Action(OFF);
    1e94:	80 e0       	ldi	r24, 0x00	; 0
    1e96:	90 e0       	ldi	r25, 0x00	; 0
    1e98:	0e 94 39 0f 	call	0x1e72	; 0x1e72 <FAN_Action>
}
    1e9c:	08 95       	ret

00001e9e <pinMode>:
    1e9e:	88 23       	and	r24, r24
    1ea0:	e9 f4       	brne	.+58     	; 0x1edc <pinMode+0x3e>
    1ea2:	44 23       	and	r20, r20
    1ea4:	69 f0       	breq	.+26     	; 0x1ec0 <pinMode+0x22>
    1ea6:	21 b1       	in	r18, 0x01	; 1
    1ea8:	81 e0       	ldi	r24, 0x01	; 1
    1eaa:	90 e0       	ldi	r25, 0x00	; 0
    1eac:	ac 01       	movw	r20, r24
    1eae:	02 c0       	rjmp	.+4      	; 0x1eb4 <pinMode+0x16>
    1eb0:	44 0f       	add	r20, r20
    1eb2:	55 1f       	adc	r21, r21
    1eb4:	6a 95       	dec	r22
    1eb6:	e2 f7       	brpl	.-8      	; 0x1eb0 <pinMode+0x12>
    1eb8:	ba 01       	movw	r22, r20
    1eba:	62 2b       	or	r22, r18
    1ebc:	61 b9       	out	0x01, r22	; 1
    1ebe:	08 95       	ret
    1ec0:	21 b1       	in	r18, 0x01	; 1
    1ec2:	81 e0       	ldi	r24, 0x01	; 1
    1ec4:	90 e0       	ldi	r25, 0x00	; 0
    1ec6:	ac 01       	movw	r20, r24
    1ec8:	02 c0       	rjmp	.+4      	; 0x1ece <pinMode+0x30>
    1eca:	44 0f       	add	r20, r20
    1ecc:	55 1f       	adc	r21, r21
    1ece:	6a 95       	dec	r22
    1ed0:	e2 f7       	brpl	.-8      	; 0x1eca <pinMode+0x2c>
    1ed2:	ba 01       	movw	r22, r20
    1ed4:	60 95       	com	r22
    1ed6:	62 23       	and	r22, r18
    1ed8:	61 b9       	out	0x01, r22	; 1
    1eda:	08 95       	ret
    1edc:	81 30       	cpi	r24, 0x01	; 1
    1ede:	e9 f4       	brne	.+58     	; 0x1f1a <pinMode+0x7c>
    1ee0:	44 23       	and	r20, r20
    1ee2:	69 f0       	breq	.+26     	; 0x1efe <pinMode+0x60>
    1ee4:	24 b1       	in	r18, 0x04	; 4
    1ee6:	81 e0       	ldi	r24, 0x01	; 1
    1ee8:	90 e0       	ldi	r25, 0x00	; 0
    1eea:	ac 01       	movw	r20, r24
    1eec:	02 c0       	rjmp	.+4      	; 0x1ef2 <pinMode+0x54>
    1eee:	44 0f       	add	r20, r20
    1ef0:	55 1f       	adc	r21, r21
    1ef2:	6a 95       	dec	r22
    1ef4:	e2 f7       	brpl	.-8      	; 0x1eee <pinMode+0x50>
    1ef6:	ba 01       	movw	r22, r20
    1ef8:	62 2b       	or	r22, r18
    1efa:	64 b9       	out	0x04, r22	; 4
    1efc:	08 95       	ret
    1efe:	24 b1       	in	r18, 0x04	; 4
    1f00:	81 e0       	ldi	r24, 0x01	; 1
    1f02:	90 e0       	ldi	r25, 0x00	; 0
    1f04:	ac 01       	movw	r20, r24
    1f06:	02 c0       	rjmp	.+4      	; 0x1f0c <pinMode+0x6e>
    1f08:	44 0f       	add	r20, r20
    1f0a:	55 1f       	adc	r21, r21
    1f0c:	6a 95       	dec	r22
    1f0e:	e2 f7       	brpl	.-8      	; 0x1f08 <pinMode+0x6a>
    1f10:	ba 01       	movw	r22, r20
    1f12:	60 95       	com	r22
    1f14:	62 23       	and	r22, r18
    1f16:	64 b9       	out	0x04, r22	; 4
    1f18:	08 95       	ret
    1f1a:	82 30       	cpi	r24, 0x02	; 2
    1f1c:	e9 f4       	brne	.+58     	; 0x1f58 <pinMode+0xba>
    1f1e:	44 23       	and	r20, r20
    1f20:	69 f0       	breq	.+26     	; 0x1f3c <pinMode+0x9e>
    1f22:	27 b1       	in	r18, 0x07	; 7
    1f24:	81 e0       	ldi	r24, 0x01	; 1
    1f26:	90 e0       	ldi	r25, 0x00	; 0
    1f28:	ac 01       	movw	r20, r24
    1f2a:	02 c0       	rjmp	.+4      	; 0x1f30 <pinMode+0x92>
    1f2c:	44 0f       	add	r20, r20
    1f2e:	55 1f       	adc	r21, r21
    1f30:	6a 95       	dec	r22
    1f32:	e2 f7       	brpl	.-8      	; 0x1f2c <pinMode+0x8e>
    1f34:	ba 01       	movw	r22, r20
    1f36:	62 2b       	or	r22, r18
    1f38:	67 b9       	out	0x07, r22	; 7
    1f3a:	08 95       	ret
    1f3c:	27 b1       	in	r18, 0x07	; 7
    1f3e:	81 e0       	ldi	r24, 0x01	; 1
    1f40:	90 e0       	ldi	r25, 0x00	; 0
    1f42:	ac 01       	movw	r20, r24
    1f44:	02 c0       	rjmp	.+4      	; 0x1f4a <pinMode+0xac>
    1f46:	44 0f       	add	r20, r20
    1f48:	55 1f       	adc	r21, r21
    1f4a:	6a 95       	dec	r22
    1f4c:	e2 f7       	brpl	.-8      	; 0x1f46 <pinMode+0xa8>
    1f4e:	ba 01       	movw	r22, r20
    1f50:	60 95       	com	r22
    1f52:	62 23       	and	r22, r18
    1f54:	67 b9       	out	0x07, r22	; 7
    1f56:	08 95       	ret
    1f58:	83 30       	cpi	r24, 0x03	; 3
    1f5a:	e9 f4       	brne	.+58     	; 0x1f96 <pinMode+0xf8>
    1f5c:	44 23       	and	r20, r20
    1f5e:	69 f0       	breq	.+26     	; 0x1f7a <pinMode+0xdc>
    1f60:	2a b1       	in	r18, 0x0a	; 10
    1f62:	81 e0       	ldi	r24, 0x01	; 1
    1f64:	90 e0       	ldi	r25, 0x00	; 0
    1f66:	ac 01       	movw	r20, r24
    1f68:	02 c0       	rjmp	.+4      	; 0x1f6e <pinMode+0xd0>
    1f6a:	44 0f       	add	r20, r20
    1f6c:	55 1f       	adc	r21, r21
    1f6e:	6a 95       	dec	r22
    1f70:	e2 f7       	brpl	.-8      	; 0x1f6a <pinMode+0xcc>
    1f72:	ba 01       	movw	r22, r20
    1f74:	62 2b       	or	r22, r18
    1f76:	6a b9       	out	0x0a, r22	; 10
    1f78:	08 95       	ret
    1f7a:	2a b1       	in	r18, 0x0a	; 10
    1f7c:	81 e0       	ldi	r24, 0x01	; 1
    1f7e:	90 e0       	ldi	r25, 0x00	; 0
    1f80:	ac 01       	movw	r20, r24
    1f82:	02 c0       	rjmp	.+4      	; 0x1f88 <pinMode+0xea>
    1f84:	44 0f       	add	r20, r20
    1f86:	55 1f       	adc	r21, r21
    1f88:	6a 95       	dec	r22
    1f8a:	e2 f7       	brpl	.-8      	; 0x1f84 <pinMode+0xe6>
    1f8c:	ba 01       	movw	r22, r20
    1f8e:	60 95       	com	r22
    1f90:	62 23       	and	r22, r18
    1f92:	6a b9       	out	0x0a, r22	; 10
    1f94:	08 95       	ret
    1f96:	84 30       	cpi	r24, 0x04	; 4
    1f98:	e9 f4       	brne	.+58     	; 0x1fd4 <pinMode+0x136>
    1f9a:	44 23       	and	r20, r20
    1f9c:	69 f0       	breq	.+26     	; 0x1fb8 <pinMode+0x11a>
    1f9e:	2d b1       	in	r18, 0x0d	; 13
    1fa0:	81 e0       	ldi	r24, 0x01	; 1
    1fa2:	90 e0       	ldi	r25, 0x00	; 0
    1fa4:	ac 01       	movw	r20, r24
    1fa6:	02 c0       	rjmp	.+4      	; 0x1fac <pinMode+0x10e>
    1fa8:	44 0f       	add	r20, r20
    1faa:	55 1f       	adc	r21, r21
    1fac:	6a 95       	dec	r22
    1fae:	e2 f7       	brpl	.-8      	; 0x1fa8 <pinMode+0x10a>
    1fb0:	ba 01       	movw	r22, r20
    1fb2:	62 2b       	or	r22, r18
    1fb4:	6d b9       	out	0x0d, r22	; 13
    1fb6:	08 95       	ret
    1fb8:	2d b1       	in	r18, 0x0d	; 13
    1fba:	81 e0       	ldi	r24, 0x01	; 1
    1fbc:	90 e0       	ldi	r25, 0x00	; 0
    1fbe:	ac 01       	movw	r20, r24
    1fc0:	02 c0       	rjmp	.+4      	; 0x1fc6 <pinMode+0x128>
    1fc2:	44 0f       	add	r20, r20
    1fc4:	55 1f       	adc	r21, r21
    1fc6:	6a 95       	dec	r22
    1fc8:	e2 f7       	brpl	.-8      	; 0x1fc2 <pinMode+0x124>
    1fca:	ba 01       	movw	r22, r20
    1fcc:	60 95       	com	r22
    1fce:	62 23       	and	r22, r18
    1fd0:	6d b9       	out	0x0d, r22	; 13
    1fd2:	08 95       	ret
    1fd4:	85 30       	cpi	r24, 0x05	; 5
    1fd6:	e9 f4       	brne	.+58     	; 0x2012 <pinMode+0x174>
    1fd8:	44 23       	and	r20, r20
    1fda:	69 f0       	breq	.+26     	; 0x1ff6 <pinMode+0x158>
    1fdc:	20 b3       	in	r18, 0x10	; 16
    1fde:	81 e0       	ldi	r24, 0x01	; 1
    1fe0:	90 e0       	ldi	r25, 0x00	; 0
    1fe2:	ac 01       	movw	r20, r24
    1fe4:	02 c0       	rjmp	.+4      	; 0x1fea <pinMode+0x14c>
    1fe6:	44 0f       	add	r20, r20
    1fe8:	55 1f       	adc	r21, r21
    1fea:	6a 95       	dec	r22
    1fec:	e2 f7       	brpl	.-8      	; 0x1fe6 <pinMode+0x148>
    1fee:	ba 01       	movw	r22, r20
    1ff0:	62 2b       	or	r22, r18
    1ff2:	60 bb       	out	0x10, r22	; 16
    1ff4:	08 95       	ret
    1ff6:	20 b3       	in	r18, 0x10	; 16
    1ff8:	81 e0       	ldi	r24, 0x01	; 1
    1ffa:	90 e0       	ldi	r25, 0x00	; 0
    1ffc:	ac 01       	movw	r20, r24
    1ffe:	02 c0       	rjmp	.+4      	; 0x2004 <pinMode+0x166>
    2000:	44 0f       	add	r20, r20
    2002:	55 1f       	adc	r21, r21
    2004:	6a 95       	dec	r22
    2006:	e2 f7       	brpl	.-8      	; 0x2000 <pinMode+0x162>
    2008:	ba 01       	movw	r22, r20
    200a:	60 95       	com	r22
    200c:	62 23       	and	r22, r18
    200e:	60 bb       	out	0x10, r22	; 16
    2010:	08 95       	ret
    2012:	86 30       	cpi	r24, 0x06	; 6
    2014:	e9 f4       	brne	.+58     	; 0x2050 <pinMode+0x1b2>
    2016:	44 23       	and	r20, r20
    2018:	69 f0       	breq	.+26     	; 0x2034 <pinMode+0x196>
    201a:	23 b3       	in	r18, 0x13	; 19
    201c:	81 e0       	ldi	r24, 0x01	; 1
    201e:	90 e0       	ldi	r25, 0x00	; 0
    2020:	ac 01       	movw	r20, r24
    2022:	02 c0       	rjmp	.+4      	; 0x2028 <pinMode+0x18a>
    2024:	44 0f       	add	r20, r20
    2026:	55 1f       	adc	r21, r21
    2028:	6a 95       	dec	r22
    202a:	e2 f7       	brpl	.-8      	; 0x2024 <pinMode+0x186>
    202c:	ba 01       	movw	r22, r20
    202e:	62 2b       	or	r22, r18
    2030:	63 bb       	out	0x13, r22	; 19
    2032:	08 95       	ret
    2034:	23 b3       	in	r18, 0x13	; 19
    2036:	81 e0       	ldi	r24, 0x01	; 1
    2038:	90 e0       	ldi	r25, 0x00	; 0
    203a:	ac 01       	movw	r20, r24
    203c:	02 c0       	rjmp	.+4      	; 0x2042 <pinMode+0x1a4>
    203e:	44 0f       	add	r20, r20
    2040:	55 1f       	adc	r21, r21
    2042:	6a 95       	dec	r22
    2044:	e2 f7       	brpl	.-8      	; 0x203e <pinMode+0x1a0>
    2046:	ba 01       	movw	r22, r20
    2048:	60 95       	com	r22
    204a:	62 23       	and	r22, r18
    204c:	63 bb       	out	0x13, r22	; 19
    204e:	08 95       	ret
    2050:	87 30       	cpi	r24, 0x07	; 7
    2052:	09 f5       	brne	.+66     	; 0x2096 <pinMode+0x1f8>
    2054:	44 23       	and	r20, r20
    2056:	79 f0       	breq	.+30     	; 0x2076 <pinMode+0x1d8>
    2058:	e1 e0       	ldi	r30, 0x01	; 1
    205a:	f1 e0       	ldi	r31, 0x01	; 1
    205c:	20 81       	ld	r18, Z
    205e:	81 e0       	ldi	r24, 0x01	; 1
    2060:	90 e0       	ldi	r25, 0x00	; 0
    2062:	ac 01       	movw	r20, r24
    2064:	02 c0       	rjmp	.+4      	; 0x206a <pinMode+0x1cc>
    2066:	44 0f       	add	r20, r20
    2068:	55 1f       	adc	r21, r21
    206a:	6a 95       	dec	r22
    206c:	e2 f7       	brpl	.-8      	; 0x2066 <pinMode+0x1c8>
    206e:	ba 01       	movw	r22, r20
    2070:	62 2b       	or	r22, r18
    2072:	60 83       	st	Z, r22
    2074:	08 95       	ret
    2076:	e1 e0       	ldi	r30, 0x01	; 1
    2078:	f1 e0       	ldi	r31, 0x01	; 1
    207a:	20 81       	ld	r18, Z
    207c:	81 e0       	ldi	r24, 0x01	; 1
    207e:	90 e0       	ldi	r25, 0x00	; 0
    2080:	ac 01       	movw	r20, r24
    2082:	02 c0       	rjmp	.+4      	; 0x2088 <pinMode+0x1ea>
    2084:	44 0f       	add	r20, r20
    2086:	55 1f       	adc	r21, r21
    2088:	6a 95       	dec	r22
    208a:	e2 f7       	brpl	.-8      	; 0x2084 <pinMode+0x1e6>
    208c:	ba 01       	movw	r22, r20
    208e:	60 95       	com	r22
    2090:	62 23       	and	r22, r18
    2092:	60 83       	st	Z, r22
    2094:	08 95       	ret
    2096:	89 30       	cpi	r24, 0x09	; 9
    2098:	09 f5       	brne	.+66     	; 0x20dc <pinMode+0x23e>
    209a:	44 23       	and	r20, r20
    209c:	79 f0       	breq	.+30     	; 0x20bc <pinMode+0x21e>
    209e:	e4 e0       	ldi	r30, 0x04	; 4
    20a0:	f1 e0       	ldi	r31, 0x01	; 1
    20a2:	20 81       	ld	r18, Z
    20a4:	81 e0       	ldi	r24, 0x01	; 1
    20a6:	90 e0       	ldi	r25, 0x00	; 0
    20a8:	ac 01       	movw	r20, r24
    20aa:	02 c0       	rjmp	.+4      	; 0x20b0 <pinMode+0x212>
    20ac:	44 0f       	add	r20, r20
    20ae:	55 1f       	adc	r21, r21
    20b0:	6a 95       	dec	r22
    20b2:	e2 f7       	brpl	.-8      	; 0x20ac <pinMode+0x20e>
    20b4:	ba 01       	movw	r22, r20
    20b6:	62 2b       	or	r22, r18
    20b8:	60 83       	st	Z, r22
    20ba:	08 95       	ret
    20bc:	e4 e0       	ldi	r30, 0x04	; 4
    20be:	f1 e0       	ldi	r31, 0x01	; 1
    20c0:	20 81       	ld	r18, Z
    20c2:	81 e0       	ldi	r24, 0x01	; 1
    20c4:	90 e0       	ldi	r25, 0x00	; 0
    20c6:	ac 01       	movw	r20, r24
    20c8:	02 c0       	rjmp	.+4      	; 0x20ce <pinMode+0x230>
    20ca:	44 0f       	add	r20, r20
    20cc:	55 1f       	adc	r21, r21
    20ce:	6a 95       	dec	r22
    20d0:	e2 f7       	brpl	.-8      	; 0x20ca <pinMode+0x22c>
    20d2:	ba 01       	movw	r22, r20
    20d4:	60 95       	com	r22
    20d6:	62 23       	and	r22, r18
    20d8:	60 83       	st	Z, r22
    20da:	08 95       	ret
    20dc:	8a 30       	cpi	r24, 0x0A	; 10
    20de:	09 f5       	brne	.+66     	; 0x2122 <pinMode+0x284>
    20e0:	44 23       	and	r20, r20
    20e2:	79 f0       	breq	.+30     	; 0x2102 <pinMode+0x264>
    20e4:	e7 e0       	ldi	r30, 0x07	; 7
    20e6:	f1 e0       	ldi	r31, 0x01	; 1
    20e8:	20 81       	ld	r18, Z
    20ea:	81 e0       	ldi	r24, 0x01	; 1
    20ec:	90 e0       	ldi	r25, 0x00	; 0
    20ee:	ac 01       	movw	r20, r24
    20f0:	02 c0       	rjmp	.+4      	; 0x20f6 <pinMode+0x258>
    20f2:	44 0f       	add	r20, r20
    20f4:	55 1f       	adc	r21, r21
    20f6:	6a 95       	dec	r22
    20f8:	e2 f7       	brpl	.-8      	; 0x20f2 <pinMode+0x254>
    20fa:	ba 01       	movw	r22, r20
    20fc:	62 2b       	or	r22, r18
    20fe:	60 83       	st	Z, r22
    2100:	08 95       	ret
    2102:	e7 e0       	ldi	r30, 0x07	; 7
    2104:	f1 e0       	ldi	r31, 0x01	; 1
    2106:	20 81       	ld	r18, Z
    2108:	81 e0       	ldi	r24, 0x01	; 1
    210a:	90 e0       	ldi	r25, 0x00	; 0
    210c:	ac 01       	movw	r20, r24
    210e:	02 c0       	rjmp	.+4      	; 0x2114 <pinMode+0x276>
    2110:	44 0f       	add	r20, r20
    2112:	55 1f       	adc	r21, r21
    2114:	6a 95       	dec	r22
    2116:	e2 f7       	brpl	.-8      	; 0x2110 <pinMode+0x272>
    2118:	ba 01       	movw	r22, r20
    211a:	60 95       	com	r22
    211c:	62 23       	and	r22, r18
    211e:	60 83       	st	Z, r22
    2120:	08 95       	ret
    2122:	8b 30       	cpi	r24, 0x0B	; 11
    2124:	01 f5       	brne	.+64     	; 0x2166 <pinMode+0x2c8>
    2126:	44 23       	and	r20, r20
    2128:	79 f0       	breq	.+30     	; 0x2148 <pinMode+0x2aa>
    212a:	ea e0       	ldi	r30, 0x0A	; 10
    212c:	f1 e0       	ldi	r31, 0x01	; 1
    212e:	20 81       	ld	r18, Z
    2130:	81 e0       	ldi	r24, 0x01	; 1
    2132:	90 e0       	ldi	r25, 0x00	; 0
    2134:	ac 01       	movw	r20, r24
    2136:	02 c0       	rjmp	.+4      	; 0x213c <pinMode+0x29e>
    2138:	44 0f       	add	r20, r20
    213a:	55 1f       	adc	r21, r21
    213c:	6a 95       	dec	r22
    213e:	e2 f7       	brpl	.-8      	; 0x2138 <pinMode+0x29a>
    2140:	ba 01       	movw	r22, r20
    2142:	62 2b       	or	r22, r18
    2144:	60 83       	st	Z, r22
    2146:	08 95       	ret
    2148:	ea e0       	ldi	r30, 0x0A	; 10
    214a:	f1 e0       	ldi	r31, 0x01	; 1
    214c:	20 81       	ld	r18, Z
    214e:	81 e0       	ldi	r24, 0x01	; 1
    2150:	90 e0       	ldi	r25, 0x00	; 0
    2152:	ac 01       	movw	r20, r24
    2154:	02 c0       	rjmp	.+4      	; 0x215a <pinMode+0x2bc>
    2156:	44 0f       	add	r20, r20
    2158:	55 1f       	adc	r21, r21
    215a:	6a 95       	dec	r22
    215c:	e2 f7       	brpl	.-8      	; 0x2156 <pinMode+0x2b8>
    215e:	ba 01       	movw	r22, r20
    2160:	60 95       	com	r22
    2162:	62 23       	and	r22, r18
    2164:	60 83       	st	Z, r22
    2166:	08 95       	ret

00002168 <digitalWrite>:
    2168:	88 23       	and	r24, r24
    216a:	e9 f4       	brne	.+58     	; 0x21a6 <digitalWrite+0x3e>
    216c:	44 23       	and	r20, r20
    216e:	69 f0       	breq	.+26     	; 0x218a <digitalWrite+0x22>
    2170:	22 b1       	in	r18, 0x02	; 2
    2172:	81 e0       	ldi	r24, 0x01	; 1
    2174:	90 e0       	ldi	r25, 0x00	; 0
    2176:	ac 01       	movw	r20, r24
    2178:	02 c0       	rjmp	.+4      	; 0x217e <digitalWrite+0x16>
    217a:	44 0f       	add	r20, r20
    217c:	55 1f       	adc	r21, r21
    217e:	6a 95       	dec	r22
    2180:	e2 f7       	brpl	.-8      	; 0x217a <digitalWrite+0x12>
    2182:	ba 01       	movw	r22, r20
    2184:	62 2b       	or	r22, r18
    2186:	62 b9       	out	0x02, r22	; 2
    2188:	08 95       	ret
    218a:	22 b1       	in	r18, 0x02	; 2
    218c:	81 e0       	ldi	r24, 0x01	; 1
    218e:	90 e0       	ldi	r25, 0x00	; 0
    2190:	ac 01       	movw	r20, r24
    2192:	02 c0       	rjmp	.+4      	; 0x2198 <digitalWrite+0x30>
    2194:	44 0f       	add	r20, r20
    2196:	55 1f       	adc	r21, r21
    2198:	6a 95       	dec	r22
    219a:	e2 f7       	brpl	.-8      	; 0x2194 <digitalWrite+0x2c>
    219c:	ba 01       	movw	r22, r20
    219e:	60 95       	com	r22
    21a0:	62 23       	and	r22, r18
    21a2:	62 b9       	out	0x02, r22	; 2
    21a4:	08 95       	ret
    21a6:	81 30       	cpi	r24, 0x01	; 1
    21a8:	e9 f4       	brne	.+58     	; 0x21e4 <digitalWrite+0x7c>
    21aa:	44 23       	and	r20, r20
    21ac:	69 f0       	breq	.+26     	; 0x21c8 <digitalWrite+0x60>
    21ae:	25 b1       	in	r18, 0x05	; 5
    21b0:	81 e0       	ldi	r24, 0x01	; 1
    21b2:	90 e0       	ldi	r25, 0x00	; 0
    21b4:	ac 01       	movw	r20, r24
    21b6:	02 c0       	rjmp	.+4      	; 0x21bc <digitalWrite+0x54>
    21b8:	44 0f       	add	r20, r20
    21ba:	55 1f       	adc	r21, r21
    21bc:	6a 95       	dec	r22
    21be:	e2 f7       	brpl	.-8      	; 0x21b8 <digitalWrite+0x50>
    21c0:	ba 01       	movw	r22, r20
    21c2:	62 2b       	or	r22, r18
    21c4:	65 b9       	out	0x05, r22	; 5
    21c6:	08 95       	ret
    21c8:	25 b1       	in	r18, 0x05	; 5
    21ca:	81 e0       	ldi	r24, 0x01	; 1
    21cc:	90 e0       	ldi	r25, 0x00	; 0
    21ce:	ac 01       	movw	r20, r24
    21d0:	02 c0       	rjmp	.+4      	; 0x21d6 <digitalWrite+0x6e>
    21d2:	44 0f       	add	r20, r20
    21d4:	55 1f       	adc	r21, r21
    21d6:	6a 95       	dec	r22
    21d8:	e2 f7       	brpl	.-8      	; 0x21d2 <digitalWrite+0x6a>
    21da:	ba 01       	movw	r22, r20
    21dc:	60 95       	com	r22
    21de:	62 23       	and	r22, r18
    21e0:	65 b9       	out	0x05, r22	; 5
    21e2:	08 95       	ret
    21e4:	82 30       	cpi	r24, 0x02	; 2
    21e6:	e9 f4       	brne	.+58     	; 0x2222 <__stack+0x23>
    21e8:	44 23       	and	r20, r20
    21ea:	69 f0       	breq	.+26     	; 0x2206 <__stack+0x7>
    21ec:	28 b1       	in	r18, 0x08	; 8
    21ee:	81 e0       	ldi	r24, 0x01	; 1
    21f0:	90 e0       	ldi	r25, 0x00	; 0
    21f2:	ac 01       	movw	r20, r24
    21f4:	02 c0       	rjmp	.+4      	; 0x21fa <digitalWrite+0x92>
    21f6:	44 0f       	add	r20, r20
    21f8:	55 1f       	adc	r21, r21
    21fa:	6a 95       	dec	r22
    21fc:	e2 f7       	brpl	.-8      	; 0x21f6 <digitalWrite+0x8e>
    21fe:	ba 01       	movw	r22, r20
    2200:	62 2b       	or	r22, r18
    2202:	68 b9       	out	0x08, r22	; 8
    2204:	08 95       	ret
    2206:	28 b1       	in	r18, 0x08	; 8
    2208:	81 e0       	ldi	r24, 0x01	; 1
    220a:	90 e0       	ldi	r25, 0x00	; 0
    220c:	ac 01       	movw	r20, r24
    220e:	02 c0       	rjmp	.+4      	; 0x2214 <__stack+0x15>
    2210:	44 0f       	add	r20, r20
    2212:	55 1f       	adc	r21, r21
    2214:	6a 95       	dec	r22
    2216:	e2 f7       	brpl	.-8      	; 0x2210 <__stack+0x11>
    2218:	ba 01       	movw	r22, r20
    221a:	60 95       	com	r22
    221c:	62 23       	and	r22, r18
    221e:	68 b9       	out	0x08, r22	; 8
    2220:	08 95       	ret
    2222:	83 30       	cpi	r24, 0x03	; 3
    2224:	e9 f4       	brne	.+58     	; 0x2260 <__stack+0x61>
    2226:	44 23       	and	r20, r20
    2228:	69 f0       	breq	.+26     	; 0x2244 <__stack+0x45>
    222a:	2b b1       	in	r18, 0x0b	; 11
    222c:	81 e0       	ldi	r24, 0x01	; 1
    222e:	90 e0       	ldi	r25, 0x00	; 0
    2230:	ac 01       	movw	r20, r24
    2232:	02 c0       	rjmp	.+4      	; 0x2238 <__stack+0x39>
    2234:	44 0f       	add	r20, r20
    2236:	55 1f       	adc	r21, r21
    2238:	6a 95       	dec	r22
    223a:	e2 f7       	brpl	.-8      	; 0x2234 <__stack+0x35>
    223c:	ba 01       	movw	r22, r20
    223e:	62 2b       	or	r22, r18
    2240:	6b b9       	out	0x0b, r22	; 11
    2242:	08 95       	ret
    2244:	2b b1       	in	r18, 0x0b	; 11
    2246:	81 e0       	ldi	r24, 0x01	; 1
    2248:	90 e0       	ldi	r25, 0x00	; 0
    224a:	ac 01       	movw	r20, r24
    224c:	02 c0       	rjmp	.+4      	; 0x2252 <__stack+0x53>
    224e:	44 0f       	add	r20, r20
    2250:	55 1f       	adc	r21, r21
    2252:	6a 95       	dec	r22
    2254:	e2 f7       	brpl	.-8      	; 0x224e <__stack+0x4f>
    2256:	ba 01       	movw	r22, r20
    2258:	60 95       	com	r22
    225a:	62 23       	and	r22, r18
    225c:	6b b9       	out	0x0b, r22	; 11
    225e:	08 95       	ret
    2260:	84 30       	cpi	r24, 0x04	; 4
    2262:	e9 f4       	brne	.+58     	; 0x229e <__stack+0x9f>
    2264:	44 23       	and	r20, r20
    2266:	69 f0       	breq	.+26     	; 0x2282 <__stack+0x83>
    2268:	2e b1       	in	r18, 0x0e	; 14
    226a:	81 e0       	ldi	r24, 0x01	; 1
    226c:	90 e0       	ldi	r25, 0x00	; 0
    226e:	ac 01       	movw	r20, r24
    2270:	02 c0       	rjmp	.+4      	; 0x2276 <__stack+0x77>
    2272:	44 0f       	add	r20, r20
    2274:	55 1f       	adc	r21, r21
    2276:	6a 95       	dec	r22
    2278:	e2 f7       	brpl	.-8      	; 0x2272 <__stack+0x73>
    227a:	ba 01       	movw	r22, r20
    227c:	62 2b       	or	r22, r18
    227e:	6e b9       	out	0x0e, r22	; 14
    2280:	08 95       	ret
    2282:	2e b1       	in	r18, 0x0e	; 14
    2284:	81 e0       	ldi	r24, 0x01	; 1
    2286:	90 e0       	ldi	r25, 0x00	; 0
    2288:	ac 01       	movw	r20, r24
    228a:	02 c0       	rjmp	.+4      	; 0x2290 <__stack+0x91>
    228c:	44 0f       	add	r20, r20
    228e:	55 1f       	adc	r21, r21
    2290:	6a 95       	dec	r22
    2292:	e2 f7       	brpl	.-8      	; 0x228c <__stack+0x8d>
    2294:	ba 01       	movw	r22, r20
    2296:	60 95       	com	r22
    2298:	62 23       	and	r22, r18
    229a:	6e b9       	out	0x0e, r22	; 14
    229c:	08 95       	ret
    229e:	85 30       	cpi	r24, 0x05	; 5
    22a0:	e9 f4       	brne	.+58     	; 0x22dc <__stack+0xdd>
    22a2:	44 23       	and	r20, r20
    22a4:	69 f0       	breq	.+26     	; 0x22c0 <__stack+0xc1>
    22a6:	21 b3       	in	r18, 0x11	; 17
    22a8:	81 e0       	ldi	r24, 0x01	; 1
    22aa:	90 e0       	ldi	r25, 0x00	; 0
    22ac:	ac 01       	movw	r20, r24
    22ae:	02 c0       	rjmp	.+4      	; 0x22b4 <__stack+0xb5>
    22b0:	44 0f       	add	r20, r20
    22b2:	55 1f       	adc	r21, r21
    22b4:	6a 95       	dec	r22
    22b6:	e2 f7       	brpl	.-8      	; 0x22b0 <__stack+0xb1>
    22b8:	ba 01       	movw	r22, r20
    22ba:	62 2b       	or	r22, r18
    22bc:	61 bb       	out	0x11, r22	; 17
    22be:	08 95       	ret
    22c0:	21 b3       	in	r18, 0x11	; 17
    22c2:	81 e0       	ldi	r24, 0x01	; 1
    22c4:	90 e0       	ldi	r25, 0x00	; 0
    22c6:	ac 01       	movw	r20, r24
    22c8:	02 c0       	rjmp	.+4      	; 0x22ce <__stack+0xcf>
    22ca:	44 0f       	add	r20, r20
    22cc:	55 1f       	adc	r21, r21
    22ce:	6a 95       	dec	r22
    22d0:	e2 f7       	brpl	.-8      	; 0x22ca <__stack+0xcb>
    22d2:	ba 01       	movw	r22, r20
    22d4:	60 95       	com	r22
    22d6:	62 23       	and	r22, r18
    22d8:	61 bb       	out	0x11, r22	; 17
    22da:	08 95       	ret
    22dc:	86 30       	cpi	r24, 0x06	; 6
    22de:	e9 f4       	brne	.+58     	; 0x231a <__stack+0x11b>
    22e0:	44 23       	and	r20, r20
    22e2:	69 f0       	breq	.+26     	; 0x22fe <__stack+0xff>
    22e4:	24 b3       	in	r18, 0x14	; 20
    22e6:	81 e0       	ldi	r24, 0x01	; 1
    22e8:	90 e0       	ldi	r25, 0x00	; 0
    22ea:	ac 01       	movw	r20, r24
    22ec:	02 c0       	rjmp	.+4      	; 0x22f2 <__stack+0xf3>
    22ee:	44 0f       	add	r20, r20
    22f0:	55 1f       	adc	r21, r21
    22f2:	6a 95       	dec	r22
    22f4:	e2 f7       	brpl	.-8      	; 0x22ee <__stack+0xef>
    22f6:	ba 01       	movw	r22, r20
    22f8:	62 2b       	or	r22, r18
    22fa:	64 bb       	out	0x14, r22	; 20
    22fc:	08 95       	ret
    22fe:	24 b3       	in	r18, 0x14	; 20
    2300:	81 e0       	ldi	r24, 0x01	; 1
    2302:	90 e0       	ldi	r25, 0x00	; 0
    2304:	ac 01       	movw	r20, r24
    2306:	02 c0       	rjmp	.+4      	; 0x230c <__stack+0x10d>
    2308:	44 0f       	add	r20, r20
    230a:	55 1f       	adc	r21, r21
    230c:	6a 95       	dec	r22
    230e:	e2 f7       	brpl	.-8      	; 0x2308 <__stack+0x109>
    2310:	ba 01       	movw	r22, r20
    2312:	60 95       	com	r22
    2314:	62 23       	and	r22, r18
    2316:	64 bb       	out	0x14, r22	; 20
    2318:	08 95       	ret
    231a:	87 30       	cpi	r24, 0x07	; 7
    231c:	09 f5       	brne	.+66     	; 0x2360 <__stack+0x161>
    231e:	44 23       	and	r20, r20
    2320:	79 f0       	breq	.+30     	; 0x2340 <__stack+0x141>
    2322:	e2 e0       	ldi	r30, 0x02	; 2
    2324:	f1 e0       	ldi	r31, 0x01	; 1
    2326:	20 81       	ld	r18, Z
    2328:	81 e0       	ldi	r24, 0x01	; 1
    232a:	90 e0       	ldi	r25, 0x00	; 0
    232c:	ac 01       	movw	r20, r24
    232e:	02 c0       	rjmp	.+4      	; 0x2334 <__stack+0x135>
    2330:	44 0f       	add	r20, r20
    2332:	55 1f       	adc	r21, r21
    2334:	6a 95       	dec	r22
    2336:	e2 f7       	brpl	.-8      	; 0x2330 <__stack+0x131>
    2338:	ba 01       	movw	r22, r20
    233a:	62 2b       	or	r22, r18
    233c:	60 83       	st	Z, r22
    233e:	08 95       	ret
    2340:	e2 e0       	ldi	r30, 0x02	; 2
    2342:	f1 e0       	ldi	r31, 0x01	; 1
    2344:	20 81       	ld	r18, Z
    2346:	81 e0       	ldi	r24, 0x01	; 1
    2348:	90 e0       	ldi	r25, 0x00	; 0
    234a:	ac 01       	movw	r20, r24
    234c:	02 c0       	rjmp	.+4      	; 0x2352 <__stack+0x153>
    234e:	44 0f       	add	r20, r20
    2350:	55 1f       	adc	r21, r21
    2352:	6a 95       	dec	r22
    2354:	e2 f7       	brpl	.-8      	; 0x234e <__stack+0x14f>
    2356:	ba 01       	movw	r22, r20
    2358:	60 95       	com	r22
    235a:	62 23       	and	r22, r18
    235c:	60 83       	st	Z, r22
    235e:	08 95       	ret
    2360:	89 30       	cpi	r24, 0x09	; 9
    2362:	09 f5       	brne	.+66     	; 0x23a6 <__stack+0x1a7>
    2364:	44 23       	and	r20, r20
    2366:	79 f0       	breq	.+30     	; 0x2386 <__stack+0x187>
    2368:	e5 e0       	ldi	r30, 0x05	; 5
    236a:	f1 e0       	ldi	r31, 0x01	; 1
    236c:	20 81       	ld	r18, Z
    236e:	81 e0       	ldi	r24, 0x01	; 1
    2370:	90 e0       	ldi	r25, 0x00	; 0
    2372:	ac 01       	movw	r20, r24
    2374:	02 c0       	rjmp	.+4      	; 0x237a <__stack+0x17b>
    2376:	44 0f       	add	r20, r20
    2378:	55 1f       	adc	r21, r21
    237a:	6a 95       	dec	r22
    237c:	e2 f7       	brpl	.-8      	; 0x2376 <__stack+0x177>
    237e:	ba 01       	movw	r22, r20
    2380:	62 2b       	or	r22, r18
    2382:	60 83       	st	Z, r22
    2384:	08 95       	ret
    2386:	e5 e0       	ldi	r30, 0x05	; 5
    2388:	f1 e0       	ldi	r31, 0x01	; 1
    238a:	20 81       	ld	r18, Z
    238c:	81 e0       	ldi	r24, 0x01	; 1
    238e:	90 e0       	ldi	r25, 0x00	; 0
    2390:	ac 01       	movw	r20, r24
    2392:	02 c0       	rjmp	.+4      	; 0x2398 <__stack+0x199>
    2394:	44 0f       	add	r20, r20
    2396:	55 1f       	adc	r21, r21
    2398:	6a 95       	dec	r22
    239a:	e2 f7       	brpl	.-8      	; 0x2394 <__stack+0x195>
    239c:	ba 01       	movw	r22, r20
    239e:	60 95       	com	r22
    23a0:	62 23       	and	r22, r18
    23a2:	60 83       	st	Z, r22
    23a4:	08 95       	ret
    23a6:	8a 30       	cpi	r24, 0x0A	; 10
    23a8:	09 f5       	brne	.+66     	; 0x23ec <__stack+0x1ed>
    23aa:	44 23       	and	r20, r20
    23ac:	79 f0       	breq	.+30     	; 0x23cc <__stack+0x1cd>
    23ae:	e8 e0       	ldi	r30, 0x08	; 8
    23b0:	f1 e0       	ldi	r31, 0x01	; 1
    23b2:	20 81       	ld	r18, Z
    23b4:	81 e0       	ldi	r24, 0x01	; 1
    23b6:	90 e0       	ldi	r25, 0x00	; 0
    23b8:	ac 01       	movw	r20, r24
    23ba:	02 c0       	rjmp	.+4      	; 0x23c0 <__stack+0x1c1>
    23bc:	44 0f       	add	r20, r20
    23be:	55 1f       	adc	r21, r21
    23c0:	6a 95       	dec	r22
    23c2:	e2 f7       	brpl	.-8      	; 0x23bc <__stack+0x1bd>
    23c4:	ba 01       	movw	r22, r20
    23c6:	62 2b       	or	r22, r18
    23c8:	60 83       	st	Z, r22
    23ca:	08 95       	ret
    23cc:	e8 e0       	ldi	r30, 0x08	; 8
    23ce:	f1 e0       	ldi	r31, 0x01	; 1
    23d0:	20 81       	ld	r18, Z
    23d2:	81 e0       	ldi	r24, 0x01	; 1
    23d4:	90 e0       	ldi	r25, 0x00	; 0
    23d6:	ac 01       	movw	r20, r24
    23d8:	02 c0       	rjmp	.+4      	; 0x23de <__stack+0x1df>
    23da:	44 0f       	add	r20, r20
    23dc:	55 1f       	adc	r21, r21
    23de:	6a 95       	dec	r22
    23e0:	e2 f7       	brpl	.-8      	; 0x23da <__stack+0x1db>
    23e2:	ba 01       	movw	r22, r20
    23e4:	60 95       	com	r22
    23e6:	62 23       	and	r22, r18
    23e8:	60 83       	st	Z, r22
    23ea:	08 95       	ret
    23ec:	8b 30       	cpi	r24, 0x0B	; 11
    23ee:	01 f5       	brne	.+64     	; 0x2430 <__stack+0x231>
    23f0:	44 23       	and	r20, r20
    23f2:	79 f0       	breq	.+30     	; 0x2412 <__stack+0x213>
    23f4:	eb e0       	ldi	r30, 0x0B	; 11
    23f6:	f1 e0       	ldi	r31, 0x01	; 1
    23f8:	20 81       	ld	r18, Z
    23fa:	81 e0       	ldi	r24, 0x01	; 1
    23fc:	90 e0       	ldi	r25, 0x00	; 0
    23fe:	ac 01       	movw	r20, r24
    2400:	02 c0       	rjmp	.+4      	; 0x2406 <__stack+0x207>
    2402:	44 0f       	add	r20, r20
    2404:	55 1f       	adc	r21, r21
    2406:	6a 95       	dec	r22
    2408:	e2 f7       	brpl	.-8      	; 0x2402 <__stack+0x203>
    240a:	ba 01       	movw	r22, r20
    240c:	62 2b       	or	r22, r18
    240e:	60 83       	st	Z, r22
    2410:	08 95       	ret
    2412:	eb e0       	ldi	r30, 0x0B	; 11
    2414:	f1 e0       	ldi	r31, 0x01	; 1
    2416:	20 81       	ld	r18, Z
    2418:	81 e0       	ldi	r24, 0x01	; 1
    241a:	90 e0       	ldi	r25, 0x00	; 0
    241c:	ac 01       	movw	r20, r24
    241e:	02 c0       	rjmp	.+4      	; 0x2424 <__stack+0x225>
    2420:	44 0f       	add	r20, r20
    2422:	55 1f       	adc	r21, r21
    2424:	6a 95       	dec	r22
    2426:	e2 f7       	brpl	.-8      	; 0x2420 <__stack+0x221>
    2428:	ba 01       	movw	r22, r20
    242a:	60 95       	com	r22
    242c:	62 23       	and	r22, r18
    242e:	60 83       	st	Z, r22
    2430:	08 95       	ret

00002432 <digitalRead>:
    2432:	88 23       	and	r24, r24
    2434:	59 f4       	brne	.+22     	; 0x244c <digitalRead+0x1a>
    2436:	20 b1       	in	r18, 0x00	; 0
    2438:	30 e0       	ldi	r19, 0x00	; 0
    243a:	c9 01       	movw	r24, r18
    243c:	02 c0       	rjmp	.+4      	; 0x2442 <digitalRead+0x10>
    243e:	95 95       	asr	r25
    2440:	87 95       	ror	r24
    2442:	6a 95       	dec	r22
    2444:	e2 f7       	brpl	.-8      	; 0x243e <digitalRead+0xc>
    2446:	98 2f       	mov	r25, r24
    2448:	91 70       	andi	r25, 0x01	; 1
    244a:	7b c0       	rjmp	.+246    	; 0x2542 <digitalRead+0x110>
    244c:	81 30       	cpi	r24, 0x01	; 1
    244e:	59 f4       	brne	.+22     	; 0x2466 <digitalRead+0x34>
    2450:	23 b1       	in	r18, 0x03	; 3
    2452:	30 e0       	ldi	r19, 0x00	; 0
    2454:	c9 01       	movw	r24, r18
    2456:	02 c0       	rjmp	.+4      	; 0x245c <digitalRead+0x2a>
    2458:	95 95       	asr	r25
    245a:	87 95       	ror	r24
    245c:	6a 95       	dec	r22
    245e:	e2 f7       	brpl	.-8      	; 0x2458 <digitalRead+0x26>
    2460:	98 2f       	mov	r25, r24
    2462:	91 70       	andi	r25, 0x01	; 1
    2464:	6e c0       	rjmp	.+220    	; 0x2542 <digitalRead+0x110>
    2466:	82 30       	cpi	r24, 0x02	; 2
    2468:	59 f4       	brne	.+22     	; 0x2480 <digitalRead+0x4e>
    246a:	26 b1       	in	r18, 0x06	; 6
    246c:	30 e0       	ldi	r19, 0x00	; 0
    246e:	c9 01       	movw	r24, r18
    2470:	02 c0       	rjmp	.+4      	; 0x2476 <digitalRead+0x44>
    2472:	95 95       	asr	r25
    2474:	87 95       	ror	r24
    2476:	6a 95       	dec	r22
    2478:	e2 f7       	brpl	.-8      	; 0x2472 <digitalRead+0x40>
    247a:	98 2f       	mov	r25, r24
    247c:	91 70       	andi	r25, 0x01	; 1
    247e:	61 c0       	rjmp	.+194    	; 0x2542 <digitalRead+0x110>
    2480:	83 30       	cpi	r24, 0x03	; 3
    2482:	39 f4       	brne	.+14     	; 0x2492 <digitalRead+0x60>
    2484:	89 b1       	in	r24, 0x09	; 9
    2486:	91 e0       	ldi	r25, 0x01	; 1
    2488:	68 17       	cp	r22, r24
    248a:	08 f4       	brcc	.+2      	; 0x248e <digitalRead+0x5c>
    248c:	5a c0       	rjmp	.+180    	; 0x2542 <digitalRead+0x110>
    248e:	90 e0       	ldi	r25, 0x00	; 0
    2490:	58 c0       	rjmp	.+176    	; 0x2542 <digitalRead+0x110>
    2492:	84 30       	cpi	r24, 0x04	; 4
    2494:	59 f4       	brne	.+22     	; 0x24ac <digitalRead+0x7a>
    2496:	2c b1       	in	r18, 0x0c	; 12
    2498:	30 e0       	ldi	r19, 0x00	; 0
    249a:	c9 01       	movw	r24, r18
    249c:	02 c0       	rjmp	.+4      	; 0x24a2 <digitalRead+0x70>
    249e:	95 95       	asr	r25
    24a0:	87 95       	ror	r24
    24a2:	6a 95       	dec	r22
    24a4:	e2 f7       	brpl	.-8      	; 0x249e <digitalRead+0x6c>
    24a6:	98 2f       	mov	r25, r24
    24a8:	91 70       	andi	r25, 0x01	; 1
    24aa:	4b c0       	rjmp	.+150    	; 0x2542 <digitalRead+0x110>
    24ac:	85 30       	cpi	r24, 0x05	; 5
    24ae:	51 f4       	brne	.+20     	; 0x24c4 <digitalRead+0x92>
    24b0:	8f b1       	in	r24, 0x0f	; 15
    24b2:	90 e0       	ldi	r25, 0x00	; 0
    24b4:	02 c0       	rjmp	.+4      	; 0x24ba <digitalRead+0x88>
    24b6:	95 95       	asr	r25
    24b8:	87 95       	ror	r24
    24ba:	6a 95       	dec	r22
    24bc:	e2 f7       	brpl	.-8      	; 0x24b6 <digitalRead+0x84>
    24be:	98 2f       	mov	r25, r24
    24c0:	91 70       	andi	r25, 0x01	; 1
    24c2:	3f c0       	rjmp	.+126    	; 0x2542 <digitalRead+0x110>
    24c4:	86 30       	cpi	r24, 0x06	; 6
    24c6:	51 f4       	brne	.+20     	; 0x24dc <digitalRead+0xaa>
    24c8:	82 b3       	in	r24, 0x12	; 18
    24ca:	90 e0       	ldi	r25, 0x00	; 0
    24cc:	02 c0       	rjmp	.+4      	; 0x24d2 <digitalRead+0xa0>
    24ce:	95 95       	asr	r25
    24d0:	87 95       	ror	r24
    24d2:	6a 95       	dec	r22
    24d4:	e2 f7       	brpl	.-8      	; 0x24ce <digitalRead+0x9c>
    24d6:	98 2f       	mov	r25, r24
    24d8:	91 70       	andi	r25, 0x01	; 1
    24da:	33 c0       	rjmp	.+102    	; 0x2542 <digitalRead+0x110>
    24dc:	87 30       	cpi	r24, 0x07	; 7
    24de:	59 f4       	brne	.+22     	; 0x24f6 <digitalRead+0xc4>
    24e0:	80 91 00 01 	lds	r24, 0x0100
    24e4:	90 e0       	ldi	r25, 0x00	; 0
    24e6:	02 c0       	rjmp	.+4      	; 0x24ec <digitalRead+0xba>
    24e8:	95 95       	asr	r25
    24ea:	87 95       	ror	r24
    24ec:	6a 95       	dec	r22
    24ee:	e2 f7       	brpl	.-8      	; 0x24e8 <digitalRead+0xb6>
    24f0:	98 2f       	mov	r25, r24
    24f2:	91 70       	andi	r25, 0x01	; 1
    24f4:	26 c0       	rjmp	.+76     	; 0x2542 <digitalRead+0x110>
    24f6:	89 30       	cpi	r24, 0x09	; 9
    24f8:	59 f4       	brne	.+22     	; 0x2510 <digitalRead+0xde>
    24fa:	80 91 03 01 	lds	r24, 0x0103
    24fe:	90 e0       	ldi	r25, 0x00	; 0
    2500:	02 c0       	rjmp	.+4      	; 0x2506 <digitalRead+0xd4>
    2502:	95 95       	asr	r25
    2504:	87 95       	ror	r24
    2506:	6a 95       	dec	r22
    2508:	e2 f7       	brpl	.-8      	; 0x2502 <digitalRead+0xd0>
    250a:	98 2f       	mov	r25, r24
    250c:	91 70       	andi	r25, 0x01	; 1
    250e:	19 c0       	rjmp	.+50     	; 0x2542 <digitalRead+0x110>
    2510:	8a 30       	cpi	r24, 0x0A	; 10
    2512:	59 f4       	brne	.+22     	; 0x252a <digitalRead+0xf8>
    2514:	80 91 06 01 	lds	r24, 0x0106
    2518:	90 e0       	ldi	r25, 0x00	; 0
    251a:	02 c0       	rjmp	.+4      	; 0x2520 <digitalRead+0xee>
    251c:	95 95       	asr	r25
    251e:	87 95       	ror	r24
    2520:	6a 95       	dec	r22
    2522:	e2 f7       	brpl	.-8      	; 0x251c <digitalRead+0xea>
    2524:	98 2f       	mov	r25, r24
    2526:	91 70       	andi	r25, 0x01	; 1
    2528:	0c c0       	rjmp	.+24     	; 0x2542 <digitalRead+0x110>
    252a:	8b 30       	cpi	r24, 0x0B	; 11
    252c:	51 f4       	brne	.+20     	; 0x2542 <digitalRead+0x110>
    252e:	80 91 09 01 	lds	r24, 0x0109
    2532:	90 e0       	ldi	r25, 0x00	; 0
    2534:	02 c0       	rjmp	.+4      	; 0x253a <digitalRead+0x108>
    2536:	95 95       	asr	r25
    2538:	87 95       	ror	r24
    253a:	6a 95       	dec	r22
    253c:	e2 f7       	brpl	.-8      	; 0x2536 <digitalRead+0x104>
    253e:	98 2f       	mov	r25, r24
    2540:	91 70       	andi	r25, 0x01	; 1
    2542:	89 2f       	mov	r24, r25
    2544:	90 e0       	ldi	r25, 0x00	; 0
    2546:	08 95       	ret

00002548 <LED_Init>:

#include "led.h"
#include "gpio.h"

void LED_Init (int ledPort, int ledPin)
{
    2548:	cf 93       	push	r28
    254a:	df 93       	push	r29
    254c:	d8 2f       	mov	r29, r24
    254e:	c6 2f       	mov	r28, r22
	pinMode(ledPort, ledPin, OUTPUT);		//LED PORT Set
    2550:	41 e0       	ldi	r20, 0x01	; 1
    2552:	0e 94 4f 0f 	call	0x1e9e	; 0x1e9e <pinMode>
	digitalWrite(ledPort, ledPin, LOW);		//LED OFF
    2556:	8d 2f       	mov	r24, r29
    2558:	6c 2f       	mov	r22, r28
    255a:	40 e0       	ldi	r20, 0x00	; 0
    255c:	0e 94 b4 10 	call	0x2168	; 0x2168 <digitalWrite>
}
    2560:	df 91       	pop	r29
    2562:	cf 91       	pop	r28
    2564:	08 95       	ret

00002566 <controlLED>:

// ledStatus : HIGH or LOW
void controlLED (int ledPort, int ledPin, int ledStatus)
{
	if(ledStatus)
    2566:	41 15       	cp	r20, r1
    2568:	51 05       	cpc	r21, r1
    256a:	21 f0       	breq	.+8      	; 0x2574 <controlLED+0xe>
	{
		digitalWrite(ledPort,ledPin,HIGH);		//LED ON
    256c:	41 e0       	ldi	r20, 0x01	; 1
    256e:	0e 94 b4 10 	call	0x2168	; 0x2168 <digitalWrite>
    2572:	08 95       	ret
	}
	else
	{
		digitalWrite(ledPort,ledPin,LOW);		//LED OFF
    2574:	40 e0       	ldi	r20, 0x00	; 0
    2576:	0e 94 b4 10 	call	0x2168	; 0x2168 <digitalWrite>
    257a:	08 95       	ret

0000257c <Motor_Action>:
#include "motor.h"


void Motor_Action (int motion, int direction)
{
	if (motion == MOTOR_ON)			// turn on
    257c:	81 30       	cpi	r24, 0x01	; 1
    257e:	91 05       	cpc	r25, r1
    2580:	e1 f4       	brne	.+56     	; 0x25ba <Motor_Action+0x3e>
	{
		if (direction == CLOCKWISE)
    2582:	61 30       	cpi	r22, 0x01	; 1
    2584:	71 05       	cpc	r23, r1
    2586:	59 f4       	brne	.+22     	; 0x259e <Motor_Action+0x22>
		{
			digitalWrite(MOTOR_PORT, MT_P, HIGH);
    2588:	82 e0       	ldi	r24, 0x02	; 2
    258a:	60 e0       	ldi	r22, 0x00	; 0
    258c:	41 e0       	ldi	r20, 0x01	; 1
    258e:	0e 94 b4 10 	call	0x2168	; 0x2168 <digitalWrite>
			digitalWrite(MOTOR_PORT, MT_N, LOW);
    2592:	82 e0       	ldi	r24, 0x02	; 2
    2594:	61 e0       	ldi	r22, 0x01	; 1
    2596:	40 e0       	ldi	r20, 0x00	; 0
    2598:	0e 94 b4 10 	call	0x2168	; 0x2168 <digitalWrite>
    259c:	08 95       	ret
		}
		else if (direction == COUNTERCLOCKWISE)
    259e:	61 15       	cp	r22, r1
    25a0:	71 05       	cpc	r23, r1
    25a2:	b9 f4       	brne	.+46     	; 0x25d2 <Motor_Action+0x56>
		{
			digitalWrite(MOTOR_PORT, MT_P, LOW);
    25a4:	82 e0       	ldi	r24, 0x02	; 2
    25a6:	60 e0       	ldi	r22, 0x00	; 0
    25a8:	40 e0       	ldi	r20, 0x00	; 0
    25aa:	0e 94 b4 10 	call	0x2168	; 0x2168 <digitalWrite>
			digitalWrite(MOTOR_PORT, MT_N, HIGH);
    25ae:	82 e0       	ldi	r24, 0x02	; 2
    25b0:	61 e0       	ldi	r22, 0x01	; 1
    25b2:	41 e0       	ldi	r20, 0x01	; 1
    25b4:	0e 94 b4 10 	call	0x2168	; 0x2168 <digitalWrite>
    25b8:	08 95       	ret
		}					
	}		
	else if(motion == MOTOR_OFF) 		// turn off
    25ba:	00 97       	sbiw	r24, 0x00	; 0
    25bc:	51 f4       	brne	.+20     	; 0x25d2 <Motor_Action+0x56>
	{
		digitalWrite(MOTOR_PORT, MT_P, LOW);
    25be:	82 e0       	ldi	r24, 0x02	; 2
    25c0:	60 e0       	ldi	r22, 0x00	; 0
    25c2:	40 e0       	ldi	r20, 0x00	; 0
    25c4:	0e 94 b4 10 	call	0x2168	; 0x2168 <digitalWrite>
		digitalWrite(MOTOR_PORT, MT_N, LOW);
    25c8:	82 e0       	ldi	r24, 0x02	; 2
    25ca:	61 e0       	ldi	r22, 0x01	; 1
    25cc:	40 e0       	ldi	r20, 0x00	; 0
    25ce:	0e 94 b4 10 	call	0x2168	; 0x2168 <digitalWrite>
    25d2:	08 95       	ret

000025d4 <Motor_Init>:
{
	int i = 0;

	for(i=0; i<MAX_MOTOR_PIN_NUM; i++)
	{
		pinMode(MOTOR_PORT, i, OUTPUT);
    25d4:	82 e0       	ldi	r24, 0x02	; 2
    25d6:	60 e0       	ldi	r22, 0x00	; 0
    25d8:	41 e0       	ldi	r20, 0x01	; 1
    25da:	0e 94 4f 0f 	call	0x1e9e	; 0x1e9e <pinMode>
		digitalWrite(MOTOR_PORT, i, LOW);
    25de:	82 e0       	ldi	r24, 0x02	; 2
    25e0:	60 e0       	ldi	r22, 0x00	; 0
    25e2:	40 e0       	ldi	r20, 0x00	; 0
    25e4:	0e 94 b4 10 	call	0x2168	; 0x2168 <digitalWrite>
{
	int i = 0;

	for(i=0; i<MAX_MOTOR_PIN_NUM; i++)
	{
		pinMode(MOTOR_PORT, i, OUTPUT);
    25e8:	82 e0       	ldi	r24, 0x02	; 2
    25ea:	61 e0       	ldi	r22, 0x01	; 1
    25ec:	41 e0       	ldi	r20, 0x01	; 1
    25ee:	0e 94 4f 0f 	call	0x1e9e	; 0x1e9e <pinMode>
		digitalWrite(MOTOR_PORT, i, LOW);
    25f2:	82 e0       	ldi	r24, 0x02	; 2
    25f4:	61 e0       	ldi	r22, 0x01	; 1
    25f6:	40 e0       	ldi	r20, 0x00	; 0
    25f8:	0e 94 b4 10 	call	0x2168	; 0x2168 <digitalWrite>
	}	
    25fc:	08 95       	ret

000025fe <createPktHandle>:
    25fe:	2f 92       	push	r2
    2600:	3f 92       	push	r3
    2602:	4f 92       	push	r4
    2604:	5f 92       	push	r5
    2606:	6f 92       	push	r6
    2608:	7f 92       	push	r7
    260a:	8f 92       	push	r8
    260c:	af 92       	push	r10
    260e:	cf 92       	push	r12
    2610:	df 92       	push	r13
    2612:	ef 92       	push	r14
    2614:	ff 92       	push	r15
    2616:	0f 93       	push	r16
    2618:	1f 93       	push	r17
    261a:	cf 93       	push	r28
    261c:	df 93       	push	r29
    261e:	00 d0       	rcall	.+0      	; 0x2620 <createPktHandle+0x22>
    2620:	0f 92       	push	r0
    2622:	cd b7       	in	r28, 0x3d	; 61
    2624:	de b7       	in	r29, 0x3e	; 62
    2626:	2b 01       	movw	r4, r22
    2628:	3c 01       	movw	r6, r24
    262a:	ba 01       	movw	r22, r20
    262c:	a9 01       	movw	r20, r18
    262e:	80 91 ec 05 	lds	r24, 0x05EC
    2632:	90 91 ed 05 	lds	r25, 0x05ED
    2636:	a0 91 ee 05 	lds	r26, 0x05EE
    263a:	b0 91 ef 05 	lds	r27, 0x05EF
    263e:	88 30       	cpi	r24, 0x08	; 8
    2640:	91 05       	cpc	r25, r1
    2642:	a1 05       	cpc	r26, r1
    2644:	b1 05       	cpc	r27, r1
    2646:	08 f0       	brcs	.+2      	; 0x264a <createPktHandle+0x4c>
    2648:	a2 c1       	rjmp	.+836    	; 0x298e <createPktHandle+0x390>
    264a:	80 91 ec 05 	lds	r24, 0x05EC
    264e:	90 91 ed 05 	lds	r25, 0x05ED
    2652:	a0 91 ee 05 	lds	r26, 0x05EE
    2656:	b0 91 ef 05 	lds	r27, 0x05EF
    265a:	89 83       	std	Y+1, r24	; 0x01
    265c:	9a 83       	std	Y+2, r25	; 0x02
    265e:	ab 83       	std	Y+3, r26	; 0x03
    2660:	bc 83       	std	Y+4, r27	; 0x04
    2662:	89 81       	ldd	r24, Y+1	; 0x01
    2664:	9a 81       	ldd	r25, Y+2	; 0x02
    2666:	0f 2e       	mov	r0, r31
    2668:	fa e4       	ldi	r31, 0x4A	; 74
    266a:	2f 2e       	mov	r2, r31
    266c:	33 24       	eor	r3, r3
    266e:	f0 2d       	mov	r31, r0
    2670:	82 9d       	mul	r24, r2
    2672:	90 01       	movw	r18, r0
    2674:	83 9d       	mul	r24, r3
    2676:	30 0d       	add	r19, r0
    2678:	92 9d       	mul	r25, r2
    267a:	30 0d       	add	r19, r0
    267c:	11 24       	eor	r1, r1
    267e:	f9 01       	movw	r30, r18
    2680:	e0 5b       	subi	r30, 0xB0	; 176
    2682:	f1 4f       	sbci	r31, 0xF1	; 241
    2684:	8d ef       	ldi	r24, 0xFD	; 253
    2686:	80 83       	st	Z, r24
    2688:	8e ef       	ldi	r24, 0xFE	; 254
    268a:	81 83       	std	Z+1, r24	; 0x01
    268c:	80 e1       	ldi	r24, 0x10	; 16
    268e:	86 83       	std	Z+6, r24	; 0x06
    2690:	83 e4       	ldi	r24, 0x43	; 67
    2692:	90 e0       	ldi	r25, 0x00	; 0
    2694:	a0 e0       	ldi	r26, 0x00	; 0
    2696:	b0 e0       	ldi	r27, 0x00	; 0
    2698:	82 83       	std	Z+2, r24	; 0x02
    269a:	93 83       	std	Z+3, r25	; 0x03
    269c:	a4 83       	std	Z+4, r26	; 0x04
    269e:	b5 83       	std	Z+5, r27	; 0x05
    26a0:	47 a2       	lds	r20, 0x97
    26a2:	50 a6       	lds	r21, 0xb0
    26a4:	61 a6       	lds	r22, 0xb1
    26a6:	72 a6       	lds	r23, 0xb2
    26a8:	43 87       	std	Z+11, r20	; 0x0b
    26aa:	54 87       	std	Z+12, r21	; 0x0c
    26ac:	65 87       	std	Z+13, r22	; 0x0d
    26ae:	76 87       	std	Z+14, r23	; 0x0e
    26b0:	e7 82       	std	Z+7, r14	; 0x07
    26b2:	f0 86       	std	Z+8, r15	; 0x08
    26b4:	01 87       	std	Z+9, r16	; 0x09
    26b6:	12 87       	std	Z+10, r17	; 0x0a
    26b8:	f9 01       	movw	r30, r18
    26ba:	e5 58       	subi	r30, 0x85	; 133
    26bc:	f1 4f       	sbci	r31, 0xF1	; 241
    26be:	ab ed       	ldi	r26, 0xDB	; 219
    26c0:	b5 e0       	ldi	r27, 0x05	; 5
    26c2:	88 e0       	ldi	r24, 0x08	; 8
    26c4:	0d 90       	ld	r0, X+
    26c6:	01 92       	st	Z+, r0
    26c8:	81 50       	subi	r24, 0x01	; 1
    26ca:	e1 f7       	brne	.-8      	; 0x26c4 <createPktHandle+0xc6>
    26cc:	ec 2d       	mov	r30, r12
    26ce:	fd 2d       	mov	r31, r13
    26d0:	df 01       	movw	r26, r30
    26d2:	0d 90       	ld	r0, X+
    26d4:	00 20       	and	r0, r0
    26d6:	e9 f7       	brne	.-6      	; 0x26d2 <createPktHandle+0xd4>
    26d8:	11 97       	sbiw	r26, 0x01	; 1
    26da:	ad 01       	movw	r20, r26
    26dc:	4e 1b       	sub	r20, r30
    26de:	5f 0b       	sbc	r21, r31
    26e0:	8a e4       	ldi	r24, 0x4A	; 74
    26e2:	90 e0       	ldi	r25, 0x00	; 0
    26e4:	e9 81       	ldd	r30, Y+1	; 0x01
    26e6:	fa 81       	ldd	r31, Y+2	; 0x02
    26e8:	e8 9f       	mul	r30, r24
    26ea:	90 01       	movw	r18, r0
    26ec:	e9 9f       	mul	r30, r25
    26ee:	30 0d       	add	r19, r0
    26f0:	f8 9f       	mul	r31, r24
    26f2:	30 0d       	add	r19, r0
    26f4:	11 24       	eor	r1, r1
    26f6:	2d 59       	subi	r18, 0x9D	; 157
    26f8:	31 4f       	sbci	r19, 0xF1	; 241
    26fa:	84 e1       	ldi	r24, 0x14	; 20
    26fc:	d9 01       	movw	r26, r18
    26fe:	1d 92       	st	X+, r1
    2700:	8a 95       	dec	r24
    2702:	e9 f7       	brne	.-6      	; 0x26fe <createPktHandle+0x100>
    2704:	44 31       	cpi	r20, 0x14	; 20
    2706:	51 05       	cpc	r21, r1
    2708:	b0 f0       	brcs	.+44     	; 0x2736 <createPktHandle+0x138>
    270a:	89 81       	ldd	r24, Y+1	; 0x01
    270c:	9a 81       	ldd	r25, Y+2	; 0x02
    270e:	2a e4       	ldi	r18, 0x4A	; 74
    2710:	30 e0       	ldi	r19, 0x00	; 0
    2712:	82 9f       	mul	r24, r18
    2714:	a0 01       	movw	r20, r0
    2716:	83 9f       	mul	r24, r19
    2718:	50 0d       	add	r21, r0
    271a:	92 9f       	mul	r25, r18
    271c:	50 0d       	add	r21, r0
    271e:	11 24       	eor	r1, r1
    2720:	fa 01       	movw	r30, r20
    2722:	ed 59       	subi	r30, 0x9D	; 157
    2724:	f1 4f       	sbci	r31, 0xF1	; 241
    2726:	ac 2d       	mov	r26, r12
    2728:	bd 2d       	mov	r27, r13
    272a:	84 e1       	ldi	r24, 0x14	; 20
    272c:	0d 90       	ld	r0, X+
    272e:	01 92       	st	Z+, r0
    2730:	81 50       	subi	r24, 0x01	; 1
    2732:	e1 f7       	brne	.-8      	; 0x272c <createPktHandle+0x12e>
    2734:	12 c0       	rjmp	.+36     	; 0x275a <createPktHandle+0x15c>
    2736:	8a e4       	ldi	r24, 0x4A	; 74
    2738:	90 e0       	ldi	r25, 0x00	; 0
    273a:	e9 81       	ldd	r30, Y+1	; 0x01
    273c:	fa 81       	ldd	r31, Y+2	; 0x02
    273e:	e8 9f       	mul	r30, r24
    2740:	90 01       	movw	r18, r0
    2742:	e9 9f       	mul	r30, r25
    2744:	30 0d       	add	r19, r0
    2746:	f8 9f       	mul	r31, r24
    2748:	30 0d       	add	r19, r0
    274a:	11 24       	eor	r1, r1
    274c:	c9 01       	movw	r24, r18
    274e:	8d 59       	subi	r24, 0x9D	; 157
    2750:	91 4f       	sbci	r25, 0xF1	; 241
    2752:	6c 2d       	mov	r22, r12
    2754:	7d 2d       	mov	r23, r13
    2756:	0e 94 6b 1a 	call	0x34d6	; 0x34d6 <memcpy>
    275a:	89 81       	ldd	r24, Y+1	; 0x01
    275c:	9a 81       	ldd	r25, Y+2	; 0x02
    275e:	2a e4       	ldi	r18, 0x4A	; 74
    2760:	30 e0       	ldi	r19, 0x00	; 0
    2762:	82 9f       	mul	r24, r18
    2764:	a0 01       	movw	r20, r0
    2766:	83 9f       	mul	r24, r19
    2768:	50 0d       	add	r21, r0
    276a:	92 9f       	mul	r25, r18
    276c:	50 0d       	add	r21, r0
    276e:	11 24       	eor	r1, r1
    2770:	40 5b       	subi	r20, 0xB0	; 176
    2772:	51 4f       	sbci	r21, 0xF1	; 241
    2774:	da 01       	movw	r26, r20
    2776:	d5 96       	adiw	r26, 0x35	; 53
    2778:	ac 92       	st	X, r10
    277a:	b2 e0       	ldi	r27, 0x02	; 2
    277c:	b8 15       	cp	r27, r8
    277e:	68 f4       	brcc	.+26     	; 0x279a <createPktHandle+0x19c>
    2780:	82 9f       	mul	r24, r18
    2782:	a0 01       	movw	r20, r0
    2784:	83 9f       	mul	r24, r19
    2786:	50 0d       	add	r21, r0
    2788:	92 9f       	mul	r25, r18
    278a:	50 0d       	add	r21, r0
    278c:	11 24       	eor	r1, r1
    278e:	40 5b       	subi	r20, 0xB0	; 176
    2790:	51 4f       	sbci	r21, 0xF1	; 241
    2792:	82 e0       	ldi	r24, 0x02	; 2
    2794:	fa 01       	movw	r30, r20
    2796:	86 ab       	sts	0x56, r24
    2798:	11 c0       	rjmp	.+34     	; 0x27bc <createPktHandle+0x1be>
    279a:	89 81       	ldd	r24, Y+1	; 0x01
    279c:	9a 81       	ldd	r25, Y+2	; 0x02
    279e:	2a e4       	ldi	r18, 0x4A	; 74
    27a0:	30 e0       	ldi	r19, 0x00	; 0
    27a2:	82 9f       	mul	r24, r18
    27a4:	a0 01       	movw	r20, r0
    27a6:	83 9f       	mul	r24, r19
    27a8:	50 0d       	add	r21, r0
    27aa:	92 9f       	mul	r25, r18
    27ac:	50 0d       	add	r21, r0
    27ae:	11 24       	eor	r1, r1
    27b0:	40 5b       	subi	r20, 0xB0	; 176
    27b2:	51 4f       	sbci	r21, 0xF1	; 241
    27b4:	da 01       	movw	r26, r20
    27b6:	d6 96       	adiw	r26, 0x36	; 54
    27b8:	8c 92       	st	X, r8
    27ba:	d6 97       	sbiw	r26, 0x36	; 54
    27bc:	89 81       	ldd	r24, Y+1	; 0x01
    27be:	9a 81       	ldd	r25, Y+2	; 0x02
    27c0:	2a e4       	ldi	r18, 0x4A	; 74
    27c2:	30 e0       	ldi	r19, 0x00	; 0
    27c4:	82 9f       	mul	r24, r18
    27c6:	a0 01       	movw	r20, r0
    27c8:	83 9f       	mul	r24, r19
    27ca:	50 0d       	add	r21, r0
    27cc:	92 9f       	mul	r25, r18
    27ce:	50 0d       	add	r21, r0
    27d0:	11 24       	eor	r1, r1
    27d2:	40 5b       	subi	r20, 0xB0	; 176
    27d4:	51 4f       	sbci	r21, 0xF1	; 241
    27d6:	fa 01       	movw	r30, r20
    27d8:	17 86       	std	Z+15, r1	; 0x0f
    27da:	10 8a       	std	Z+16, r1	; 0x10
    27dc:	11 8a       	std	Z+17, r1	; 0x11
    27de:	12 8a       	std	Z+18, r1	; 0x12
    27e0:	88 20       	and	r8, r8
    27e2:	09 f4       	brne	.+2      	; 0x27e6 <createPktHandle+0x1e8>
    27e4:	b0 c0       	rjmp	.+352    	; 0x2946 <createPktHandle+0x348>
    27e6:	4a e4       	ldi	r20, 0x4A	; 74
    27e8:	50 e0       	ldi	r21, 0x00	; 0
    27ea:	88 8d       	ldd	r24, Y+24	; 0x18
    27ec:	87 ab       	sts	0x57, r24
    27ee:	69 81       	ldd	r22, Y+1	; 0x01
    27f0:	7a 81       	ldd	r23, Y+2	; 0x02
    27f2:	64 9f       	mul	r22, r20
    27f4:	f0 01       	movw	r30, r0
    27f6:	65 9f       	mul	r22, r21
    27f8:	f0 0d       	add	r31, r0
    27fa:	74 9f       	mul	r23, r20
    27fc:	f0 0d       	add	r31, r0
    27fe:	11 24       	eor	r1, r1
    2800:	e8 57       	subi	r30, 0x78	; 120
    2802:	f1 4f       	sbci	r31, 0xF1	; 241
    2804:	10 82       	st	Z, r1
    2806:	11 82       	std	Z+1, r1	; 0x01
    2808:	12 82       	std	Z+2, r1	; 0x02
    280a:	13 82       	std	Z+3, r1	; 0x03
    280c:	e9 8d       	ldd	r30, Y+25	; 0x19
    280e:	fa 8d       	ldd	r31, Y+26	; 0x1a
    2810:	df 01       	movw	r26, r30
    2812:	0d 90       	ld	r0, X+
    2814:	00 20       	and	r0, r0
    2816:	e9 f7       	brne	.-6      	; 0x2812 <createPktHandle+0x214>
    2818:	11 97       	sbiw	r26, 0x01	; 1
    281a:	ae 1b       	sub	r26, r30
    281c:	bf 0b       	sbc	r27, r31
    281e:	a4 30       	cpi	r26, 0x04	; 4
    2820:	b1 05       	cpc	r27, r1
    2822:	c8 f0       	brcs	.+50     	; 0x2856 <createPktHandle+0x258>
    2824:	89 81       	ldd	r24, Y+1	; 0x01
    2826:	9a 81       	ldd	r25, Y+2	; 0x02
    2828:	2a e4       	ldi	r18, 0x4A	; 74
    282a:	30 e0       	ldi	r19, 0x00	; 0
    282c:	82 9f       	mul	r24, r18
    282e:	a0 01       	movw	r20, r0
    2830:	83 9f       	mul	r24, r19
    2832:	50 0d       	add	r21, r0
    2834:	92 9f       	mul	r25, r18
    2836:	50 0d       	add	r21, r0
    2838:	11 24       	eor	r1, r1
    283a:	40 5b       	subi	r20, 0xB0	; 176
    283c:	51 4f       	sbci	r21, 0xF1	; 241
    283e:	e9 8d       	ldd	r30, Y+25	; 0x19
    2840:	fa 8d       	ldd	r31, Y+26	; 0x1a
    2842:	80 81       	ld	r24, Z
    2844:	91 81       	ldd	r25, Z+1	; 0x01
    2846:	a2 81       	ldd	r26, Z+2	; 0x02
    2848:	b3 81       	ldd	r27, Z+3	; 0x03
    284a:	fa 01       	movw	r30, r20
    284c:	80 af       	sts	0x70, r24
    284e:	91 af       	sts	0x71, r25
    2850:	a2 af       	sts	0x72, r26
    2852:	b3 af       	sts	0x73, r27
    2854:	14 c0       	rjmp	.+40     	; 0x287e <createPktHandle+0x280>
    2856:	8a e4       	ldi	r24, 0x4A	; 74
    2858:	90 e0       	ldi	r25, 0x00	; 0
    285a:	49 81       	ldd	r20, Y+1	; 0x01
    285c:	5a 81       	ldd	r21, Y+2	; 0x02
    285e:	48 9f       	mul	r20, r24
    2860:	90 01       	movw	r18, r0
    2862:	49 9f       	mul	r20, r25
    2864:	30 0d       	add	r19, r0
    2866:	58 9f       	mul	r21, r24
    2868:	30 0d       	add	r19, r0
    286a:	11 24       	eor	r1, r1
    286c:	c9 01       	movw	r24, r18
    286e:	88 57       	subi	r24, 0x78	; 120
    2870:	91 4f       	sbci	r25, 0xF1	; 241
    2872:	69 8d       	ldd	r22, Y+25	; 0x19
    2874:	7a 8d       	ldd	r23, Y+26	; 0x1a
    2876:	4a 2f       	mov	r20, r26
    2878:	5b 2f       	mov	r21, r27
    287a:	0e 94 6b 1a 	call	0x34d6	; 0x34d6 <memcpy>
    287e:	51 e0       	ldi	r21, 0x01	; 1
    2880:	58 15       	cp	r21, r8
    2882:	08 f0       	brcs	.+2      	; 0x2886 <createPktHandle+0x288>
    2884:	60 c0       	rjmp	.+192    	; 0x2946 <createPktHandle+0x348>
    2886:	89 81       	ldd	r24, Y+1	; 0x01
    2888:	9a 81       	ldd	r25, Y+2	; 0x02
    288a:	4a e4       	ldi	r20, 0x4A	; 74
    288c:	50 e0       	ldi	r21, 0x00	; 0
    288e:	84 9f       	mul	r24, r20
    2890:	90 01       	movw	r18, r0
    2892:	85 9f       	mul	r24, r21
    2894:	30 0d       	add	r19, r0
    2896:	94 9f       	mul	r25, r20
    2898:	30 0d       	add	r19, r0
    289a:	11 24       	eor	r1, r1
    289c:	20 57       	subi	r18, 0x70	; 112
    289e:	31 4f       	sbci	r19, 0xF1	; 241
    28a0:	8b 8d       	ldd	r24, Y+27	; 0x1b
    28a2:	d9 01       	movw	r26, r18
    28a4:	8c 93       	st	X, r24
    28a6:	69 81       	ldd	r22, Y+1	; 0x01
    28a8:	7a 81       	ldd	r23, Y+2	; 0x02
    28aa:	64 9f       	mul	r22, r20
    28ac:	f0 01       	movw	r30, r0
    28ae:	65 9f       	mul	r22, r21
    28b0:	f0 0d       	add	r31, r0
    28b2:	74 9f       	mul	r23, r20
    28b4:	f0 0d       	add	r31, r0
    28b6:	11 24       	eor	r1, r1
    28b8:	ef 56       	subi	r30, 0x6F	; 111
    28ba:	f1 4f       	sbci	r31, 0xF1	; 241
    28bc:	10 82       	st	Z, r1
    28be:	11 82       	std	Z+1, r1	; 0x01
    28c0:	12 82       	std	Z+2, r1	; 0x02
    28c2:	13 82       	std	Z+3, r1	; 0x03
    28c4:	e9 8d       	ldd	r30, Y+25	; 0x19
    28c6:	fa 8d       	ldd	r31, Y+26	; 0x1a
    28c8:	df 01       	movw	r26, r30
    28ca:	0d 90       	ld	r0, X+
    28cc:	00 20       	and	r0, r0
    28ce:	e9 f7       	brne	.-6      	; 0x28ca <createPktHandle+0x2cc>
    28d0:	11 97       	sbiw	r26, 0x01	; 1
    28d2:	ae 1b       	sub	r26, r30
    28d4:	bf 0b       	sbc	r27, r31
    28d6:	a4 30       	cpi	r26, 0x04	; 4
    28d8:	b1 05       	cpc	r27, r1
    28da:	c8 f0       	brcs	.+50     	; 0x290e <createPktHandle+0x310>
    28dc:	29 81       	ldd	r18, Y+1	; 0x01
    28de:	3a 81       	ldd	r19, Y+2	; 0x02
    28e0:	8a e4       	ldi	r24, 0x4A	; 74
    28e2:	90 e0       	ldi	r25, 0x00	; 0
    28e4:	28 9f       	mul	r18, r24
    28e6:	a0 01       	movw	r20, r0
    28e8:	29 9f       	mul	r18, r25
    28ea:	50 0d       	add	r21, r0
    28ec:	38 9f       	mul	r19, r24
    28ee:	50 0d       	add	r21, r0
    28f0:	11 24       	eor	r1, r1
    28f2:	4f 56       	subi	r20, 0x6F	; 111
    28f4:	51 4f       	sbci	r21, 0xF1	; 241
    28f6:	ec 8d       	ldd	r30, Y+28	; 0x1c
    28f8:	fd 8d       	ldd	r31, Y+29	; 0x1d
    28fa:	80 81       	ld	r24, Z
    28fc:	91 81       	ldd	r25, Z+1	; 0x01
    28fe:	a2 81       	ldd	r26, Z+2	; 0x02
    2900:	b3 81       	ldd	r27, Z+3	; 0x03
    2902:	fa 01       	movw	r30, r20
    2904:	80 83       	st	Z, r24
    2906:	91 83       	std	Z+1, r25	; 0x01
    2908:	a2 83       	std	Z+2, r26	; 0x02
    290a:	b3 83       	std	Z+3, r27	; 0x03
    290c:	1c c0       	rjmp	.+56     	; 0x2946 <createPktHandle+0x348>
    290e:	2a e4       	ldi	r18, 0x4A	; 74
    2910:	30 e0       	ldi	r19, 0x00	; 0
    2912:	49 81       	ldd	r20, Y+1	; 0x01
    2914:	5a 81       	ldd	r21, Y+2	; 0x02
    2916:	42 9f       	mul	r20, r18
    2918:	c0 01       	movw	r24, r0
    291a:	43 9f       	mul	r20, r19
    291c:	90 0d       	add	r25, r0
    291e:	52 9f       	mul	r21, r18
    2920:	90 0d       	add	r25, r0
    2922:	11 24       	eor	r1, r1
    2924:	8f 56       	subi	r24, 0x6F	; 111
    2926:	91 4f       	sbci	r25, 0xF1	; 241
    2928:	ec 8d       	ldd	r30, Y+28	; 0x1c
    292a:	fd 8d       	ldd	r31, Y+29	; 0x1d
    292c:	df 01       	movw	r26, r30
    292e:	0d 90       	ld	r0, X+
    2930:	00 20       	and	r0, r0
    2932:	e9 f7       	brne	.-6      	; 0x292e <createPktHandle+0x330>
    2934:	ad 01       	movw	r20, r26
    2936:	41 50       	subi	r20, 0x01	; 1
    2938:	50 40       	sbci	r21, 0x00	; 0
    293a:	4e 1b       	sub	r20, r30
    293c:	5f 0b       	sbc	r21, r31
    293e:	6e 2f       	mov	r22, r30
    2940:	7f 2f       	mov	r23, r31
    2942:	0e 94 6b 1a 	call	0x34d6	; 0x34d6 <memcpy>
    2946:	49 81       	ldd	r20, Y+1	; 0x01
    2948:	5a 81       	ldd	r21, Y+2	; 0x02
    294a:	2a e4       	ldi	r18, 0x4A	; 74
    294c:	30 e0       	ldi	r19, 0x00	; 0
    294e:	42 9f       	mul	r20, r18
    2950:	c0 01       	movw	r24, r0
    2952:	43 9f       	mul	r20, r19
    2954:	90 0d       	add	r25, r0
    2956:	52 9f       	mul	r21, r18
    2958:	90 0d       	add	r25, r0
    295a:	11 24       	eor	r1, r1
    295c:	87 56       	subi	r24, 0x67	; 103
    295e:	91 4f       	sbci	r25, 0xF1	; 241
    2960:	2f ef       	ldi	r18, 0xFF	; 255
    2962:	fc 01       	movw	r30, r24
    2964:	20 83       	st	Z, r18
    2966:	80 91 ec 05 	lds	r24, 0x05EC
    296a:	90 91 ed 05 	lds	r25, 0x05ED
    296e:	a0 91 ee 05 	lds	r26, 0x05EE
    2972:	b0 91 ef 05 	lds	r27, 0x05EF
    2976:	01 96       	adiw	r24, 0x01	; 1
    2978:	a1 1d       	adc	r26, r1
    297a:	b1 1d       	adc	r27, r1
    297c:	80 93 ec 05 	sts	0x05EC, r24
    2980:	90 93 ed 05 	sts	0x05ED, r25
    2984:	a0 93 ee 05 	sts	0x05EE, r26
    2988:	b0 93 ef 05 	sts	0x05EF, r27
    298c:	07 c0       	rjmp	.+14     	; 0x299c <createPktHandle+0x39e>
    298e:	4f ef       	ldi	r20, 0xFF	; 255
    2990:	5f ef       	ldi	r21, 0xFF	; 255
    2992:	ba 01       	movw	r22, r20
    2994:	49 83       	std	Y+1, r20	; 0x01
    2996:	5a 83       	std	Y+2, r21	; 0x02
    2998:	6b 83       	std	Y+3, r22	; 0x03
    299a:	7c 83       	std	Y+4, r23	; 0x04
    299c:	69 81       	ldd	r22, Y+1	; 0x01
    299e:	7a 81       	ldd	r23, Y+2	; 0x02
    29a0:	8b 81       	ldd	r24, Y+3	; 0x03
    29a2:	9c 81       	ldd	r25, Y+4	; 0x04
    29a4:	0f 90       	pop	r0
    29a6:	0f 90       	pop	r0
    29a8:	0f 90       	pop	r0
    29aa:	0f 90       	pop	r0
    29ac:	df 91       	pop	r29
    29ae:	cf 91       	pop	r28
    29b0:	1f 91       	pop	r17
    29b2:	0f 91       	pop	r16
    29b4:	ff 90       	pop	r15
    29b6:	ef 90       	pop	r14
    29b8:	df 90       	pop	r13
    29ba:	cf 90       	pop	r12
    29bc:	af 90       	pop	r10
    29be:	8f 90       	pop	r8
    29c0:	7f 90       	pop	r7
    29c2:	6f 90       	pop	r6
    29c4:	5f 90       	pop	r5
    29c6:	4f 90       	pop	r4
    29c8:	3f 90       	pop	r3
    29ca:	2f 90       	pop	r2
    29cc:	08 95       	ret

000029ce <makePkt>:
    29ce:	8f 92       	push	r8
    29d0:	9f 92       	push	r9
    29d2:	af 92       	push	r10
    29d4:	bf 92       	push	r11
    29d6:	cf 92       	push	r12
    29d8:	df 92       	push	r13
    29da:	ef 92       	push	r14
    29dc:	ff 92       	push	r15
    29de:	0f 93       	push	r16
    29e0:	1f 93       	push	r17
    29e2:	cf 93       	push	r28
    29e4:	df 93       	push	r29
    29e6:	dc 01       	movw	r26, r24
    29e8:	cb 01       	movw	r24, r22
    29ea:	ea 01       	movw	r28, r20
    29ec:	48 01       	movw	r8, r16
    29ee:	59 01       	movw	r10, r18
    29f0:	40 91 ec 05 	lds	r20, 0x05EC
    29f4:	50 91 ed 05 	lds	r21, 0x05ED
    29f8:	60 91 ee 05 	lds	r22, 0x05EE
    29fc:	70 91 ef 05 	lds	r23, 0x05EF
    2a00:	84 17       	cp	r24, r20
    2a02:	95 07       	cpc	r25, r21
    2a04:	a6 07       	cpc	r26, r22
    2a06:	b7 07       	cpc	r27, r23
    2a08:	10 f5       	brcc	.+68     	; 0x2a4e <makePkt+0x80>
    2a0a:	2a e4       	ldi	r18, 0x4A	; 74
    2a0c:	30 e0       	ldi	r19, 0x00	; 0
    2a0e:	82 9f       	mul	r24, r18
    2a10:	a0 01       	movw	r20, r0
    2a12:	83 9f       	mul	r24, r19
    2a14:	50 0d       	add	r21, r0
    2a16:	92 9f       	mul	r25, r18
    2a18:	50 0d       	add	r21, r0
    2a1a:	11 24       	eor	r1, r1
    2a1c:	fa 01       	movw	r30, r20
    2a1e:	e0 5b       	subi	r30, 0xB0	; 176
    2a20:	f1 4f       	sbci	r31, 0xF1	; 241
    2a22:	84 ae       	sts	0xb4, r24
    2a24:	95 ae       	sts	0xb5, r25
    2a26:	a6 ae       	sts	0xb6, r26
    2a28:	b7 ae       	sts	0xb7, r27
    2a2a:	eb 5b       	subi	r30, 0xBB	; 187
    2a2c:	ff 4f       	sbci	r31, 0xFF	; 255
    2a2e:	c0 82       	st	Z, r12
    2a30:	d1 82       	std	Z+1, r13	; 0x01
    2a32:	e2 82       	std	Z+2, r14	; 0x02
    2a34:	f3 82       	std	Z+3, r15	; 0x03
    2a36:	8a e4       	ldi	r24, 0x4A	; 74
    2a38:	90 e0       	ldi	r25, 0x00	; 0
    2a3a:	a0 e0       	ldi	r26, 0x00	; 0
    2a3c:	b0 e0       	ldi	r27, 0x00	; 0
    2a3e:	88 83       	st	Y, r24
    2a40:	99 83       	std	Y+1, r25	; 0x01
    2a42:	aa 83       	std	Y+2, r26	; 0x02
    2a44:	bb 83       	std	Y+3, r27	; 0x03
    2a46:	ca 01       	movw	r24, r20
    2a48:	80 5b       	subi	r24, 0xB0	; 176
    2a4a:	91 4f       	sbci	r25, 0xF1	; 241
    2a4c:	02 c0       	rjmp	.+4      	; 0x2a52 <makePkt+0x84>
    2a4e:	80 e0       	ldi	r24, 0x00	; 0
    2a50:	90 e0       	ldi	r25, 0x00	; 0
    2a52:	df 91       	pop	r29
    2a54:	cf 91       	pop	r28
    2a56:	1f 91       	pop	r17
    2a58:	0f 91       	pop	r16
    2a5a:	ff 90       	pop	r15
    2a5c:	ef 90       	pop	r14
    2a5e:	df 90       	pop	r13
    2a60:	cf 90       	pop	r12
    2a62:	bf 90       	pop	r11
    2a64:	af 90       	pop	r10
    2a66:	9f 90       	pop	r9
    2a68:	8f 90       	pop	r8
    2a6a:	08 95       	ret

00002a6c <pktParcingActuatorControl>:
    2a6c:	8f 92       	push	r8
    2a6e:	9f 92       	push	r9
    2a70:	af 92       	push	r10
    2a72:	bf 92       	push	r11
    2a74:	ef 92       	push	r14
    2a76:	ff 92       	push	r15
    2a78:	0f 93       	push	r16
    2a7a:	1f 93       	push	r17
    2a7c:	cf 93       	push	r28
    2a7e:	df 93       	push	r29
    2a80:	ec 01       	movw	r28, r24
    2a82:	4a 01       	movw	r8, r20
    2a84:	5b 01       	movw	r10, r22
    2a86:	4a 34       	cpi	r20, 0x4A	; 74
    2a88:	51 05       	cpc	r21, r1
    2a8a:	61 05       	cpc	r22, r1
    2a8c:	71 05       	cpc	r23, r1
    2a8e:	99 f5       	brne	.+102    	; 0x2af6 <pktParcingActuatorControl+0x8a>
    2a90:	88 81       	ld	r24, Y
    2a92:	8d 3f       	cpi	r24, 0xFD	; 253
    2a94:	a9 f5       	brne	.+106    	; 0x2b00 <pktParcingActuatorControl+0x94>
    2a96:	89 81       	ldd	r24, Y+1	; 0x01
    2a98:	8e 3f       	cpi	r24, 0xFE	; 254
    2a9a:	b9 f5       	brne	.+110    	; 0x2b0a <pktParcingActuatorControl+0x9e>
    2a9c:	fe 01       	movw	r30, r28
    2a9e:	e7 5b       	subi	r30, 0xB7	; 183
    2aa0:	ff 4f       	sbci	r31, 0xFF	; 255
    2aa2:	80 81       	ld	r24, Z
    2aa4:	8f 3f       	cpi	r24, 0xFF	; 255
    2aa6:	b1 f5       	brne	.+108    	; 0x2b14 <pktParcingActuatorControl+0xa8>
    2aa8:	8a 81       	ldd	r24, Y+2	; 0x02
    2aaa:	9b 81       	ldd	r25, Y+3	; 0x03
    2aac:	ac 81       	ldd	r26, Y+4	; 0x04
    2aae:	bd 81       	ldd	r27, Y+5	; 0x05
    2ab0:	83 34       	cpi	r24, 0x43	; 67
    2ab2:	91 05       	cpc	r25, r1
    2ab4:	a1 05       	cpc	r26, r1
    2ab6:	b1 05       	cpc	r27, r1
    2ab8:	91 f5       	brne	.+100    	; 0x2b1e <pktParcingActuatorControl+0xb2>
    2aba:	8f 81       	ldd	r24, Y+7	; 0x07
    2abc:	98 85       	ldd	r25, Y+8	; 0x08
    2abe:	a0 e0       	ldi	r26, 0x00	; 0
    2ac0:	b0 e0       	ldi	r27, 0x00	; 0
    2ac2:	f9 01       	movw	r30, r18
    2ac4:	80 83       	st	Z, r24
    2ac6:	91 83       	std	Z+1, r25	; 0x01
    2ac8:	a2 83       	std	Z+2, r26	; 0x02
    2aca:	b3 83       	std	Z+3, r27	; 0x03
    2acc:	8c ad       	sts	0x6c, r24
    2ace:	9d ad       	sts	0x6d, r25
    2ad0:	ae ad       	sts	0x6e, r26
    2ad2:	bf ad       	sts	0x6f, r27
    2ad4:	f8 01       	movw	r30, r16
    2ad6:	80 83       	st	Z, r24
    2ad8:	91 83       	std	Z+1, r25	; 0x01
    2ada:	a2 83       	std	Z+2, r26	; 0x02
    2adc:	b3 83       	std	Z+3, r27	; 0x03
    2ade:	cb 5b       	subi	r28, 0xBB	; 187
    2ae0:	df 4f       	sbci	r29, 0xFF	; 255
    2ae2:	88 81       	ld	r24, Y
    2ae4:	99 81       	ldd	r25, Y+1	; 0x01
    2ae6:	aa 81       	ldd	r26, Y+2	; 0x02
    2ae8:	bb 81       	ldd	r27, Y+3	; 0x03
    2aea:	f7 01       	movw	r30, r14
    2aec:	80 83       	st	Z, r24
    2aee:	91 83       	std	Z+1, r25	; 0x01
    2af0:	a2 83       	std	Z+2, r26	; 0x02
    2af2:	b3 83       	std	Z+3, r27	; 0x03
    2af4:	18 c0       	rjmp	.+48     	; 0x2b26 <pktParcingActuatorControl+0xba>
    2af6:	88 24       	eor	r8, r8
    2af8:	8a 94       	dec	r8
    2afa:	98 2c       	mov	r9, r8
    2afc:	54 01       	movw	r10, r8
    2afe:	13 c0       	rjmp	.+38     	; 0x2b26 <pktParcingActuatorControl+0xba>
    2b00:	88 24       	eor	r8, r8
    2b02:	8a 94       	dec	r8
    2b04:	98 2c       	mov	r9, r8
    2b06:	54 01       	movw	r10, r8
    2b08:	0e c0       	rjmp	.+28     	; 0x2b26 <pktParcingActuatorControl+0xba>
    2b0a:	88 24       	eor	r8, r8
    2b0c:	8a 94       	dec	r8
    2b0e:	98 2c       	mov	r9, r8
    2b10:	54 01       	movw	r10, r8
    2b12:	09 c0       	rjmp	.+18     	; 0x2b26 <pktParcingActuatorControl+0xba>
    2b14:	88 24       	eor	r8, r8
    2b16:	8a 94       	dec	r8
    2b18:	98 2c       	mov	r9, r8
    2b1a:	54 01       	movw	r10, r8
    2b1c:	04 c0       	rjmp	.+8      	; 0x2b26 <pktParcingActuatorControl+0xba>
    2b1e:	88 24       	eor	r8, r8
    2b20:	8a 94       	dec	r8
    2b22:	98 2c       	mov	r9, r8
    2b24:	54 01       	movw	r10, r8
    2b26:	68 2d       	mov	r22, r8
    2b28:	79 2d       	mov	r23, r9
    2b2a:	8a 2d       	mov	r24, r10
    2b2c:	9b 2d       	mov	r25, r11
    2b2e:	df 91       	pop	r29
    2b30:	cf 91       	pop	r28
    2b32:	1f 91       	pop	r17
    2b34:	0f 91       	pop	r16
    2b36:	ff 90       	pop	r15
    2b38:	ef 90       	pop	r14
    2b3a:	bf 90       	pop	r11
    2b3c:	af 90       	pop	r10
    2b3e:	9f 90       	pop	r9
    2b40:	8f 90       	pop	r8
    2b42:	08 95       	ret

00002b44 <getObj_idFromHandler>:
    2b44:	dc 01       	movw	r26, r24
    2b46:	cb 01       	movw	r24, r22
    2b48:	40 91 ec 05 	lds	r20, 0x05EC
    2b4c:	50 91 ed 05 	lds	r21, 0x05ED
    2b50:	60 91 ee 05 	lds	r22, 0x05EE
    2b54:	70 91 ef 05 	lds	r23, 0x05EF
    2b58:	84 17       	cp	r24, r20
    2b5a:	95 07       	cpc	r25, r21
    2b5c:	a6 07       	cpc	r26, r22
    2b5e:	b7 07       	cpc	r27, r23
    2b60:	80 f4       	brcc	.+32     	; 0x2b82 <getObj_idFromHandler+0x3e>
    2b62:	2a e4       	ldi	r18, 0x4A	; 74
    2b64:	30 e0       	ldi	r19, 0x00	; 0
    2b66:	82 9f       	mul	r24, r18
    2b68:	f0 01       	movw	r30, r0
    2b6a:	83 9f       	mul	r24, r19
    2b6c:	f0 0d       	add	r31, r0
    2b6e:	92 9f       	mul	r25, r18
    2b70:	f0 0d       	add	r31, r0
    2b72:	11 24       	eor	r1, r1
    2b74:	e0 5b       	subi	r30, 0xB0	; 176
    2b76:	f1 4f       	sbci	r31, 0xF1	; 241
    2b78:	87 81       	ldd	r24, Z+7	; 0x07
    2b7a:	90 85       	ldd	r25, Z+8	; 0x08
    2b7c:	a1 85       	ldd	r26, Z+9	; 0x09
    2b7e:	b2 85       	ldd	r27, Z+10	; 0x0a
    2b80:	08 95       	ret
    2b82:	8f ef       	ldi	r24, 0xFF	; 255
    2b84:	9f ef       	ldi	r25, 0xFF	; 255
    2b86:	08 95       	ret

00002b88 <I2C_data_input>:
    2b88:	82 e0       	ldi	r24, 0x02	; 2
    2b8a:	61 e0       	ldi	r22, 0x01	; 1
    2b8c:	40 e0       	ldi	r20, 0x00	; 0
    2b8e:	0e 94 4f 0f 	call	0x1e9e	; 0x1e9e <pinMode>
    2b92:	08 95       	ret

00002b94 <I2C_data_output>:
    2b94:	82 e0       	ldi	r24, 0x02	; 2
    2b96:	61 e0       	ldi	r22, 0x01	; 1
    2b98:	41 e0       	ldi	r20, 0x01	; 1
    2b9a:	0e 94 4f 0f 	call	0x1e9e	; 0x1e9e <pinMode>
    2b9e:	08 95       	ret

00002ba0 <READ_DATA>:
    2ba0:	82 e0       	ldi	r24, 0x02	; 2
    2ba2:	61 e0       	ldi	r22, 0x01	; 1
    2ba4:	0e 94 19 12 	call	0x2432	; 0x2432 <digitalRead>
    2ba8:	08 95       	ret

00002baa <CLR_DATA>:
    2baa:	82 e0       	ldi	r24, 0x02	; 2
    2bac:	61 e0       	ldi	r22, 0x01	; 1
    2bae:	40 e0       	ldi	r20, 0x00	; 0
    2bb0:	0e 94 b4 10 	call	0x2168	; 0x2168 <digitalWrite>
    2bb4:	08 95       	ret

00002bb6 <SET_SCK>:
    2bb6:	82 e0       	ldi	r24, 0x02	; 2
    2bb8:	60 e0       	ldi	r22, 0x00	; 0
    2bba:	41 e0       	ldi	r20, 0x01	; 1
    2bbc:	0e 94 b4 10 	call	0x2168	; 0x2168 <digitalWrite>
    2bc0:	08 95       	ret

00002bc2 <CLR_SCK>:
    2bc2:	82 e0       	ldi	r24, 0x02	; 2
    2bc4:	60 e0       	ldi	r22, 0x00	; 0
    2bc6:	40 e0       	ldi	r20, 0x00	; 0
    2bc8:	0e 94 b4 10 	call	0x2168	; 0x2168 <digitalWrite>
    2bcc:	08 95       	ret

00002bce <SET_DATA>:
    2bce:	82 e0       	ldi	r24, 0x02	; 2
    2bd0:	61 e0       	ldi	r22, 0x01	; 1
    2bd2:	41 e0       	ldi	r20, 0x01	; 1
    2bd4:	0e 94 b4 10 	call	0x2168	; 0x2168 <digitalWrite>
    2bd8:	08 95       	ret

00002bda <Transmission_start>:
    2bda:	0e 94 e7 15 	call	0x2bce	; 0x2bce <SET_DATA>
    2bde:	0e 94 e1 15 	call	0x2bc2	; 0x2bc2 <CLR_SCK>
    2be2:	00 00       	nop
    2be4:	00 00       	nop
    2be6:	0e 94 db 15 	call	0x2bb6	; 0x2bb6 <SET_SCK>
    2bea:	00 00       	nop
    2bec:	00 00       	nop
    2bee:	0e 94 d5 15 	call	0x2baa	; 0x2baa <CLR_DATA>
    2bf2:	00 00       	nop
    2bf4:	00 00       	nop
    2bf6:	0e 94 e1 15 	call	0x2bc2	; 0x2bc2 <CLR_SCK>
    2bfa:	00 00       	nop
    2bfc:	00 00       	nop
    2bfe:	0e 94 db 15 	call	0x2bb6	; 0x2bb6 <SET_SCK>
    2c02:	00 00       	nop
    2c04:	00 00       	nop
    2c06:	0e 94 e7 15 	call	0x2bce	; 0x2bce <SET_DATA>
    2c0a:	00 00       	nop
    2c0c:	00 00       	nop
    2c0e:	0e 94 e1 15 	call	0x2bc2	; 0x2bc2 <CLR_SCK>
    2c12:	08 95       	ret

00002c14 <Connection_reset>:
    2c14:	cf 93       	push	r28
    2c16:	0e 94 e7 15 	call	0x2bce	; 0x2bce <SET_DATA>
    2c1a:	0e 94 e1 15 	call	0x2bc2	; 0x2bc2 <CLR_SCK>
    2c1e:	c9 e0       	ldi	r28, 0x09	; 9
    2c20:	0e 94 db 15 	call	0x2bb6	; 0x2bb6 <SET_SCK>
    2c24:	0e 94 e1 15 	call	0x2bc2	; 0x2bc2 <CLR_SCK>
    2c28:	c1 50       	subi	r28, 0x01	; 1
    2c2a:	d1 f7       	brne	.-12     	; 0x2c20 <Connection_reset+0xc>
    2c2c:	0e 94 ed 15 	call	0x2bda	; 0x2bda <Transmission_start>
    2c30:	cf 91       	pop	r28
    2c32:	08 95       	ret

00002c34 <SHT11_Init>:
    2c34:	0e 94 ca 15 	call	0x2b94	; 0x2b94 <I2C_data_output>
    2c38:	82 e0       	ldi	r24, 0x02	; 2
    2c3a:	60 e0       	ldi	r22, 0x00	; 0
    2c3c:	41 e0       	ldi	r20, 0x01	; 1
    2c3e:	0e 94 4f 0f 	call	0x1e9e	; 0x1e9e <pinMode>
    2c42:	0e 94 0a 16 	call	0x2c14	; 0x2c14 <Connection_reset>
    2c46:	08 95       	ret

00002c48 <Write_byte>:
    2c48:	0f 93       	push	r16
    2c4a:	1f 93       	push	r17
    2c4c:	cf 93       	push	r28
    2c4e:	df 93       	push	r29
    2c50:	08 2f       	mov	r16, r24
    2c52:	0e 94 ca 15 	call	0x2b94	; 0x2b94 <I2C_data_output>
    2c56:	c8 e0       	ldi	r28, 0x08	; 8
    2c58:	d0 e0       	ldi	r29, 0x00	; 0
    2c5a:	10 e8       	ldi	r17, 0x80	; 128
    2c5c:	81 2f       	mov	r24, r17
    2c5e:	80 23       	and	r24, r16
    2c60:	19 f0       	breq	.+6      	; 0x2c68 <Write_byte+0x20>
    2c62:	0e 94 e7 15 	call	0x2bce	; 0x2bce <SET_DATA>
    2c66:	02 c0       	rjmp	.+4      	; 0x2c6c <Write_byte+0x24>
    2c68:	0e 94 d5 15 	call	0x2baa	; 0x2baa <CLR_DATA>
    2c6c:	0e 94 db 15 	call	0x2bb6	; 0x2bb6 <SET_SCK>
    2c70:	00 00       	nop
    2c72:	00 00       	nop
    2c74:	0e 94 e1 15 	call	0x2bc2	; 0x2bc2 <CLR_SCK>
    2c78:	16 95       	lsr	r17
    2c7a:	21 97       	sbiw	r28, 0x01	; 1
    2c7c:	79 f7       	brne	.-34     	; 0x2c5c <Write_byte+0x14>
    2c7e:	0e 94 e7 15 	call	0x2bce	; 0x2bce <SET_DATA>
    2c82:	0e 94 c4 15 	call	0x2b88	; 0x2b88 <I2C_data_input>
    2c86:	00 00       	nop
    2c88:	00 00       	nop
    2c8a:	0e 94 db 15 	call	0x2bb6	; 0x2bb6 <SET_SCK>
    2c8e:	0e 94 d0 15 	call	0x2ba0	; 0x2ba0 <READ_DATA>
    2c92:	c8 2f       	mov	r28, r24
    2c94:	0e 94 e1 15 	call	0x2bc2	; 0x2bc2 <CLR_SCK>
    2c98:	0e 94 ca 15 	call	0x2b94	; 0x2b94 <I2C_data_output>
    2c9c:	8c 2f       	mov	r24, r28
    2c9e:	df 91       	pop	r29
    2ca0:	cf 91       	pop	r28
    2ca2:	1f 91       	pop	r17
    2ca4:	0f 91       	pop	r16
    2ca6:	08 95       	ret

00002ca8 <Read_byte>:
    2ca8:	ff 92       	push	r15
    2caa:	0f 93       	push	r16
    2cac:	1f 93       	push	r17
    2cae:	cf 93       	push	r28
    2cb0:	df 93       	push	r29
    2cb2:	f8 2e       	mov	r15, r24
    2cb4:	0e 94 c4 15 	call	0x2b88	; 0x2b88 <I2C_data_input>
    2cb8:	0e 94 e7 15 	call	0x2bce	; 0x2bce <SET_DATA>
    2cbc:	00 00       	nop
    2cbe:	00 00       	nop
    2cc0:	c8 e0       	ldi	r28, 0x08	; 8
    2cc2:	d0 e0       	ldi	r29, 0x00	; 0
    2cc4:	00 e0       	ldi	r16, 0x00	; 0
    2cc6:	10 e8       	ldi	r17, 0x80	; 128
    2cc8:	0e 94 db 15 	call	0x2bb6	; 0x2bb6 <SET_SCK>
    2ccc:	00 00       	nop
    2cce:	00 00       	nop
    2cd0:	0e 94 d0 15 	call	0x2ba0	; 0x2ba0 <READ_DATA>
    2cd4:	00 97       	sbiw	r24, 0x00	; 0
    2cd6:	09 f0       	breq	.+2      	; 0x2cda <Read_byte+0x32>
    2cd8:	01 2b       	or	r16, r17
    2cda:	0e 94 e1 15 	call	0x2bc2	; 0x2bc2 <CLR_SCK>
    2cde:	00 00       	nop
    2ce0:	00 00       	nop
    2ce2:	16 95       	lsr	r17
    2ce4:	21 97       	sbiw	r28, 0x01	; 1
    2ce6:	81 f7       	brne	.-32     	; 0x2cc8 <Read_byte+0x20>
    2ce8:	0e 94 ca 15 	call	0x2b94	; 0x2b94 <I2C_data_output>
    2cec:	ff 20       	and	r15, r15
    2cee:	19 f0       	breq	.+6      	; 0x2cf6 <Read_byte+0x4e>
    2cf0:	0e 94 d5 15 	call	0x2baa	; 0x2baa <CLR_DATA>
    2cf4:	02 c0       	rjmp	.+4      	; 0x2cfa <Read_byte+0x52>
    2cf6:	0e 94 e7 15 	call	0x2bce	; 0x2bce <SET_DATA>
    2cfa:	0e 94 db 15 	call	0x2bb6	; 0x2bb6 <SET_SCK>
    2cfe:	00 00       	nop
    2d00:	00 00       	nop
    2d02:	0e 94 e1 15 	call	0x2bc2	; 0x2bc2 <CLR_SCK>
    2d06:	00 00       	nop
    2d08:	00 00       	nop
    2d0a:	0e 94 e7 15 	call	0x2bce	; 0x2bce <SET_DATA>
    2d0e:	80 2f       	mov	r24, r16
    2d10:	df 91       	pop	r29
    2d12:	cf 91       	pop	r28
    2d14:	1f 91       	pop	r17
    2d16:	0f 91       	pop	r16
    2d18:	ff 90       	pop	r15
    2d1a:	08 95       	ret

00002d1c <Measure>:
    2d1c:	ef 92       	push	r14
    2d1e:	ff 92       	push	r15
    2d20:	0f 93       	push	r16
    2d22:	1f 93       	push	r17
    2d24:	cf 93       	push	r28
    2d26:	7c 01       	movw	r14, r24
    2d28:	8b 01       	movw	r16, r22
    2d2a:	c4 2f       	mov	r28, r20
    2d2c:	0e 94 ed 15 	call	0x2bda	; 0x2bda <Transmission_start>
    2d30:	cc 23       	and	r28, r28
    2d32:	19 f0       	breq	.+6      	; 0x2d3a <Measure+0x1e>
    2d34:	c1 30       	cpi	r28, 0x01	; 1
    2d36:	59 f4       	brne	.+22     	; 0x2d4e <Measure+0x32>
    2d38:	05 c0       	rjmp	.+10     	; 0x2d44 <Measure+0x28>
    2d3a:	83 e0       	ldi	r24, 0x03	; 3
    2d3c:	0e 94 24 16 	call	0x2c48	; 0x2c48 <Write_byte>
    2d40:	90 e0       	ldi	r25, 0x00	; 0
    2d42:	07 c0       	rjmp	.+14     	; 0x2d52 <Measure+0x36>
    2d44:	85 e0       	ldi	r24, 0x05	; 5
    2d46:	0e 94 24 16 	call	0x2c48	; 0x2c48 <Write_byte>
    2d4a:	90 e0       	ldi	r25, 0x00	; 0
    2d4c:	02 c0       	rjmp	.+4      	; 0x2d52 <Measure+0x36>
    2d4e:	80 e0       	ldi	r24, 0x00	; 0
    2d50:	90 e0       	ldi	r25, 0x00	; 0
    2d52:	00 97       	sbiw	r24, 0x00	; 0
    2d54:	e9 f4       	brne	.+58     	; 0x2d90 <Measure+0x74>
    2d56:	0e 94 c4 15 	call	0x2b88	; 0x2b88 <I2C_data_input>
    2d5a:	0e 94 d0 15 	call	0x2ba0	; 0x2ba0 <READ_DATA>
    2d5e:	00 97       	sbiw	r24, 0x00	; 0
    2d60:	e1 f7       	brne	.-8      	; 0x2d5a <Measure+0x3e>
    2d62:	0e 94 c4 15 	call	0x2b88	; 0x2b88 <I2C_data_input>
    2d66:	81 e0       	ldi	r24, 0x01	; 1
    2d68:	0e 94 54 16 	call	0x2ca8	; 0x2ca8 <Read_byte>
    2d6c:	c8 2f       	mov	r28, r24
    2d6e:	81 e0       	ldi	r24, 0x01	; 1
    2d70:	0e 94 54 16 	call	0x2ca8	; 0x2ca8 <Read_byte>
    2d74:	3c 2f       	mov	r19, r28
    2d76:	20 e0       	ldi	r18, 0x00	; 0
    2d78:	28 0f       	add	r18, r24
    2d7a:	31 1d       	adc	r19, r1
    2d7c:	f7 01       	movw	r30, r14
    2d7e:	31 83       	std	Z+1, r19	; 0x01
    2d80:	20 83       	st	Z, r18
    2d82:	80 e0       	ldi	r24, 0x00	; 0
    2d84:	0e 94 54 16 	call	0x2ca8	; 0x2ca8 <Read_byte>
    2d88:	f8 01       	movw	r30, r16
    2d8a:	80 83       	st	Z, r24
    2d8c:	11 82       	std	Z+1, r1	; 0x01
    2d8e:	80 e0       	ldi	r24, 0x00	; 0
    2d90:	cf 91       	pop	r28
    2d92:	1f 91       	pop	r17
    2d94:	0f 91       	pop	r16
    2d96:	ff 90       	pop	r15
    2d98:	ef 90       	pop	r14
    2d9a:	08 95       	ret

00002d9c <calc_SHT11>:
    2d9c:	2f 92       	push	r2
    2d9e:	3f 92       	push	r3
    2da0:	4f 92       	push	r4
    2da2:	5f 92       	push	r5
    2da4:	6f 92       	push	r6
    2da6:	7f 92       	push	r7
    2da8:	8f 92       	push	r8
    2daa:	9f 92       	push	r9
    2dac:	af 92       	push	r10
    2dae:	bf 92       	push	r11
    2db0:	cf 92       	push	r12
    2db2:	df 92       	push	r13
    2db4:	ef 92       	push	r14
    2db6:	ff 92       	push	r15
    2db8:	0f 93       	push	r16
    2dba:	1f 93       	push	r17
    2dbc:	cf 93       	push	r28
    2dbe:	df 93       	push	r29
    2dc0:	0f 92       	push	r0
    2dc2:	0f 92       	push	r0
    2dc4:	cd b7       	in	r28, 0x3d	; 61
    2dc6:	de b7       	in	r29, 0x3e	; 62
    2dc8:	8b 01       	movw	r16, r22
    2dca:	bc 01       	movw	r22, r24
    2dcc:	80 e0       	ldi	r24, 0x00	; 0
    2dce:	90 e0       	ldi	r25, 0x00	; 0
    2dd0:	0e 94 34 19 	call	0x3268	; 0x3268 <__floatunsisf>
    2dd4:	c6 2e       	mov	r12, r22
    2dd6:	d7 2e       	mov	r13, r23
    2dd8:	f8 2e       	mov	r15, r24
    2dda:	e9 2e       	mov	r14, r25
    2ddc:	b8 01       	movw	r22, r16
    2dde:	80 e0       	ldi	r24, 0x00	; 0
    2de0:	90 e0       	ldi	r25, 0x00	; 0
    2de2:	0e 94 34 19 	call	0x3268	; 0x3268 <__floatunsisf>
    2de6:	2a e0       	ldi	r18, 0x0A	; 10
    2de8:	37 ed       	ldi	r19, 0xD7	; 215
    2dea:	43 e2       	ldi	r20, 0x23	; 35
    2dec:	5c e3       	ldi	r21, 0x3C	; 60
    2dee:	0e 94 ea 19 	call	0x33d4	; 0x33d4 <__mulsf3>
    2df2:	20 e0       	ldi	r18, 0x00	; 0
    2df4:	30 e0       	ldi	r19, 0x00	; 0
    2df6:	40 e2       	ldi	r20, 0x20	; 32
    2df8:	52 e4       	ldi	r21, 0x42	; 66
    2dfa:	0e 94 9f 18 	call	0x313e	; 0x313e <__subsf3>
    2dfe:	20 e0       	ldi	r18, 0x00	; 0
    2e00:	30 e0       	ldi	r19, 0x00	; 0
    2e02:	40 ea       	ldi	r20, 0xA0	; 160
    2e04:	50 e4       	ldi	r21, 0x40	; 64
    2e06:	0e 94 9f 18 	call	0x313e	; 0x313e <__subsf3>
    2e0a:	36 2e       	mov	r3, r22
    2e0c:	27 2e       	mov	r2, r23
    2e0e:	89 83       	std	Y+1, r24	; 0x01
    2e10:	9a 83       	std	Y+2, r25	; 0x02
    2e12:	38 2f       	mov	r19, r24
    2e14:	29 2f       	mov	r18, r25
    2e16:	86 2f       	mov	r24, r22
    2e18:	92 2d       	mov	r25, r2
    2e1a:	a3 2f       	mov	r26, r19
    2e1c:	b2 2f       	mov	r27, r18
    2e1e:	bc 01       	movw	r22, r24
    2e20:	cd 01       	movw	r24, r26
    2e22:	20 e0       	ldi	r18, 0x00	; 0
    2e24:	30 e0       	ldi	r19, 0x00	; 0
    2e26:	48 ec       	ldi	r20, 0xC8	; 200
    2e28:	51 e4       	ldi	r21, 0x41	; 65
    2e2a:	0e 94 9f 18 	call	0x313e	; 0x313e <__subsf3>
    2e2e:	4b 01       	movw	r8, r22
    2e30:	5c 01       	movw	r10, r24
    2e32:	8c 2d       	mov	r24, r12
    2e34:	9d 2d       	mov	r25, r13
    2e36:	af 2d       	mov	r26, r15
    2e38:	be 2d       	mov	r27, r14
    2e3a:	bc 01       	movw	r22, r24
    2e3c:	cd 01       	movw	r24, r26
    2e3e:	2c ea       	ldi	r18, 0xAC	; 172
    2e40:	35 ec       	ldi	r19, 0xC5	; 197
    2e42:	47 ea       	ldi	r20, 0xA7	; 167
    2e44:	58 e3       	ldi	r21, 0x38	; 56
    2e46:	0e 94 ea 19 	call	0x33d4	; 0x33d4 <__mulsf3>
    2e4a:	2a e0       	ldi	r18, 0x0A	; 10
    2e4c:	37 ed       	ldi	r19, 0xD7	; 215
    2e4e:	43 e2       	ldi	r20, 0x23	; 35
    2e50:	5c e3       	ldi	r21, 0x3C	; 60
    2e52:	0e 94 a0 18 	call	0x3140	; 0x3140 <__addsf3>
    2e56:	9b 01       	movw	r18, r22
    2e58:	ac 01       	movw	r20, r24
    2e5a:	c5 01       	movw	r24, r10
    2e5c:	b4 01       	movw	r22, r8
    2e5e:	0e 94 ea 19 	call	0x33d4	; 0x33d4 <__mulsf3>
    2e62:	2b 01       	movw	r4, r22
    2e64:	3c 01       	movw	r6, r24
    2e66:	8c 2d       	mov	r24, r12
    2e68:	9d 2d       	mov	r25, r13
    2e6a:	af 2d       	mov	r26, r15
    2e6c:	be 2d       	mov	r27, r14
    2e6e:	bc 01       	movw	r22, r24
    2e70:	cd 01       	movw	r24, r26
    2e72:	22 ea       	ldi	r18, 0xA2	; 162
    2e74:	37 ee       	ldi	r19, 0xE7	; 231
    2e76:	4b e3       	ldi	r20, 0x3B	; 59
    2e78:	56 eb       	ldi	r21, 0xB6	; 182
    2e7a:	0e 94 ea 19 	call	0x33d4	; 0x33d4 <__mulsf3>
    2e7e:	0c 2d       	mov	r16, r12
    2e80:	1d 2d       	mov	r17, r13
    2e82:	2f 2d       	mov	r18, r15
    2e84:	3e 2d       	mov	r19, r14
    2e86:	a9 01       	movw	r20, r18
    2e88:	98 01       	movw	r18, r16
    2e8a:	0e 94 ea 19 	call	0x33d4	; 0x33d4 <__mulsf3>
    2e8e:	4b 01       	movw	r8, r22
    2e90:	5c 01       	movw	r10, r24
    2e92:	80 2f       	mov	r24, r16
    2e94:	91 2f       	mov	r25, r17
    2e96:	af 2d       	mov	r26, r15
    2e98:	be 2d       	mov	r27, r14
    2e9a:	bc 01       	movw	r22, r24
    2e9c:	cd 01       	movw	r24, r26
    2e9e:	24 e5       	ldi	r18, 0x54	; 84
    2ea0:	33 ee       	ldi	r19, 0xE3	; 227
    2ea2:	45 e2       	ldi	r20, 0x25	; 37
    2ea4:	5d e3       	ldi	r21, 0x3D	; 61
    2ea6:	0e 94 ea 19 	call	0x33d4	; 0x33d4 <__mulsf3>
    2eaa:	9b 01       	movw	r18, r22
    2eac:	ac 01       	movw	r20, r24
    2eae:	c5 01       	movw	r24, r10
    2eb0:	b4 01       	movw	r22, r8
    2eb2:	0e 94 a0 18 	call	0x3140	; 0x3140 <__addsf3>
    2eb6:	20 e0       	ldi	r18, 0x00	; 0
    2eb8:	30 e0       	ldi	r19, 0x00	; 0
    2eba:	40 e8       	ldi	r20, 0x80	; 128
    2ebc:	50 e4       	ldi	r21, 0x40	; 64
    2ebe:	0e 94 9f 18 	call	0x313e	; 0x313e <__subsf3>
    2ec2:	9b 01       	movw	r18, r22
    2ec4:	ac 01       	movw	r20, r24
    2ec6:	c3 01       	movw	r24, r6
    2ec8:	b2 01       	movw	r22, r4
    2eca:	0e 94 a0 18 	call	0x3140	; 0x3140 <__addsf3>
    2ece:	f6 2e       	mov	r15, r22
    2ed0:	07 2f       	mov	r16, r23
    2ed2:	48 2e       	mov	r4, r24
    2ed4:	89 2e       	mov	r8, r25
    2ed6:	e6 2e       	mov	r14, r22
    2ed8:	17 2f       	mov	r17, r23
    2eda:	d8 2e       	mov	r13, r24
    2edc:	c9 2e       	mov	r12, r25
    2ede:	86 2f       	mov	r24, r22
    2ee0:	90 2f       	mov	r25, r16
    2ee2:	a4 2d       	mov	r26, r4
    2ee4:	b8 2d       	mov	r27, r8
    2ee6:	bc 01       	movw	r22, r24
    2ee8:	cd 01       	movw	r24, r26
    2eea:	20 e0       	ldi	r18, 0x00	; 0
    2eec:	30 e0       	ldi	r19, 0x00	; 0
    2eee:	48 ec       	ldi	r20, 0xC8	; 200
    2ef0:	52 e4       	ldi	r21, 0x42	; 66
    2ef2:	0e 94 e6 19 	call	0x33cc	; 0x33cc <__gesf2>
    2ef6:	18 16       	cp	r1, r24
    2ef8:	7c f0       	brlt	.+30     	; 0x2f18 <calc_SHT11+0x17c>
    2efa:	8f 2d       	mov	r24, r15
    2efc:	90 2f       	mov	r25, r16
    2efe:	a4 2d       	mov	r26, r4
    2f00:	b8 2d       	mov	r27, r8
    2f02:	bc 01       	movw	r22, r24
    2f04:	cd 01       	movw	r24, r26
    2f06:	2d ec       	ldi	r18, 0xCD	; 205
    2f08:	3c ec       	ldi	r19, 0xCC	; 204
    2f0a:	4c ec       	ldi	r20, 0xCC	; 204
    2f0c:	5d e3       	ldi	r21, 0x3D	; 61
    2f0e:	0e 94 04 19 	call	0x3208	; 0x3208 <__cmpsf2>
    2f12:	88 23       	and	r24, r24
    2f14:	64 f0       	brlt	.+24     	; 0x2f2e <calc_SHT11+0x192>
    2f16:	18 c0       	rjmp	.+48     	; 0x2f48 <calc_SHT11+0x1ac>
    2f18:	ee 24       	eor	r14, r14
    2f1a:	10 e0       	ldi	r17, 0x00	; 0
    2f1c:	0f 2e       	mov	r0, r31
    2f1e:	f8 ec       	ldi	r31, 0xC8	; 200
    2f20:	df 2e       	mov	r13, r31
    2f22:	f0 2d       	mov	r31, r0
    2f24:	0f 2e       	mov	r0, r31
    2f26:	f2 e4       	ldi	r31, 0x42	; 66
    2f28:	cf 2e       	mov	r12, r31
    2f2a:	f0 2d       	mov	r31, r0
    2f2c:	0d c0       	rjmp	.+26     	; 0x2f48 <calc_SHT11+0x1ac>
    2f2e:	0f 2e       	mov	r0, r31
    2f30:	fd ec       	ldi	r31, 0xCD	; 205
    2f32:	ef 2e       	mov	r14, r31
    2f34:	f0 2d       	mov	r31, r0
    2f36:	1c ec       	ldi	r17, 0xCC	; 204
    2f38:	0f 2e       	mov	r0, r31
    2f3a:	fc ec       	ldi	r31, 0xCC	; 204
    2f3c:	df 2e       	mov	r13, r31
    2f3e:	f0 2d       	mov	r31, r0
    2f40:	0f 2e       	mov	r0, r31
    2f42:	fd e3       	ldi	r31, 0x3D	; 61
    2f44:	cf 2e       	mov	r12, r31
    2f46:	f0 2d       	mov	r31, r0
    2f48:	39 81       	ldd	r19, Y+1	; 0x01
    2f4a:	2a 81       	ldd	r18, Y+2	; 0x02
    2f4c:	83 2d       	mov	r24, r3
    2f4e:	92 2d       	mov	r25, r2
    2f50:	a3 2f       	mov	r26, r19
    2f52:	b2 2f       	mov	r27, r18
    2f54:	bc 01       	movw	r22, r24
    2f56:	cd 01       	movw	r24, r26
    2f58:	0e 94 08 19 	call	0x3210	; 0x3210 <__fixunssfsi>
    2f5c:	dc 01       	movw	r26, r24
    2f5e:	cb 01       	movw	r24, r22
    2f60:	90 93 a3 10 	sts	0x10A3, r25
    2f64:	80 93 a2 10 	sts	0x10A2, r24
    2f68:	8e 2d       	mov	r24, r14
    2f6a:	91 2f       	mov	r25, r17
    2f6c:	ad 2d       	mov	r26, r13
    2f6e:	bc 2d       	mov	r27, r12
    2f70:	bc 01       	movw	r22, r24
    2f72:	cd 01       	movw	r24, r26
    2f74:	0e 94 08 19 	call	0x3210	; 0x3210 <__fixunssfsi>
    2f78:	dc 01       	movw	r26, r24
    2f7a:	cb 01       	movw	r24, r22
    2f7c:	90 93 a5 10 	sts	0x10A5, r25
    2f80:	80 93 a4 10 	sts	0x10A4, r24
    2f84:	0f 90       	pop	r0
    2f86:	0f 90       	pop	r0
    2f88:	df 91       	pop	r29
    2f8a:	cf 91       	pop	r28
    2f8c:	1f 91       	pop	r17
    2f8e:	0f 91       	pop	r16
    2f90:	ff 90       	pop	r15
    2f92:	ef 90       	pop	r14
    2f94:	df 90       	pop	r13
    2f96:	cf 90       	pop	r12
    2f98:	bf 90       	pop	r11
    2f9a:	af 90       	pop	r10
    2f9c:	9f 90       	pop	r9
    2f9e:	8f 90       	pop	r8
    2fa0:	7f 90       	pop	r7
    2fa2:	6f 90       	pop	r6
    2fa4:	5f 90       	pop	r5
    2fa6:	4f 90       	pop	r4
    2fa8:	3f 90       	pop	r3
    2faa:	2f 90       	pop	r2
    2fac:	08 95       	ret

00002fae <get_SHT11_data>:
    2fae:	cf 93       	push	r28
    2fb0:	df 93       	push	r29
    2fb2:	80 93 aa 10 	sts	0x10AA, r24
    2fb6:	10 92 a9 10 	sts	0x10A9, r1
    2fba:	10 92 a8 10 	sts	0x10A8, r1
    2fbe:	cb ea       	ldi	r28, 0xAB	; 171
    2fc0:	d0 e1       	ldi	r29, 0x10	; 16
    2fc2:	80 ea       	ldi	r24, 0xA0	; 160
    2fc4:	90 e1       	ldi	r25, 0x10	; 16
    2fc6:	be 01       	movw	r22, r28
    2fc8:	41 e0       	ldi	r20, 0x01	; 1
    2fca:	0e 94 8e 16 	call	0x2d1c	; 0x2d1c <Measure>
    2fce:	20 91 a8 10 	lds	r18, 0x10A8
    2fd2:	30 91 a9 10 	lds	r19, 0x10A9
    2fd6:	28 0f       	add	r18, r24
    2fd8:	31 1d       	adc	r19, r1
    2fda:	30 93 a9 10 	sts	0x10A9, r19
    2fde:	20 93 a8 10 	sts	0x10A8, r18
    2fe2:	86 ea       	ldi	r24, 0xA6	; 166
    2fe4:	90 e1       	ldi	r25, 0x10	; 16
    2fe6:	be 01       	movw	r22, r28
    2fe8:	40 e0       	ldi	r20, 0x00	; 0
    2fea:	0e 94 8e 16 	call	0x2d1c	; 0x2d1c <Measure>
    2fee:	20 91 a8 10 	lds	r18, 0x10A8
    2ff2:	30 91 a9 10 	lds	r19, 0x10A9
    2ff6:	28 0f       	add	r18, r24
    2ff8:	31 1d       	adc	r19, r1
    2ffa:	30 93 a9 10 	sts	0x10A9, r19
    2ffe:	20 93 a8 10 	sts	0x10A8, r18
    3002:	21 15       	cp	r18, r1
    3004:	31 05       	cpc	r19, r1
    3006:	19 f0       	breq	.+6      	; 0x300e <get_SHT11_data+0x60>
    3008:	0e 94 0a 16 	call	0x2c14	; 0x2c14 <Connection_reset>
    300c:	0a c0       	rjmp	.+20     	; 0x3022 <get_SHT11_data+0x74>
    300e:	60 91 a6 10 	lds	r22, 0x10A6
    3012:	70 91 a7 10 	lds	r23, 0x10A7
    3016:	80 91 a0 10 	lds	r24, 0x10A0
    301a:	90 91 a1 10 	lds	r25, 0x10A1
    301e:	0e 94 ce 16 	call	0x2d9c	; 0x2d9c <calc_SHT11>
    3022:	80 91 aa 10 	lds	r24, 0x10AA
    3026:	81 30       	cpi	r24, 0x01	; 1
    3028:	29 f4       	brne	.+10     	; 0x3034 <get_SHT11_data+0x86>
    302a:	80 91 a4 10 	lds	r24, 0x10A4
    302e:	90 91 a5 10 	lds	r25, 0x10A5
    3032:	09 c0       	rjmp	.+18     	; 0x3046 <get_SHT11_data+0x98>
    3034:	88 23       	and	r24, r24
    3036:	29 f4       	brne	.+10     	; 0x3042 <get_SHT11_data+0x94>
    3038:	80 91 a2 10 	lds	r24, 0x10A2
    303c:	90 91 a3 10 	lds	r25, 0x10A3
    3040:	02 c0       	rjmp	.+4      	; 0x3046 <get_SHT11_data+0x98>
    3042:	80 e0       	ldi	r24, 0x00	; 0
    3044:	90 e0       	ldi	r25, 0x00	; 0
    3046:	df 91       	pop	r29
    3048:	cf 91       	pop	r28
    304a:	08 95       	ret

0000304c <__vector_23>:
    304c:	1f 92       	push	r1
    304e:	0f 92       	push	r0
    3050:	0f b6       	in	r0, 0x3f	; 63
    3052:	0f 92       	push	r0
    3054:	11 24       	eor	r1, r1
    3056:	4f 93       	push	r20
    3058:	5f 93       	push	r21
    305a:	6f 93       	push	r22
    305c:	7f 93       	push	r23
    305e:	8f 93       	push	r24
    3060:	9f 93       	push	r25
    3062:	af 93       	push	r26
    3064:	bf 93       	push	r27
    3066:	f8 94       	cli
    3068:	8f e6       	ldi	r24, 0x6F	; 111
    306a:	86 bd       	out	0x26, r24	; 38
    306c:	80 91 f5 05 	lds	r24, 0x05F5
    3070:	90 91 f6 05 	lds	r25, 0x05F6
    3074:	a0 91 f7 05 	lds	r26, 0x05F7
    3078:	b0 91 f8 05 	lds	r27, 0x05F8
    307c:	01 96       	adiw	r24, 0x01	; 1
    307e:	a1 1d       	adc	r26, r1
    3080:	b1 1d       	adc	r27, r1
    3082:	80 93 f5 05 	sts	0x05F5, r24
    3086:	90 93 f6 05 	sts	0x05F6, r25
    308a:	a0 93 f7 05 	sts	0x05F7, r26
    308e:	b0 93 f8 05 	sts	0x05F8, r27
    3092:	40 91 f5 05 	lds	r20, 0x05F5
    3096:	50 91 f6 05 	lds	r21, 0x05F6
    309a:	60 91 f7 05 	lds	r22, 0x05F7
    309e:	70 91 f8 05 	lds	r23, 0x05F8
    30a2:	80 91 f1 05 	lds	r24, 0x05F1
    30a6:	90 91 f2 05 	lds	r25, 0x05F2
    30aa:	a0 91 f3 05 	lds	r26, 0x05F3
    30ae:	b0 91 f4 05 	lds	r27, 0x05F4
    30b2:	48 17       	cp	r20, r24
    30b4:	59 07       	cpc	r21, r25
    30b6:	6a 07       	cpc	r22, r26
    30b8:	7b 07       	cpc	r23, r27
    30ba:	58 f0       	brcs	.+22     	; 0x30d2 <__vector_23+0x86>
    30bc:	81 e0       	ldi	r24, 0x01	; 1
    30be:	80 93 f0 05 	sts	0x05F0, r24
    30c2:	10 92 f5 05 	sts	0x05F5, r1
    30c6:	10 92 f6 05 	sts	0x05F6, r1
    30ca:	10 92 f7 05 	sts	0x05F7, r1
    30ce:	10 92 f8 05 	sts	0x05F8, r1
    30d2:	78 94       	sei
    30d4:	bf 91       	pop	r27
    30d6:	af 91       	pop	r26
    30d8:	9f 91       	pop	r25
    30da:	8f 91       	pop	r24
    30dc:	7f 91       	pop	r23
    30de:	6f 91       	pop	r22
    30e0:	5f 91       	pop	r21
    30e2:	4f 91       	pop	r20
    30e4:	0f 90       	pop	r0
    30e6:	0f be       	out	0x3f, r0	; 63
    30e8:	0f 90       	pop	r0
    30ea:	1f 90       	pop	r1
    30ec:	18 95       	reti

000030ee <TIMER_100mSInit>:
    30ee:	85 e0       	ldi	r24, 0x05	; 5
    30f0:	85 bd       	out	0x25, r24	; 37
    30f2:	8f e6       	ldi	r24, 0x6F	; 111
    30f4:	86 bd       	out	0x26, r24	; 38
    30f6:	ee e6       	ldi	r30, 0x6E	; 110
    30f8:	f0 e0       	ldi	r31, 0x00	; 0
    30fa:	80 81       	ld	r24, Z
    30fc:	81 60       	ori	r24, 0x01	; 1
    30fe:	80 83       	st	Z, r24
    3100:	a8 9a       	sbi	0x15, 0	; 21
    3102:	08 95       	ret

00003104 <setElapsedTime100mSUnit>:
    3104:	dc 01       	movw	r26, r24
    3106:	cb 01       	movw	r24, r22
    3108:	80 93 f1 05 	sts	0x05F1, r24
    310c:	90 93 f2 05 	sts	0x05F2, r25
    3110:	a0 93 f3 05 	sts	0x05F3, r26
    3114:	b0 93 f4 05 	sts	0x05F4, r27
    3118:	10 92 f5 05 	sts	0x05F5, r1
    311c:	10 92 f6 05 	sts	0x05F6, r1
    3120:	10 92 f7 05 	sts	0x05F7, r1
    3124:	10 92 f8 05 	sts	0x05F8, r1
    3128:	08 95       	ret

0000312a <isElapsed>:
    312a:	80 91 f0 05 	lds	r24, 0x05F0
    312e:	88 23       	and	r24, r24
    3130:	21 f0       	breq	.+8      	; 0x313a <isElapsed+0x10>
    3132:	10 92 f0 05 	sts	0x05F0, r1
    3136:	81 e0       	ldi	r24, 0x01	; 1
    3138:	08 95       	ret
    313a:	80 e0       	ldi	r24, 0x00	; 0
    313c:	08 95       	ret

0000313e <__subsf3>:
    313e:	50 58       	subi	r21, 0x80	; 128

00003140 <__addsf3>:
    3140:	bb 27       	eor	r27, r27
    3142:	aa 27       	eor	r26, r26
    3144:	0e d0       	rcall	.+28     	; 0x3162 <__addsf3x>
    3146:	08 c1       	rjmp	.+528    	; 0x3358 <__fp_round>
    3148:	f9 d0       	rcall	.+498    	; 0x333c <__fp_pscA>
    314a:	30 f0       	brcs	.+12     	; 0x3158 <__addsf3+0x18>
    314c:	fe d0       	rcall	.+508    	; 0x334a <__fp_pscB>
    314e:	20 f0       	brcs	.+8      	; 0x3158 <__addsf3+0x18>
    3150:	31 f4       	brne	.+12     	; 0x315e <__addsf3+0x1e>
    3152:	9f 3f       	cpi	r25, 0xFF	; 255
    3154:	11 f4       	brne	.+4      	; 0x315a <__addsf3+0x1a>
    3156:	1e f4       	brtc	.+6      	; 0x315e <__addsf3+0x1e>
    3158:	ee c0       	rjmp	.+476    	; 0x3336 <__fp_nan>
    315a:	0e f4       	brtc	.+2      	; 0x315e <__addsf3+0x1e>
    315c:	e0 95       	com	r30
    315e:	e7 fb       	bst	r30, 7
    3160:	e4 c0       	rjmp	.+456    	; 0x332a <__fp_inf>

00003162 <__addsf3x>:
    3162:	e9 2f       	mov	r30, r25
    3164:	0a d1       	rcall	.+532    	; 0x337a <__fp_split3>
    3166:	80 f3       	brcs	.-32     	; 0x3148 <__addsf3+0x8>
    3168:	ba 17       	cp	r27, r26
    316a:	62 07       	cpc	r22, r18
    316c:	73 07       	cpc	r23, r19
    316e:	84 07       	cpc	r24, r20
    3170:	95 07       	cpc	r25, r21
    3172:	18 f0       	brcs	.+6      	; 0x317a <__addsf3x+0x18>
    3174:	71 f4       	brne	.+28     	; 0x3192 <__addsf3x+0x30>
    3176:	9e f5       	brtc	.+102    	; 0x31de <__addsf3x+0x7c>
    3178:	22 c1       	rjmp	.+580    	; 0x33be <__fp_zero>
    317a:	0e f4       	brtc	.+2      	; 0x317e <__addsf3x+0x1c>
    317c:	e0 95       	com	r30
    317e:	0b 2e       	mov	r0, r27
    3180:	ba 2f       	mov	r27, r26
    3182:	a0 2d       	mov	r26, r0
    3184:	0b 01       	movw	r0, r22
    3186:	b9 01       	movw	r22, r18
    3188:	90 01       	movw	r18, r0
    318a:	0c 01       	movw	r0, r24
    318c:	ca 01       	movw	r24, r20
    318e:	a0 01       	movw	r20, r0
    3190:	11 24       	eor	r1, r1
    3192:	ff 27       	eor	r31, r31
    3194:	59 1b       	sub	r21, r25
    3196:	99 f0       	breq	.+38     	; 0x31be <__addsf3x+0x5c>
    3198:	59 3f       	cpi	r21, 0xF9	; 249
    319a:	50 f4       	brcc	.+20     	; 0x31b0 <__addsf3x+0x4e>
    319c:	50 3e       	cpi	r21, 0xE0	; 224
    319e:	68 f1       	brcs	.+90     	; 0x31fa <__addsf3x+0x98>
    31a0:	1a 16       	cp	r1, r26
    31a2:	f0 40       	sbci	r31, 0x00	; 0
    31a4:	a2 2f       	mov	r26, r18
    31a6:	23 2f       	mov	r18, r19
    31a8:	34 2f       	mov	r19, r20
    31aa:	44 27       	eor	r20, r20
    31ac:	58 5f       	subi	r21, 0xF8	; 248
    31ae:	f3 cf       	rjmp	.-26     	; 0x3196 <__addsf3x+0x34>
    31b0:	46 95       	lsr	r20
    31b2:	37 95       	ror	r19
    31b4:	27 95       	ror	r18
    31b6:	a7 95       	ror	r26
    31b8:	f0 40       	sbci	r31, 0x00	; 0
    31ba:	53 95       	inc	r21
    31bc:	c9 f7       	brne	.-14     	; 0x31b0 <__addsf3x+0x4e>
    31be:	7e f4       	brtc	.+30     	; 0x31de <__addsf3x+0x7c>
    31c0:	1f 16       	cp	r1, r31
    31c2:	ba 0b       	sbc	r27, r26
    31c4:	62 0b       	sbc	r22, r18
    31c6:	73 0b       	sbc	r23, r19
    31c8:	84 0b       	sbc	r24, r20
    31ca:	ba f0       	brmi	.+46     	; 0x31fa <__addsf3x+0x98>
    31cc:	91 50       	subi	r25, 0x01	; 1
    31ce:	a1 f0       	breq	.+40     	; 0x31f8 <__addsf3x+0x96>
    31d0:	ff 0f       	add	r31, r31
    31d2:	bb 1f       	adc	r27, r27
    31d4:	66 1f       	adc	r22, r22
    31d6:	77 1f       	adc	r23, r23
    31d8:	88 1f       	adc	r24, r24
    31da:	c2 f7       	brpl	.-16     	; 0x31cc <__addsf3x+0x6a>
    31dc:	0e c0       	rjmp	.+28     	; 0x31fa <__addsf3x+0x98>
    31de:	ba 0f       	add	r27, r26
    31e0:	62 1f       	adc	r22, r18
    31e2:	73 1f       	adc	r23, r19
    31e4:	84 1f       	adc	r24, r20
    31e6:	48 f4       	brcc	.+18     	; 0x31fa <__addsf3x+0x98>
    31e8:	87 95       	ror	r24
    31ea:	77 95       	ror	r23
    31ec:	67 95       	ror	r22
    31ee:	b7 95       	ror	r27
    31f0:	f7 95       	ror	r31
    31f2:	9e 3f       	cpi	r25, 0xFE	; 254
    31f4:	08 f0       	brcs	.+2      	; 0x31f8 <__addsf3x+0x96>
    31f6:	b3 cf       	rjmp	.-154    	; 0x315e <__addsf3+0x1e>
    31f8:	93 95       	inc	r25
    31fa:	88 0f       	add	r24, r24
    31fc:	08 f0       	brcs	.+2      	; 0x3200 <__addsf3x+0x9e>
    31fe:	99 27       	eor	r25, r25
    3200:	ee 0f       	add	r30, r30
    3202:	97 95       	ror	r25
    3204:	87 95       	ror	r24
    3206:	08 95       	ret

00003208 <__cmpsf2>:
    3208:	6c d0       	rcall	.+216    	; 0x32e2 <__fp_cmp>
    320a:	08 f4       	brcc	.+2      	; 0x320e <__cmpsf2+0x6>
    320c:	81 e0       	ldi	r24, 0x01	; 1
    320e:	08 95       	ret

00003210 <__fixunssfsi>:
    3210:	bc d0       	rcall	.+376    	; 0x338a <__fp_splitA>
    3212:	88 f0       	brcs	.+34     	; 0x3236 <__fixunssfsi+0x26>
    3214:	9f 57       	subi	r25, 0x7F	; 127
    3216:	90 f0       	brcs	.+36     	; 0x323c <__fixunssfsi+0x2c>
    3218:	b9 2f       	mov	r27, r25
    321a:	99 27       	eor	r25, r25
    321c:	b7 51       	subi	r27, 0x17	; 23
    321e:	a0 f0       	brcs	.+40     	; 0x3248 <__fixunssfsi+0x38>
    3220:	d1 f0       	breq	.+52     	; 0x3256 <__fixunssfsi+0x46>
    3222:	66 0f       	add	r22, r22
    3224:	77 1f       	adc	r23, r23
    3226:	88 1f       	adc	r24, r24
    3228:	99 1f       	adc	r25, r25
    322a:	1a f0       	brmi	.+6      	; 0x3232 <__fixunssfsi+0x22>
    322c:	ba 95       	dec	r27
    322e:	c9 f7       	brne	.-14     	; 0x3222 <__fixunssfsi+0x12>
    3230:	12 c0       	rjmp	.+36     	; 0x3256 <__fixunssfsi+0x46>
    3232:	b1 30       	cpi	r27, 0x01	; 1
    3234:	81 f0       	breq	.+32     	; 0x3256 <__fixunssfsi+0x46>
    3236:	c3 d0       	rcall	.+390    	; 0x33be <__fp_zero>
    3238:	b1 e0       	ldi	r27, 0x01	; 1
    323a:	08 95       	ret
    323c:	c0 c0       	rjmp	.+384    	; 0x33be <__fp_zero>
    323e:	67 2f       	mov	r22, r23
    3240:	78 2f       	mov	r23, r24
    3242:	88 27       	eor	r24, r24
    3244:	b8 5f       	subi	r27, 0xF8	; 248
    3246:	39 f0       	breq	.+14     	; 0x3256 <__fixunssfsi+0x46>
    3248:	b9 3f       	cpi	r27, 0xF9	; 249
    324a:	cc f3       	brlt	.-14     	; 0x323e <__fixunssfsi+0x2e>
    324c:	86 95       	lsr	r24
    324e:	77 95       	ror	r23
    3250:	67 95       	ror	r22
    3252:	b3 95       	inc	r27
    3254:	d9 f7       	brne	.-10     	; 0x324c <__fixunssfsi+0x3c>
    3256:	3e f4       	brtc	.+14     	; 0x3266 <__fixunssfsi+0x56>
    3258:	90 95       	com	r25
    325a:	80 95       	com	r24
    325c:	70 95       	com	r23
    325e:	61 95       	neg	r22
    3260:	7f 4f       	sbci	r23, 0xFF	; 255
    3262:	8f 4f       	sbci	r24, 0xFF	; 255
    3264:	9f 4f       	sbci	r25, 0xFF	; 255
    3266:	08 95       	ret

00003268 <__floatunsisf>:
    3268:	e8 94       	clt
    326a:	09 c0       	rjmp	.+18     	; 0x327e <__floatsisf+0x12>

0000326c <__floatsisf>:
    326c:	97 fb       	bst	r25, 7
    326e:	3e f4       	brtc	.+14     	; 0x327e <__floatsisf+0x12>
    3270:	90 95       	com	r25
    3272:	80 95       	com	r24
    3274:	70 95       	com	r23
    3276:	61 95       	neg	r22
    3278:	7f 4f       	sbci	r23, 0xFF	; 255
    327a:	8f 4f       	sbci	r24, 0xFF	; 255
    327c:	9f 4f       	sbci	r25, 0xFF	; 255
    327e:	99 23       	and	r25, r25
    3280:	a9 f0       	breq	.+42     	; 0x32ac <__floatsisf+0x40>
    3282:	f9 2f       	mov	r31, r25
    3284:	96 e9       	ldi	r25, 0x96	; 150
    3286:	bb 27       	eor	r27, r27
    3288:	93 95       	inc	r25
    328a:	f6 95       	lsr	r31
    328c:	87 95       	ror	r24
    328e:	77 95       	ror	r23
    3290:	67 95       	ror	r22
    3292:	b7 95       	ror	r27
    3294:	f1 11       	cpse	r31, r1
    3296:	f8 cf       	rjmp	.-16     	; 0x3288 <__floatsisf+0x1c>
    3298:	fa f4       	brpl	.+62     	; 0x32d8 <__floatsisf+0x6c>
    329a:	bb 0f       	add	r27, r27
    329c:	11 f4       	brne	.+4      	; 0x32a2 <__floatsisf+0x36>
    329e:	60 ff       	sbrs	r22, 0
    32a0:	1b c0       	rjmp	.+54     	; 0x32d8 <__floatsisf+0x6c>
    32a2:	6f 5f       	subi	r22, 0xFF	; 255
    32a4:	7f 4f       	sbci	r23, 0xFF	; 255
    32a6:	8f 4f       	sbci	r24, 0xFF	; 255
    32a8:	9f 4f       	sbci	r25, 0xFF	; 255
    32aa:	16 c0       	rjmp	.+44     	; 0x32d8 <__floatsisf+0x6c>
    32ac:	88 23       	and	r24, r24
    32ae:	11 f0       	breq	.+4      	; 0x32b4 <__floatsisf+0x48>
    32b0:	96 e9       	ldi	r25, 0x96	; 150
    32b2:	11 c0       	rjmp	.+34     	; 0x32d6 <__floatsisf+0x6a>
    32b4:	77 23       	and	r23, r23
    32b6:	21 f0       	breq	.+8      	; 0x32c0 <__floatsisf+0x54>
    32b8:	9e e8       	ldi	r25, 0x8E	; 142
    32ba:	87 2f       	mov	r24, r23
    32bc:	76 2f       	mov	r23, r22
    32be:	05 c0       	rjmp	.+10     	; 0x32ca <__floatsisf+0x5e>
    32c0:	66 23       	and	r22, r22
    32c2:	71 f0       	breq	.+28     	; 0x32e0 <__floatsisf+0x74>
    32c4:	96 e8       	ldi	r25, 0x86	; 134
    32c6:	86 2f       	mov	r24, r22
    32c8:	70 e0       	ldi	r23, 0x00	; 0
    32ca:	60 e0       	ldi	r22, 0x00	; 0
    32cc:	2a f0       	brmi	.+10     	; 0x32d8 <__floatsisf+0x6c>
    32ce:	9a 95       	dec	r25
    32d0:	66 0f       	add	r22, r22
    32d2:	77 1f       	adc	r23, r23
    32d4:	88 1f       	adc	r24, r24
    32d6:	da f7       	brpl	.-10     	; 0x32ce <__floatsisf+0x62>
    32d8:	88 0f       	add	r24, r24
    32da:	96 95       	lsr	r25
    32dc:	87 95       	ror	r24
    32de:	97 f9       	bld	r25, 7
    32e0:	08 95       	ret

000032e2 <__fp_cmp>:
    32e2:	99 0f       	add	r25, r25
    32e4:	00 08       	sbc	r0, r0
    32e6:	55 0f       	add	r21, r21
    32e8:	aa 0b       	sbc	r26, r26
    32ea:	e0 e8       	ldi	r30, 0x80	; 128
    32ec:	fe ef       	ldi	r31, 0xFE	; 254
    32ee:	16 16       	cp	r1, r22
    32f0:	17 06       	cpc	r1, r23
    32f2:	e8 07       	cpc	r30, r24
    32f4:	f9 07       	cpc	r31, r25
    32f6:	c0 f0       	brcs	.+48     	; 0x3328 <__fp_cmp+0x46>
    32f8:	12 16       	cp	r1, r18
    32fa:	13 06       	cpc	r1, r19
    32fc:	e4 07       	cpc	r30, r20
    32fe:	f5 07       	cpc	r31, r21
    3300:	98 f0       	brcs	.+38     	; 0x3328 <__fp_cmp+0x46>
    3302:	62 1b       	sub	r22, r18
    3304:	73 0b       	sbc	r23, r19
    3306:	84 0b       	sbc	r24, r20
    3308:	95 0b       	sbc	r25, r21
    330a:	39 f4       	brne	.+14     	; 0x331a <__fp_cmp+0x38>
    330c:	0a 26       	eor	r0, r26
    330e:	61 f0       	breq	.+24     	; 0x3328 <__fp_cmp+0x46>
    3310:	23 2b       	or	r18, r19
    3312:	24 2b       	or	r18, r20
    3314:	25 2b       	or	r18, r21
    3316:	21 f4       	brne	.+8      	; 0x3320 <__fp_cmp+0x3e>
    3318:	08 95       	ret
    331a:	0a 26       	eor	r0, r26
    331c:	09 f4       	brne	.+2      	; 0x3320 <__fp_cmp+0x3e>
    331e:	a1 40       	sbci	r26, 0x01	; 1
    3320:	a6 95       	lsr	r26
    3322:	8f ef       	ldi	r24, 0xFF	; 255
    3324:	81 1d       	adc	r24, r1
    3326:	81 1d       	adc	r24, r1
    3328:	08 95       	ret

0000332a <__fp_inf>:
    332a:	97 f9       	bld	r25, 7
    332c:	9f 67       	ori	r25, 0x7F	; 127
    332e:	80 e8       	ldi	r24, 0x80	; 128
    3330:	70 e0       	ldi	r23, 0x00	; 0
    3332:	60 e0       	ldi	r22, 0x00	; 0
    3334:	08 95       	ret

00003336 <__fp_nan>:
    3336:	9f ef       	ldi	r25, 0xFF	; 255
    3338:	80 ec       	ldi	r24, 0xC0	; 192
    333a:	08 95       	ret

0000333c <__fp_pscA>:
    333c:	00 24       	eor	r0, r0
    333e:	0a 94       	dec	r0
    3340:	16 16       	cp	r1, r22
    3342:	17 06       	cpc	r1, r23
    3344:	18 06       	cpc	r1, r24
    3346:	09 06       	cpc	r0, r25
    3348:	08 95       	ret

0000334a <__fp_pscB>:
    334a:	00 24       	eor	r0, r0
    334c:	0a 94       	dec	r0
    334e:	12 16       	cp	r1, r18
    3350:	13 06       	cpc	r1, r19
    3352:	14 06       	cpc	r1, r20
    3354:	05 06       	cpc	r0, r21
    3356:	08 95       	ret

00003358 <__fp_round>:
    3358:	09 2e       	mov	r0, r25
    335a:	03 94       	inc	r0
    335c:	00 0c       	add	r0, r0
    335e:	11 f4       	brne	.+4      	; 0x3364 <__fp_round+0xc>
    3360:	88 23       	and	r24, r24
    3362:	52 f0       	brmi	.+20     	; 0x3378 <__fp_round+0x20>
    3364:	bb 0f       	add	r27, r27
    3366:	40 f4       	brcc	.+16     	; 0x3378 <__fp_round+0x20>
    3368:	bf 2b       	or	r27, r31
    336a:	11 f4       	brne	.+4      	; 0x3370 <__fp_round+0x18>
    336c:	60 ff       	sbrs	r22, 0
    336e:	04 c0       	rjmp	.+8      	; 0x3378 <__fp_round+0x20>
    3370:	6f 5f       	subi	r22, 0xFF	; 255
    3372:	7f 4f       	sbci	r23, 0xFF	; 255
    3374:	8f 4f       	sbci	r24, 0xFF	; 255
    3376:	9f 4f       	sbci	r25, 0xFF	; 255
    3378:	08 95       	ret

0000337a <__fp_split3>:
    337a:	57 fd       	sbrc	r21, 7
    337c:	90 58       	subi	r25, 0x80	; 128
    337e:	44 0f       	add	r20, r20
    3380:	55 1f       	adc	r21, r21
    3382:	59 f0       	breq	.+22     	; 0x339a <__fp_splitA+0x10>
    3384:	5f 3f       	cpi	r21, 0xFF	; 255
    3386:	71 f0       	breq	.+28     	; 0x33a4 <__fp_splitA+0x1a>
    3388:	47 95       	ror	r20

0000338a <__fp_splitA>:
    338a:	88 0f       	add	r24, r24
    338c:	97 fb       	bst	r25, 7
    338e:	99 1f       	adc	r25, r25
    3390:	61 f0       	breq	.+24     	; 0x33aa <__fp_splitA+0x20>
    3392:	9f 3f       	cpi	r25, 0xFF	; 255
    3394:	79 f0       	breq	.+30     	; 0x33b4 <__fp_splitA+0x2a>
    3396:	87 95       	ror	r24
    3398:	08 95       	ret
    339a:	12 16       	cp	r1, r18
    339c:	13 06       	cpc	r1, r19
    339e:	14 06       	cpc	r1, r20
    33a0:	55 1f       	adc	r21, r21
    33a2:	f2 cf       	rjmp	.-28     	; 0x3388 <__fp_split3+0xe>
    33a4:	46 95       	lsr	r20
    33a6:	f1 df       	rcall	.-30     	; 0x338a <__fp_splitA>
    33a8:	08 c0       	rjmp	.+16     	; 0x33ba <__fp_splitA+0x30>
    33aa:	16 16       	cp	r1, r22
    33ac:	17 06       	cpc	r1, r23
    33ae:	18 06       	cpc	r1, r24
    33b0:	99 1f       	adc	r25, r25
    33b2:	f1 cf       	rjmp	.-30     	; 0x3396 <__fp_splitA+0xc>
    33b4:	86 95       	lsr	r24
    33b6:	71 05       	cpc	r23, r1
    33b8:	61 05       	cpc	r22, r1
    33ba:	08 94       	sec
    33bc:	08 95       	ret

000033be <__fp_zero>:
    33be:	e8 94       	clt

000033c0 <__fp_szero>:
    33c0:	bb 27       	eor	r27, r27
    33c2:	66 27       	eor	r22, r22
    33c4:	77 27       	eor	r23, r23
    33c6:	cb 01       	movw	r24, r22
    33c8:	97 f9       	bld	r25, 7
    33ca:	08 95       	ret

000033cc <__gesf2>:
    33cc:	8a df       	rcall	.-236    	; 0x32e2 <__fp_cmp>
    33ce:	08 f4       	brcc	.+2      	; 0x33d2 <__gesf2+0x6>
    33d0:	8f ef       	ldi	r24, 0xFF	; 255
    33d2:	08 95       	ret

000033d4 <__mulsf3>:
    33d4:	0b d0       	rcall	.+22     	; 0x33ec <__mulsf3x>
    33d6:	c0 cf       	rjmp	.-128    	; 0x3358 <__fp_round>
    33d8:	b1 df       	rcall	.-158    	; 0x333c <__fp_pscA>
    33da:	28 f0       	brcs	.+10     	; 0x33e6 <__mulsf3+0x12>
    33dc:	b6 df       	rcall	.-148    	; 0x334a <__fp_pscB>
    33de:	18 f0       	brcs	.+6      	; 0x33e6 <__mulsf3+0x12>
    33e0:	95 23       	and	r25, r21
    33e2:	09 f0       	breq	.+2      	; 0x33e6 <__mulsf3+0x12>
    33e4:	a2 cf       	rjmp	.-188    	; 0x332a <__fp_inf>
    33e6:	a7 cf       	rjmp	.-178    	; 0x3336 <__fp_nan>
    33e8:	11 24       	eor	r1, r1
    33ea:	ea cf       	rjmp	.-44     	; 0x33c0 <__fp_szero>

000033ec <__mulsf3x>:
    33ec:	c6 df       	rcall	.-116    	; 0x337a <__fp_split3>
    33ee:	a0 f3       	brcs	.-24     	; 0x33d8 <__mulsf3+0x4>

000033f0 <__mulsf3_pse>:
    33f0:	95 9f       	mul	r25, r21
    33f2:	d1 f3       	breq	.-12     	; 0x33e8 <__mulsf3+0x14>
    33f4:	95 0f       	add	r25, r21
    33f6:	50 e0       	ldi	r21, 0x00	; 0
    33f8:	55 1f       	adc	r21, r21
    33fa:	62 9f       	mul	r22, r18
    33fc:	f0 01       	movw	r30, r0
    33fe:	72 9f       	mul	r23, r18
    3400:	bb 27       	eor	r27, r27
    3402:	f0 0d       	add	r31, r0
    3404:	b1 1d       	adc	r27, r1
    3406:	63 9f       	mul	r22, r19
    3408:	aa 27       	eor	r26, r26
    340a:	f0 0d       	add	r31, r0
    340c:	b1 1d       	adc	r27, r1
    340e:	aa 1f       	adc	r26, r26
    3410:	64 9f       	mul	r22, r20
    3412:	66 27       	eor	r22, r22
    3414:	b0 0d       	add	r27, r0
    3416:	a1 1d       	adc	r26, r1
    3418:	66 1f       	adc	r22, r22
    341a:	82 9f       	mul	r24, r18
    341c:	22 27       	eor	r18, r18
    341e:	b0 0d       	add	r27, r0
    3420:	a1 1d       	adc	r26, r1
    3422:	62 1f       	adc	r22, r18
    3424:	73 9f       	mul	r23, r19
    3426:	b0 0d       	add	r27, r0
    3428:	a1 1d       	adc	r26, r1
    342a:	62 1f       	adc	r22, r18
    342c:	83 9f       	mul	r24, r19
    342e:	a0 0d       	add	r26, r0
    3430:	61 1d       	adc	r22, r1
    3432:	22 1f       	adc	r18, r18
    3434:	74 9f       	mul	r23, r20
    3436:	33 27       	eor	r19, r19
    3438:	a0 0d       	add	r26, r0
    343a:	61 1d       	adc	r22, r1
    343c:	23 1f       	adc	r18, r19
    343e:	84 9f       	mul	r24, r20
    3440:	60 0d       	add	r22, r0
    3442:	21 1d       	adc	r18, r1
    3444:	82 2f       	mov	r24, r18
    3446:	76 2f       	mov	r23, r22
    3448:	6a 2f       	mov	r22, r26
    344a:	11 24       	eor	r1, r1
    344c:	9f 57       	subi	r25, 0x7F	; 127
    344e:	50 40       	sbci	r21, 0x00	; 0
    3450:	8a f0       	brmi	.+34     	; 0x3474 <__mulsf3_pse+0x84>
    3452:	e1 f0       	breq	.+56     	; 0x348c <__mulsf3_pse+0x9c>
    3454:	88 23       	and	r24, r24
    3456:	4a f0       	brmi	.+18     	; 0x346a <__mulsf3_pse+0x7a>
    3458:	ee 0f       	add	r30, r30
    345a:	ff 1f       	adc	r31, r31
    345c:	bb 1f       	adc	r27, r27
    345e:	66 1f       	adc	r22, r22
    3460:	77 1f       	adc	r23, r23
    3462:	88 1f       	adc	r24, r24
    3464:	91 50       	subi	r25, 0x01	; 1
    3466:	50 40       	sbci	r21, 0x00	; 0
    3468:	a9 f7       	brne	.-22     	; 0x3454 <__mulsf3_pse+0x64>
    346a:	9e 3f       	cpi	r25, 0xFE	; 254
    346c:	51 05       	cpc	r21, r1
    346e:	70 f0       	brcs	.+28     	; 0x348c <__mulsf3_pse+0x9c>
    3470:	5c cf       	rjmp	.-328    	; 0x332a <__fp_inf>
    3472:	a6 cf       	rjmp	.-180    	; 0x33c0 <__fp_szero>
    3474:	5f 3f       	cpi	r21, 0xFF	; 255
    3476:	ec f3       	brlt	.-6      	; 0x3472 <__mulsf3_pse+0x82>
    3478:	98 3e       	cpi	r25, 0xE8	; 232
    347a:	dc f3       	brlt	.-10     	; 0x3472 <__mulsf3_pse+0x82>
    347c:	86 95       	lsr	r24
    347e:	77 95       	ror	r23
    3480:	67 95       	ror	r22
    3482:	b7 95       	ror	r27
    3484:	f7 95       	ror	r31
    3486:	e7 95       	ror	r30
    3488:	9f 5f       	subi	r25, 0xFF	; 255
    348a:	c1 f7       	brne	.-16     	; 0x347c <__mulsf3_pse+0x8c>
    348c:	fe 2b       	or	r31, r30
    348e:	88 0f       	add	r24, r24
    3490:	91 1d       	adc	r25, r1
    3492:	96 95       	lsr	r25
    3494:	87 95       	ror	r24
    3496:	97 f9       	bld	r25, 7
    3498:	08 95       	ret

0000349a <atoi>:
    349a:	fc 01       	movw	r30, r24
    349c:	88 27       	eor	r24, r24
    349e:	99 27       	eor	r25, r25
    34a0:	e8 94       	clt
    34a2:	21 91       	ld	r18, Z+
    34a4:	20 32       	cpi	r18, 0x20	; 32
    34a6:	e9 f3       	breq	.-6      	; 0x34a2 <atoi+0x8>
    34a8:	29 30       	cpi	r18, 0x09	; 9
    34aa:	10 f0       	brcs	.+4      	; 0x34b0 <atoi+0x16>
    34ac:	2e 30       	cpi	r18, 0x0E	; 14
    34ae:	c8 f3       	brcs	.-14     	; 0x34a2 <atoi+0x8>
    34b0:	2b 32       	cpi	r18, 0x2B	; 43
    34b2:	41 f0       	breq	.+16     	; 0x34c4 <atoi+0x2a>
    34b4:	2d 32       	cpi	r18, 0x2D	; 45
    34b6:	39 f4       	brne	.+14     	; 0x34c6 <atoi+0x2c>
    34b8:	68 94       	set
    34ba:	04 c0       	rjmp	.+8      	; 0x34c4 <atoi+0x2a>
    34bc:	0e 94 82 1a 	call	0x3504	; 0x3504 <__mulhi_const_10>
    34c0:	82 0f       	add	r24, r18
    34c2:	91 1d       	adc	r25, r1
    34c4:	21 91       	ld	r18, Z+
    34c6:	20 53       	subi	r18, 0x30	; 48
    34c8:	2a 30       	cpi	r18, 0x0A	; 10
    34ca:	c0 f3       	brcs	.-16     	; 0x34bc <atoi+0x22>
    34cc:	1e f4       	brtc	.+6      	; 0x34d4 <atoi+0x3a>
    34ce:	90 95       	com	r25
    34d0:	81 95       	neg	r24
    34d2:	9f 4f       	sbci	r25, 0xFF	; 255
    34d4:	08 95       	ret

000034d6 <memcpy>:
    34d6:	fb 01       	movw	r30, r22
    34d8:	dc 01       	movw	r26, r24
    34da:	02 c0       	rjmp	.+4      	; 0x34e0 <memcpy+0xa>
    34dc:	01 90       	ld	r0, Z+
    34de:	0d 92       	st	X+, r0
    34e0:	41 50       	subi	r20, 0x01	; 1
    34e2:	50 40       	sbci	r21, 0x00	; 0
    34e4:	d8 f7       	brcc	.-10     	; 0x34dc <memcpy+0x6>
    34e6:	08 95       	ret

000034e8 <strncmp>:
    34e8:	fb 01       	movw	r30, r22
    34ea:	dc 01       	movw	r26, r24
    34ec:	41 50       	subi	r20, 0x01	; 1
    34ee:	50 40       	sbci	r21, 0x00	; 0
    34f0:	30 f0       	brcs	.+12     	; 0x34fe <strncmp+0x16>
    34f2:	8d 91       	ld	r24, X+
    34f4:	01 90       	ld	r0, Z+
    34f6:	80 19       	sub	r24, r0
    34f8:	19 f4       	brne	.+6      	; 0x3500 <strncmp+0x18>
    34fa:	00 20       	and	r0, r0
    34fc:	b9 f7       	brne	.-18     	; 0x34ec <strncmp+0x4>
    34fe:	88 1b       	sub	r24, r24
    3500:	99 0b       	sbc	r25, r25
    3502:	08 95       	ret

00003504 <__mulhi_const_10>:
    3504:	7a e0       	ldi	r23, 0x0A	; 10
    3506:	97 9f       	mul	r25, r23
    3508:	90 2d       	mov	r25, r0
    350a:	87 9f       	mul	r24, r23
    350c:	80 2d       	mov	r24, r0
    350e:	91 0d       	add	r25, r1
    3510:	11 24       	eor	r1, r1
    3512:	08 95       	ret

00003514 <vsprintf>:
    3514:	0f 93       	push	r16
    3516:	1f 93       	push	r17
    3518:	cf 93       	push	r28
    351a:	df 93       	push	r29
    351c:	cd b7       	in	r28, 0x3d	; 61
    351e:	de b7       	in	r29, 0x3e	; 62
    3520:	2e 97       	sbiw	r28, 0x0e	; 14
    3522:	0f b6       	in	r0, 0x3f	; 63
    3524:	f8 94       	cli
    3526:	de bf       	out	0x3e, r29	; 62
    3528:	0f be       	out	0x3f, r0	; 63
    352a:	cd bf       	out	0x3d, r28	; 61
    352c:	8c 01       	movw	r16, r24
    352e:	86 e0       	ldi	r24, 0x06	; 6
    3530:	8c 83       	std	Y+4, r24	; 0x04
    3532:	1a 83       	std	Y+2, r17	; 0x02
    3534:	09 83       	std	Y+1, r16	; 0x01
    3536:	8f ef       	ldi	r24, 0xFF	; 255
    3538:	9f e7       	ldi	r25, 0x7F	; 127
    353a:	9e 83       	std	Y+6, r25	; 0x06
    353c:	8d 83       	std	Y+5, r24	; 0x05
    353e:	ce 01       	movw	r24, r28
    3540:	01 96       	adiw	r24, 0x01	; 1
    3542:	0e 94 b3 1a 	call	0x3566	; 0x3566 <vfprintf>
    3546:	ef 81       	ldd	r30, Y+7	; 0x07
    3548:	f8 85       	ldd	r31, Y+8	; 0x08
    354a:	e0 0f       	add	r30, r16
    354c:	f1 1f       	adc	r31, r17
    354e:	10 82       	st	Z, r1
    3550:	2e 96       	adiw	r28, 0x0e	; 14
    3552:	0f b6       	in	r0, 0x3f	; 63
    3554:	f8 94       	cli
    3556:	de bf       	out	0x3e, r29	; 62
    3558:	0f be       	out	0x3f, r0	; 63
    355a:	cd bf       	out	0x3d, r28	; 61
    355c:	df 91       	pop	r29
    355e:	cf 91       	pop	r28
    3560:	1f 91       	pop	r17
    3562:	0f 91       	pop	r16
    3564:	08 95       	ret

00003566 <vfprintf>:
    3566:	2f 92       	push	r2
    3568:	3f 92       	push	r3
    356a:	4f 92       	push	r4
    356c:	5f 92       	push	r5
    356e:	6f 92       	push	r6
    3570:	7f 92       	push	r7
    3572:	8f 92       	push	r8
    3574:	9f 92       	push	r9
    3576:	af 92       	push	r10
    3578:	bf 92       	push	r11
    357a:	cf 92       	push	r12
    357c:	df 92       	push	r13
    357e:	ef 92       	push	r14
    3580:	ff 92       	push	r15
    3582:	0f 93       	push	r16
    3584:	1f 93       	push	r17
    3586:	cf 93       	push	r28
    3588:	df 93       	push	r29
    358a:	cd b7       	in	r28, 0x3d	; 61
    358c:	de b7       	in	r29, 0x3e	; 62
    358e:	2d 97       	sbiw	r28, 0x0d	; 13
    3590:	0f b6       	in	r0, 0x3f	; 63
    3592:	f8 94       	cli
    3594:	de bf       	out	0x3e, r29	; 62
    3596:	0f be       	out	0x3f, r0	; 63
    3598:	cd bf       	out	0x3d, r28	; 61
    359a:	3c 01       	movw	r6, r24
    359c:	7d 87       	std	Y+13, r23	; 0x0d
    359e:	6c 87       	std	Y+12, r22	; 0x0c
    35a0:	5a 01       	movw	r10, r20
    35a2:	fc 01       	movw	r30, r24
    35a4:	17 82       	std	Z+7, r1	; 0x07
    35a6:	16 82       	std	Z+6, r1	; 0x06
    35a8:	83 81       	ldd	r24, Z+3	; 0x03
    35aa:	81 ff       	sbrs	r24, 1
    35ac:	c8 c1       	rjmp	.+912    	; 0x393e <vfprintf+0x3d8>
    35ae:	2e 01       	movw	r4, r28
    35b0:	08 94       	sec
    35b2:	41 1c       	adc	r4, r1
    35b4:	51 1c       	adc	r5, r1
    35b6:	f3 01       	movw	r30, r6
    35b8:	93 81       	ldd	r25, Z+3	; 0x03
    35ba:	ec 85       	ldd	r30, Y+12	; 0x0c
    35bc:	fd 85       	ldd	r31, Y+13	; 0x0d
    35be:	93 fd       	sbrc	r25, 3
    35c0:	85 91       	lpm	r24, Z+
    35c2:	93 ff       	sbrs	r25, 3
    35c4:	81 91       	ld	r24, Z+
    35c6:	fd 87       	std	Y+13, r31	; 0x0d
    35c8:	ec 87       	std	Y+12, r30	; 0x0c
    35ca:	88 23       	and	r24, r24
    35cc:	09 f4       	brne	.+2      	; 0x35d0 <vfprintf+0x6a>
    35ce:	b3 c1       	rjmp	.+870    	; 0x3936 <vfprintf+0x3d0>
    35d0:	85 32       	cpi	r24, 0x25	; 37
    35d2:	41 f4       	brne	.+16     	; 0x35e4 <vfprintf+0x7e>
    35d4:	93 fd       	sbrc	r25, 3
    35d6:	85 91       	lpm	r24, Z+
    35d8:	93 ff       	sbrs	r25, 3
    35da:	81 91       	ld	r24, Z+
    35dc:	fd 87       	std	Y+13, r31	; 0x0d
    35de:	ec 87       	std	Y+12, r30	; 0x0c
    35e0:	85 32       	cpi	r24, 0x25	; 37
    35e2:	29 f4       	brne	.+10     	; 0x35ee <vfprintf+0x88>
    35e4:	90 e0       	ldi	r25, 0x00	; 0
    35e6:	b3 01       	movw	r22, r6
    35e8:	0e 94 d0 1c 	call	0x39a0	; 0x39a0 <fputc>
    35ec:	e4 cf       	rjmp	.-56     	; 0x35b6 <vfprintf+0x50>
    35ee:	ff 24       	eor	r15, r15
    35f0:	ee 24       	eor	r14, r14
    35f2:	10 e0       	ldi	r17, 0x00	; 0
    35f4:	10 32       	cpi	r17, 0x20	; 32
    35f6:	b0 f4       	brcc	.+44     	; 0x3624 <vfprintf+0xbe>
    35f8:	8b 32       	cpi	r24, 0x2B	; 43
    35fa:	69 f0       	breq	.+26     	; 0x3616 <vfprintf+0xb0>
    35fc:	8c 32       	cpi	r24, 0x2C	; 44
    35fe:	28 f4       	brcc	.+10     	; 0x360a <vfprintf+0xa4>
    3600:	80 32       	cpi	r24, 0x20	; 32
    3602:	51 f0       	breq	.+20     	; 0x3618 <vfprintf+0xb2>
    3604:	83 32       	cpi	r24, 0x23	; 35
    3606:	71 f4       	brne	.+28     	; 0x3624 <vfprintf+0xbe>
    3608:	0b c0       	rjmp	.+22     	; 0x3620 <vfprintf+0xba>
    360a:	8d 32       	cpi	r24, 0x2D	; 45
    360c:	39 f0       	breq	.+14     	; 0x361c <vfprintf+0xb6>
    360e:	80 33       	cpi	r24, 0x30	; 48
    3610:	49 f4       	brne	.+18     	; 0x3624 <vfprintf+0xbe>
    3612:	11 60       	ori	r17, 0x01	; 1
    3614:	2c c0       	rjmp	.+88     	; 0x366e <vfprintf+0x108>
    3616:	12 60       	ori	r17, 0x02	; 2
    3618:	14 60       	ori	r17, 0x04	; 4
    361a:	29 c0       	rjmp	.+82     	; 0x366e <vfprintf+0x108>
    361c:	18 60       	ori	r17, 0x08	; 8
    361e:	27 c0       	rjmp	.+78     	; 0x366e <vfprintf+0x108>
    3620:	10 61       	ori	r17, 0x10	; 16
    3622:	25 c0       	rjmp	.+74     	; 0x366e <vfprintf+0x108>
    3624:	17 fd       	sbrc	r17, 7
    3626:	2e c0       	rjmp	.+92     	; 0x3684 <vfprintf+0x11e>
    3628:	28 2f       	mov	r18, r24
    362a:	20 53       	subi	r18, 0x30	; 48
    362c:	2a 30       	cpi	r18, 0x0A	; 10
    362e:	98 f4       	brcc	.+38     	; 0x3656 <vfprintf+0xf0>
    3630:	16 ff       	sbrs	r17, 6
    3632:	08 c0       	rjmp	.+16     	; 0x3644 <vfprintf+0xde>
    3634:	8f 2d       	mov	r24, r15
    3636:	88 0f       	add	r24, r24
    3638:	f8 2e       	mov	r15, r24
    363a:	ff 0c       	add	r15, r15
    363c:	ff 0c       	add	r15, r15
    363e:	f8 0e       	add	r15, r24
    3640:	f2 0e       	add	r15, r18
    3642:	15 c0       	rjmp	.+42     	; 0x366e <vfprintf+0x108>
    3644:	8e 2d       	mov	r24, r14
    3646:	88 0f       	add	r24, r24
    3648:	e8 2e       	mov	r14, r24
    364a:	ee 0c       	add	r14, r14
    364c:	ee 0c       	add	r14, r14
    364e:	e8 0e       	add	r14, r24
    3650:	e2 0e       	add	r14, r18
    3652:	10 62       	ori	r17, 0x20	; 32
    3654:	0c c0       	rjmp	.+24     	; 0x366e <vfprintf+0x108>
    3656:	8e 32       	cpi	r24, 0x2E	; 46
    3658:	21 f4       	brne	.+8      	; 0x3662 <vfprintf+0xfc>
    365a:	16 fd       	sbrc	r17, 6
    365c:	6c c1       	rjmp	.+728    	; 0x3936 <vfprintf+0x3d0>
    365e:	10 64       	ori	r17, 0x40	; 64
    3660:	06 c0       	rjmp	.+12     	; 0x366e <vfprintf+0x108>
    3662:	8c 36       	cpi	r24, 0x6C	; 108
    3664:	11 f4       	brne	.+4      	; 0x366a <vfprintf+0x104>
    3666:	10 68       	ori	r17, 0x80	; 128
    3668:	02 c0       	rjmp	.+4      	; 0x366e <vfprintf+0x108>
    366a:	88 36       	cpi	r24, 0x68	; 104
    366c:	59 f4       	brne	.+22     	; 0x3684 <vfprintf+0x11e>
    366e:	ec 85       	ldd	r30, Y+12	; 0x0c
    3670:	fd 85       	ldd	r31, Y+13	; 0x0d
    3672:	93 fd       	sbrc	r25, 3
    3674:	85 91       	lpm	r24, Z+
    3676:	93 ff       	sbrs	r25, 3
    3678:	81 91       	ld	r24, Z+
    367a:	fd 87       	std	Y+13, r31	; 0x0d
    367c:	ec 87       	std	Y+12, r30	; 0x0c
    367e:	88 23       	and	r24, r24
    3680:	09 f0       	breq	.+2      	; 0x3684 <vfprintf+0x11e>
    3682:	b8 cf       	rjmp	.-144    	; 0x35f4 <vfprintf+0x8e>
    3684:	98 2f       	mov	r25, r24
    3686:	95 54       	subi	r25, 0x45	; 69
    3688:	93 30       	cpi	r25, 0x03	; 3
    368a:	18 f0       	brcs	.+6      	; 0x3692 <vfprintf+0x12c>
    368c:	90 52       	subi	r25, 0x20	; 32
    368e:	93 30       	cpi	r25, 0x03	; 3
    3690:	38 f4       	brcc	.+14     	; 0x36a0 <vfprintf+0x13a>
    3692:	24 e0       	ldi	r18, 0x04	; 4
    3694:	30 e0       	ldi	r19, 0x00	; 0
    3696:	a2 0e       	add	r10, r18
    3698:	b3 1e       	adc	r11, r19
    369a:	3f e3       	ldi	r19, 0x3F	; 63
    369c:	39 83       	std	Y+1, r19	; 0x01
    369e:	0f c0       	rjmp	.+30     	; 0x36be <vfprintf+0x158>
    36a0:	83 36       	cpi	r24, 0x63	; 99
    36a2:	31 f0       	breq	.+12     	; 0x36b0 <vfprintf+0x14a>
    36a4:	83 37       	cpi	r24, 0x73	; 115
    36a6:	81 f0       	breq	.+32     	; 0x36c8 <vfprintf+0x162>
    36a8:	83 35       	cpi	r24, 0x53	; 83
    36aa:	09 f0       	breq	.+2      	; 0x36ae <vfprintf+0x148>
    36ac:	5a c0       	rjmp	.+180    	; 0x3762 <vfprintf+0x1fc>
    36ae:	22 c0       	rjmp	.+68     	; 0x36f4 <vfprintf+0x18e>
    36b0:	f5 01       	movw	r30, r10
    36b2:	80 81       	ld	r24, Z
    36b4:	89 83       	std	Y+1, r24	; 0x01
    36b6:	22 e0       	ldi	r18, 0x02	; 2
    36b8:	30 e0       	ldi	r19, 0x00	; 0
    36ba:	a2 0e       	add	r10, r18
    36bc:	b3 1e       	adc	r11, r19
    36be:	21 e0       	ldi	r18, 0x01	; 1
    36c0:	c2 2e       	mov	r12, r18
    36c2:	d1 2c       	mov	r13, r1
    36c4:	42 01       	movw	r8, r4
    36c6:	14 c0       	rjmp	.+40     	; 0x36f0 <vfprintf+0x18a>
    36c8:	92 e0       	ldi	r25, 0x02	; 2
    36ca:	29 2e       	mov	r2, r25
    36cc:	31 2c       	mov	r3, r1
    36ce:	2a 0c       	add	r2, r10
    36d0:	3b 1c       	adc	r3, r11
    36d2:	f5 01       	movw	r30, r10
    36d4:	80 80       	ld	r8, Z
    36d6:	91 80       	ldd	r9, Z+1	; 0x01
    36d8:	16 ff       	sbrs	r17, 6
    36da:	03 c0       	rjmp	.+6      	; 0x36e2 <vfprintf+0x17c>
    36dc:	6f 2d       	mov	r22, r15
    36de:	70 e0       	ldi	r23, 0x00	; 0
    36e0:	02 c0       	rjmp	.+4      	; 0x36e6 <vfprintf+0x180>
    36e2:	6f ef       	ldi	r22, 0xFF	; 255
    36e4:	7f ef       	ldi	r23, 0xFF	; 255
    36e6:	c4 01       	movw	r24, r8
    36e8:	0e 94 c5 1c 	call	0x398a	; 0x398a <strnlen>
    36ec:	6c 01       	movw	r12, r24
    36ee:	51 01       	movw	r10, r2
    36f0:	1f 77       	andi	r17, 0x7F	; 127
    36f2:	15 c0       	rjmp	.+42     	; 0x371e <vfprintf+0x1b8>
    36f4:	82 e0       	ldi	r24, 0x02	; 2
    36f6:	28 2e       	mov	r2, r24
    36f8:	31 2c       	mov	r3, r1
    36fa:	2a 0c       	add	r2, r10
    36fc:	3b 1c       	adc	r3, r11
    36fe:	f5 01       	movw	r30, r10
    3700:	80 80       	ld	r8, Z
    3702:	91 80       	ldd	r9, Z+1	; 0x01
    3704:	16 ff       	sbrs	r17, 6
    3706:	03 c0       	rjmp	.+6      	; 0x370e <vfprintf+0x1a8>
    3708:	6f 2d       	mov	r22, r15
    370a:	70 e0       	ldi	r23, 0x00	; 0
    370c:	02 c0       	rjmp	.+4      	; 0x3712 <vfprintf+0x1ac>
    370e:	6f ef       	ldi	r22, 0xFF	; 255
    3710:	7f ef       	ldi	r23, 0xFF	; 255
    3712:	c4 01       	movw	r24, r8
    3714:	0e 94 ba 1c 	call	0x3974	; 0x3974 <strnlen_P>
    3718:	6c 01       	movw	r12, r24
    371a:	10 68       	ori	r17, 0x80	; 128
    371c:	51 01       	movw	r10, r2
    371e:	13 fd       	sbrc	r17, 3
    3720:	1c c0       	rjmp	.+56     	; 0x375a <vfprintf+0x1f4>
    3722:	06 c0       	rjmp	.+12     	; 0x3730 <vfprintf+0x1ca>
    3724:	80 e2       	ldi	r24, 0x20	; 32
    3726:	90 e0       	ldi	r25, 0x00	; 0
    3728:	b3 01       	movw	r22, r6
    372a:	0e 94 d0 1c 	call	0x39a0	; 0x39a0 <fputc>
    372e:	ea 94       	dec	r14
    3730:	8e 2d       	mov	r24, r14
    3732:	90 e0       	ldi	r25, 0x00	; 0
    3734:	c8 16       	cp	r12, r24
    3736:	d9 06       	cpc	r13, r25
    3738:	a8 f3       	brcs	.-22     	; 0x3724 <vfprintf+0x1be>
    373a:	0f c0       	rjmp	.+30     	; 0x375a <vfprintf+0x1f4>
    373c:	f4 01       	movw	r30, r8
    373e:	17 fd       	sbrc	r17, 7
    3740:	85 91       	lpm	r24, Z+
    3742:	17 ff       	sbrs	r17, 7
    3744:	81 91       	ld	r24, Z+
    3746:	4f 01       	movw	r8, r30
    3748:	90 e0       	ldi	r25, 0x00	; 0
    374a:	b3 01       	movw	r22, r6
    374c:	0e 94 d0 1c 	call	0x39a0	; 0x39a0 <fputc>
    3750:	e1 10       	cpse	r14, r1
    3752:	ea 94       	dec	r14
    3754:	08 94       	sec
    3756:	c1 08       	sbc	r12, r1
    3758:	d1 08       	sbc	r13, r1
    375a:	c1 14       	cp	r12, r1
    375c:	d1 04       	cpc	r13, r1
    375e:	71 f7       	brne	.-36     	; 0x373c <vfprintf+0x1d6>
    3760:	e7 c0       	rjmp	.+462    	; 0x3930 <vfprintf+0x3ca>
    3762:	84 36       	cpi	r24, 0x64	; 100
    3764:	11 f0       	breq	.+4      	; 0x376a <vfprintf+0x204>
    3766:	89 36       	cpi	r24, 0x69	; 105
    3768:	51 f5       	brne	.+84     	; 0x37be <vfprintf+0x258>
    376a:	f5 01       	movw	r30, r10
    376c:	17 ff       	sbrs	r17, 7
    376e:	07 c0       	rjmp	.+14     	; 0x377e <vfprintf+0x218>
    3770:	80 81       	ld	r24, Z
    3772:	91 81       	ldd	r25, Z+1	; 0x01
    3774:	a2 81       	ldd	r26, Z+2	; 0x02
    3776:	b3 81       	ldd	r27, Z+3	; 0x03
    3778:	24 e0       	ldi	r18, 0x04	; 4
    377a:	30 e0       	ldi	r19, 0x00	; 0
    377c:	08 c0       	rjmp	.+16     	; 0x378e <vfprintf+0x228>
    377e:	80 81       	ld	r24, Z
    3780:	91 81       	ldd	r25, Z+1	; 0x01
    3782:	aa 27       	eor	r26, r26
    3784:	97 fd       	sbrc	r25, 7
    3786:	a0 95       	com	r26
    3788:	ba 2f       	mov	r27, r26
    378a:	22 e0       	ldi	r18, 0x02	; 2
    378c:	30 e0       	ldi	r19, 0x00	; 0
    378e:	a2 0e       	add	r10, r18
    3790:	b3 1e       	adc	r11, r19
    3792:	01 2f       	mov	r16, r17
    3794:	0f 76       	andi	r16, 0x6F	; 111
    3796:	b7 ff       	sbrs	r27, 7
    3798:	08 c0       	rjmp	.+16     	; 0x37aa <vfprintf+0x244>
    379a:	b0 95       	com	r27
    379c:	a0 95       	com	r26
    379e:	90 95       	com	r25
    37a0:	81 95       	neg	r24
    37a2:	9f 4f       	sbci	r25, 0xFF	; 255
    37a4:	af 4f       	sbci	r26, 0xFF	; 255
    37a6:	bf 4f       	sbci	r27, 0xFF	; 255
    37a8:	00 68       	ori	r16, 0x80	; 128
    37aa:	bc 01       	movw	r22, r24
    37ac:	cd 01       	movw	r24, r26
    37ae:	a2 01       	movw	r20, r4
    37b0:	2a e0       	ldi	r18, 0x0A	; 10
    37b2:	30 e0       	ldi	r19, 0x00	; 0
    37b4:	0e 94 fc 1c 	call	0x39f8	; 0x39f8 <__ultoa_invert>
    37b8:	d8 2e       	mov	r13, r24
    37ba:	d4 18       	sub	r13, r4
    37bc:	3f c0       	rjmp	.+126    	; 0x383c <vfprintf+0x2d6>
    37be:	85 37       	cpi	r24, 0x75	; 117
    37c0:	21 f4       	brne	.+8      	; 0x37ca <vfprintf+0x264>
    37c2:	1f 7e       	andi	r17, 0xEF	; 239
    37c4:	2a e0       	ldi	r18, 0x0A	; 10
    37c6:	30 e0       	ldi	r19, 0x00	; 0
    37c8:	20 c0       	rjmp	.+64     	; 0x380a <vfprintf+0x2a4>
    37ca:	19 7f       	andi	r17, 0xF9	; 249
    37cc:	8f 36       	cpi	r24, 0x6F	; 111
    37ce:	a9 f0       	breq	.+42     	; 0x37fa <vfprintf+0x294>
    37d0:	80 37       	cpi	r24, 0x70	; 112
    37d2:	20 f4       	brcc	.+8      	; 0x37dc <vfprintf+0x276>
    37d4:	88 35       	cpi	r24, 0x58	; 88
    37d6:	09 f0       	breq	.+2      	; 0x37da <vfprintf+0x274>
    37d8:	ae c0       	rjmp	.+348    	; 0x3936 <vfprintf+0x3d0>
    37da:	0b c0       	rjmp	.+22     	; 0x37f2 <vfprintf+0x28c>
    37dc:	80 37       	cpi	r24, 0x70	; 112
    37de:	21 f0       	breq	.+8      	; 0x37e8 <vfprintf+0x282>
    37e0:	88 37       	cpi	r24, 0x78	; 120
    37e2:	09 f0       	breq	.+2      	; 0x37e6 <vfprintf+0x280>
    37e4:	a8 c0       	rjmp	.+336    	; 0x3936 <vfprintf+0x3d0>
    37e6:	01 c0       	rjmp	.+2      	; 0x37ea <vfprintf+0x284>
    37e8:	10 61       	ori	r17, 0x10	; 16
    37ea:	14 ff       	sbrs	r17, 4
    37ec:	09 c0       	rjmp	.+18     	; 0x3800 <vfprintf+0x29a>
    37ee:	14 60       	ori	r17, 0x04	; 4
    37f0:	07 c0       	rjmp	.+14     	; 0x3800 <vfprintf+0x29a>
    37f2:	14 ff       	sbrs	r17, 4
    37f4:	08 c0       	rjmp	.+16     	; 0x3806 <vfprintf+0x2a0>
    37f6:	16 60       	ori	r17, 0x06	; 6
    37f8:	06 c0       	rjmp	.+12     	; 0x3806 <vfprintf+0x2a0>
    37fa:	28 e0       	ldi	r18, 0x08	; 8
    37fc:	30 e0       	ldi	r19, 0x00	; 0
    37fe:	05 c0       	rjmp	.+10     	; 0x380a <vfprintf+0x2a4>
    3800:	20 e1       	ldi	r18, 0x10	; 16
    3802:	30 e0       	ldi	r19, 0x00	; 0
    3804:	02 c0       	rjmp	.+4      	; 0x380a <vfprintf+0x2a4>
    3806:	20 e1       	ldi	r18, 0x10	; 16
    3808:	32 e0       	ldi	r19, 0x02	; 2
    380a:	f5 01       	movw	r30, r10
    380c:	17 ff       	sbrs	r17, 7
    380e:	07 c0       	rjmp	.+14     	; 0x381e <vfprintf+0x2b8>
    3810:	60 81       	ld	r22, Z
    3812:	71 81       	ldd	r23, Z+1	; 0x01
    3814:	82 81       	ldd	r24, Z+2	; 0x02
    3816:	93 81       	ldd	r25, Z+3	; 0x03
    3818:	44 e0       	ldi	r20, 0x04	; 4
    381a:	50 e0       	ldi	r21, 0x00	; 0
    381c:	06 c0       	rjmp	.+12     	; 0x382a <vfprintf+0x2c4>
    381e:	60 81       	ld	r22, Z
    3820:	71 81       	ldd	r23, Z+1	; 0x01
    3822:	80 e0       	ldi	r24, 0x00	; 0
    3824:	90 e0       	ldi	r25, 0x00	; 0
    3826:	42 e0       	ldi	r20, 0x02	; 2
    3828:	50 e0       	ldi	r21, 0x00	; 0
    382a:	a4 0e       	add	r10, r20
    382c:	b5 1e       	adc	r11, r21
    382e:	a2 01       	movw	r20, r4
    3830:	0e 94 fc 1c 	call	0x39f8	; 0x39f8 <__ultoa_invert>
    3834:	d8 2e       	mov	r13, r24
    3836:	d4 18       	sub	r13, r4
    3838:	01 2f       	mov	r16, r17
    383a:	0f 77       	andi	r16, 0x7F	; 127
    383c:	06 ff       	sbrs	r16, 6
    383e:	09 c0       	rjmp	.+18     	; 0x3852 <vfprintf+0x2ec>
    3840:	0e 7f       	andi	r16, 0xFE	; 254
    3842:	df 14       	cp	r13, r15
    3844:	30 f4       	brcc	.+12     	; 0x3852 <vfprintf+0x2ec>
    3846:	04 ff       	sbrs	r16, 4
    3848:	06 c0       	rjmp	.+12     	; 0x3856 <vfprintf+0x2f0>
    384a:	02 fd       	sbrc	r16, 2
    384c:	04 c0       	rjmp	.+8      	; 0x3856 <vfprintf+0x2f0>
    384e:	0f 7e       	andi	r16, 0xEF	; 239
    3850:	02 c0       	rjmp	.+4      	; 0x3856 <vfprintf+0x2f0>
    3852:	1d 2d       	mov	r17, r13
    3854:	01 c0       	rjmp	.+2      	; 0x3858 <vfprintf+0x2f2>
    3856:	1f 2d       	mov	r17, r15
    3858:	80 2f       	mov	r24, r16
    385a:	90 e0       	ldi	r25, 0x00	; 0
    385c:	04 ff       	sbrs	r16, 4
    385e:	0c c0       	rjmp	.+24     	; 0x3878 <vfprintf+0x312>
    3860:	fe 01       	movw	r30, r28
    3862:	ed 0d       	add	r30, r13
    3864:	f1 1d       	adc	r31, r1
    3866:	20 81       	ld	r18, Z
    3868:	20 33       	cpi	r18, 0x30	; 48
    386a:	11 f4       	brne	.+4      	; 0x3870 <vfprintf+0x30a>
    386c:	09 7e       	andi	r16, 0xE9	; 233
    386e:	09 c0       	rjmp	.+18     	; 0x3882 <vfprintf+0x31c>
    3870:	02 ff       	sbrs	r16, 2
    3872:	06 c0       	rjmp	.+12     	; 0x3880 <vfprintf+0x31a>
    3874:	1e 5f       	subi	r17, 0xFE	; 254
    3876:	05 c0       	rjmp	.+10     	; 0x3882 <vfprintf+0x31c>
    3878:	86 78       	andi	r24, 0x86	; 134
    387a:	90 70       	andi	r25, 0x00	; 0
    387c:	00 97       	sbiw	r24, 0x00	; 0
    387e:	09 f0       	breq	.+2      	; 0x3882 <vfprintf+0x31c>
    3880:	1f 5f       	subi	r17, 0xFF	; 255
    3882:	80 2e       	mov	r8, r16
    3884:	99 24       	eor	r9, r9
    3886:	03 fd       	sbrc	r16, 3
    3888:	12 c0       	rjmp	.+36     	; 0x38ae <vfprintf+0x348>
    388a:	00 ff       	sbrs	r16, 0
    388c:	0d c0       	rjmp	.+26     	; 0x38a8 <vfprintf+0x342>
    388e:	fd 2c       	mov	r15, r13
    3890:	1e 15       	cp	r17, r14
    3892:	50 f4       	brcc	.+20     	; 0x38a8 <vfprintf+0x342>
    3894:	fe 0c       	add	r15, r14
    3896:	f1 1a       	sub	r15, r17
    3898:	1e 2d       	mov	r17, r14
    389a:	06 c0       	rjmp	.+12     	; 0x38a8 <vfprintf+0x342>
    389c:	80 e2       	ldi	r24, 0x20	; 32
    389e:	90 e0       	ldi	r25, 0x00	; 0
    38a0:	b3 01       	movw	r22, r6
    38a2:	0e 94 d0 1c 	call	0x39a0	; 0x39a0 <fputc>
    38a6:	1f 5f       	subi	r17, 0xFF	; 255
    38a8:	1e 15       	cp	r17, r14
    38aa:	c0 f3       	brcs	.-16     	; 0x389c <vfprintf+0x336>
    38ac:	04 c0       	rjmp	.+8      	; 0x38b6 <vfprintf+0x350>
    38ae:	1e 15       	cp	r17, r14
    38b0:	10 f4       	brcc	.+4      	; 0x38b6 <vfprintf+0x350>
    38b2:	e1 1a       	sub	r14, r17
    38b4:	01 c0       	rjmp	.+2      	; 0x38b8 <vfprintf+0x352>
    38b6:	ee 24       	eor	r14, r14
    38b8:	84 fe       	sbrs	r8, 4
    38ba:	0f c0       	rjmp	.+30     	; 0x38da <vfprintf+0x374>
    38bc:	80 e3       	ldi	r24, 0x30	; 48
    38be:	90 e0       	ldi	r25, 0x00	; 0
    38c0:	b3 01       	movw	r22, r6
    38c2:	0e 94 d0 1c 	call	0x39a0	; 0x39a0 <fputc>
    38c6:	82 fe       	sbrs	r8, 2
    38c8:	1f c0       	rjmp	.+62     	; 0x3908 <vfprintf+0x3a2>
    38ca:	81 fe       	sbrs	r8, 1
    38cc:	03 c0       	rjmp	.+6      	; 0x38d4 <vfprintf+0x36e>
    38ce:	88 e5       	ldi	r24, 0x58	; 88
    38d0:	90 e0       	ldi	r25, 0x00	; 0
    38d2:	10 c0       	rjmp	.+32     	; 0x38f4 <vfprintf+0x38e>
    38d4:	88 e7       	ldi	r24, 0x78	; 120
    38d6:	90 e0       	ldi	r25, 0x00	; 0
    38d8:	0d c0       	rjmp	.+26     	; 0x38f4 <vfprintf+0x38e>
    38da:	c4 01       	movw	r24, r8
    38dc:	86 78       	andi	r24, 0x86	; 134
    38de:	90 70       	andi	r25, 0x00	; 0
    38e0:	00 97       	sbiw	r24, 0x00	; 0
    38e2:	91 f0       	breq	.+36     	; 0x3908 <vfprintf+0x3a2>
    38e4:	81 fc       	sbrc	r8, 1
    38e6:	02 c0       	rjmp	.+4      	; 0x38ec <vfprintf+0x386>
    38e8:	80 e2       	ldi	r24, 0x20	; 32
    38ea:	01 c0       	rjmp	.+2      	; 0x38ee <vfprintf+0x388>
    38ec:	8b e2       	ldi	r24, 0x2B	; 43
    38ee:	07 fd       	sbrc	r16, 7
    38f0:	8d e2       	ldi	r24, 0x2D	; 45
    38f2:	90 e0       	ldi	r25, 0x00	; 0
    38f4:	b3 01       	movw	r22, r6
    38f6:	0e 94 d0 1c 	call	0x39a0	; 0x39a0 <fputc>
    38fa:	06 c0       	rjmp	.+12     	; 0x3908 <vfprintf+0x3a2>
    38fc:	80 e3       	ldi	r24, 0x30	; 48
    38fe:	90 e0       	ldi	r25, 0x00	; 0
    3900:	b3 01       	movw	r22, r6
    3902:	0e 94 d0 1c 	call	0x39a0	; 0x39a0 <fputc>
    3906:	fa 94       	dec	r15
    3908:	df 14       	cp	r13, r15
    390a:	c0 f3       	brcs	.-16     	; 0x38fc <vfprintf+0x396>
    390c:	da 94       	dec	r13
    390e:	f2 01       	movw	r30, r4
    3910:	ed 0d       	add	r30, r13
    3912:	f1 1d       	adc	r31, r1
    3914:	80 81       	ld	r24, Z
    3916:	90 e0       	ldi	r25, 0x00	; 0
    3918:	b3 01       	movw	r22, r6
    391a:	0e 94 d0 1c 	call	0x39a0	; 0x39a0 <fputc>
    391e:	dd 20       	and	r13, r13
    3920:	a9 f7       	brne	.-22     	; 0x390c <vfprintf+0x3a6>
    3922:	06 c0       	rjmp	.+12     	; 0x3930 <vfprintf+0x3ca>
    3924:	80 e2       	ldi	r24, 0x20	; 32
    3926:	90 e0       	ldi	r25, 0x00	; 0
    3928:	b3 01       	movw	r22, r6
    392a:	0e 94 d0 1c 	call	0x39a0	; 0x39a0 <fputc>
    392e:	ea 94       	dec	r14
    3930:	ee 20       	and	r14, r14
    3932:	c1 f7       	brne	.-16     	; 0x3924 <vfprintf+0x3be>
    3934:	40 ce       	rjmp	.-896    	; 0x35b6 <vfprintf+0x50>
    3936:	f3 01       	movw	r30, r6
    3938:	86 81       	ldd	r24, Z+6	; 0x06
    393a:	97 81       	ldd	r25, Z+7	; 0x07
    393c:	02 c0       	rjmp	.+4      	; 0x3942 <vfprintf+0x3dc>
    393e:	8f ef       	ldi	r24, 0xFF	; 255
    3940:	9f ef       	ldi	r25, 0xFF	; 255
    3942:	2d 96       	adiw	r28, 0x0d	; 13
    3944:	0f b6       	in	r0, 0x3f	; 63
    3946:	f8 94       	cli
    3948:	de bf       	out	0x3e, r29	; 62
    394a:	0f be       	out	0x3f, r0	; 63
    394c:	cd bf       	out	0x3d, r28	; 61
    394e:	df 91       	pop	r29
    3950:	cf 91       	pop	r28
    3952:	1f 91       	pop	r17
    3954:	0f 91       	pop	r16
    3956:	ff 90       	pop	r15
    3958:	ef 90       	pop	r14
    395a:	df 90       	pop	r13
    395c:	cf 90       	pop	r12
    395e:	bf 90       	pop	r11
    3960:	af 90       	pop	r10
    3962:	9f 90       	pop	r9
    3964:	8f 90       	pop	r8
    3966:	7f 90       	pop	r7
    3968:	6f 90       	pop	r6
    396a:	5f 90       	pop	r5
    396c:	4f 90       	pop	r4
    396e:	3f 90       	pop	r3
    3970:	2f 90       	pop	r2
    3972:	08 95       	ret

00003974 <strnlen_P>:
    3974:	fc 01       	movw	r30, r24
    3976:	05 90       	lpm	r0, Z+
    3978:	61 50       	subi	r22, 0x01	; 1
    397a:	70 40       	sbci	r23, 0x00	; 0
    397c:	01 10       	cpse	r0, r1
    397e:	d8 f7       	brcc	.-10     	; 0x3976 <strnlen_P+0x2>
    3980:	80 95       	com	r24
    3982:	90 95       	com	r25
    3984:	8e 0f       	add	r24, r30
    3986:	9f 1f       	adc	r25, r31
    3988:	08 95       	ret

0000398a <strnlen>:
    398a:	fc 01       	movw	r30, r24
    398c:	61 50       	subi	r22, 0x01	; 1
    398e:	70 40       	sbci	r23, 0x00	; 0
    3990:	01 90       	ld	r0, Z+
    3992:	01 10       	cpse	r0, r1
    3994:	d8 f7       	brcc	.-10     	; 0x398c <strnlen+0x2>
    3996:	80 95       	com	r24
    3998:	90 95       	com	r25
    399a:	8e 0f       	add	r24, r30
    399c:	9f 1f       	adc	r25, r31
    399e:	08 95       	ret

000039a0 <fputc>:
    39a0:	0f 93       	push	r16
    39a2:	1f 93       	push	r17
    39a4:	cf 93       	push	r28
    39a6:	df 93       	push	r29
    39a8:	8c 01       	movw	r16, r24
    39aa:	eb 01       	movw	r28, r22
    39ac:	8b 81       	ldd	r24, Y+3	; 0x03
    39ae:	81 ff       	sbrs	r24, 1
    39b0:	1b c0       	rjmp	.+54     	; 0x39e8 <fputc+0x48>
    39b2:	82 ff       	sbrs	r24, 2
    39b4:	0d c0       	rjmp	.+26     	; 0x39d0 <fputc+0x30>
    39b6:	2e 81       	ldd	r18, Y+6	; 0x06
    39b8:	3f 81       	ldd	r19, Y+7	; 0x07
    39ba:	8c 81       	ldd	r24, Y+4	; 0x04
    39bc:	9d 81       	ldd	r25, Y+5	; 0x05
    39be:	28 17       	cp	r18, r24
    39c0:	39 07       	cpc	r19, r25
    39c2:	64 f4       	brge	.+24     	; 0x39dc <fputc+0x3c>
    39c4:	e8 81       	ld	r30, Y
    39c6:	f9 81       	ldd	r31, Y+1	; 0x01
    39c8:	01 93       	st	Z+, r16
    39ca:	f9 83       	std	Y+1, r31	; 0x01
    39cc:	e8 83       	st	Y, r30
    39ce:	06 c0       	rjmp	.+12     	; 0x39dc <fputc+0x3c>
    39d0:	e8 85       	ldd	r30, Y+8	; 0x08
    39d2:	f9 85       	ldd	r31, Y+9	; 0x09
    39d4:	80 2f       	mov	r24, r16
    39d6:	19 95       	eicall
    39d8:	00 97       	sbiw	r24, 0x00	; 0
    39da:	31 f4       	brne	.+12     	; 0x39e8 <fputc+0x48>
    39dc:	8e 81       	ldd	r24, Y+6	; 0x06
    39de:	9f 81       	ldd	r25, Y+7	; 0x07
    39e0:	01 96       	adiw	r24, 0x01	; 1
    39e2:	9f 83       	std	Y+7, r25	; 0x07
    39e4:	8e 83       	std	Y+6, r24	; 0x06
    39e6:	02 c0       	rjmp	.+4      	; 0x39ec <fputc+0x4c>
    39e8:	0f ef       	ldi	r16, 0xFF	; 255
    39ea:	1f ef       	ldi	r17, 0xFF	; 255
    39ec:	c8 01       	movw	r24, r16
    39ee:	df 91       	pop	r29
    39f0:	cf 91       	pop	r28
    39f2:	1f 91       	pop	r17
    39f4:	0f 91       	pop	r16
    39f6:	08 95       	ret

000039f8 <__ultoa_invert>:
    39f8:	fa 01       	movw	r30, r20
    39fa:	aa 27       	eor	r26, r26
    39fc:	28 30       	cpi	r18, 0x08	; 8
    39fe:	51 f1       	breq	.+84     	; 0x3a54 <__ultoa_invert+0x5c>
    3a00:	20 31       	cpi	r18, 0x10	; 16
    3a02:	81 f1       	breq	.+96     	; 0x3a64 <__ultoa_invert+0x6c>
    3a04:	e8 94       	clt
    3a06:	6f 93       	push	r22
    3a08:	6e 7f       	andi	r22, 0xFE	; 254
    3a0a:	6e 5f       	subi	r22, 0xFE	; 254
    3a0c:	7f 4f       	sbci	r23, 0xFF	; 255
    3a0e:	8f 4f       	sbci	r24, 0xFF	; 255
    3a10:	9f 4f       	sbci	r25, 0xFF	; 255
    3a12:	af 4f       	sbci	r26, 0xFF	; 255
    3a14:	b1 e0       	ldi	r27, 0x01	; 1
    3a16:	3e d0       	rcall	.+124    	; 0x3a94 <__ultoa_invert+0x9c>
    3a18:	b4 e0       	ldi	r27, 0x04	; 4
    3a1a:	3c d0       	rcall	.+120    	; 0x3a94 <__ultoa_invert+0x9c>
    3a1c:	67 0f       	add	r22, r23
    3a1e:	78 1f       	adc	r23, r24
    3a20:	89 1f       	adc	r24, r25
    3a22:	9a 1f       	adc	r25, r26
    3a24:	a1 1d       	adc	r26, r1
    3a26:	68 0f       	add	r22, r24
    3a28:	79 1f       	adc	r23, r25
    3a2a:	8a 1f       	adc	r24, r26
    3a2c:	91 1d       	adc	r25, r1
    3a2e:	a1 1d       	adc	r26, r1
    3a30:	6a 0f       	add	r22, r26
    3a32:	71 1d       	adc	r23, r1
    3a34:	81 1d       	adc	r24, r1
    3a36:	91 1d       	adc	r25, r1
    3a38:	a1 1d       	adc	r26, r1
    3a3a:	20 d0       	rcall	.+64     	; 0x3a7c <__ultoa_invert+0x84>
    3a3c:	09 f4       	brne	.+2      	; 0x3a40 <__ultoa_invert+0x48>
    3a3e:	68 94       	set
    3a40:	3f 91       	pop	r19
    3a42:	2a e0       	ldi	r18, 0x0A	; 10
    3a44:	26 9f       	mul	r18, r22
    3a46:	11 24       	eor	r1, r1
    3a48:	30 19       	sub	r19, r0
    3a4a:	30 5d       	subi	r19, 0xD0	; 208
    3a4c:	31 93       	st	Z+, r19
    3a4e:	de f6       	brtc	.-74     	; 0x3a06 <__ultoa_invert+0xe>
    3a50:	cf 01       	movw	r24, r30
    3a52:	08 95       	ret
    3a54:	46 2f       	mov	r20, r22
    3a56:	47 70       	andi	r20, 0x07	; 7
    3a58:	40 5d       	subi	r20, 0xD0	; 208
    3a5a:	41 93       	st	Z+, r20
    3a5c:	b3 e0       	ldi	r27, 0x03	; 3
    3a5e:	0f d0       	rcall	.+30     	; 0x3a7e <__ultoa_invert+0x86>
    3a60:	c9 f7       	brne	.-14     	; 0x3a54 <__ultoa_invert+0x5c>
    3a62:	f6 cf       	rjmp	.-20     	; 0x3a50 <__ultoa_invert+0x58>
    3a64:	46 2f       	mov	r20, r22
    3a66:	4f 70       	andi	r20, 0x0F	; 15
    3a68:	40 5d       	subi	r20, 0xD0	; 208
    3a6a:	4a 33       	cpi	r20, 0x3A	; 58
    3a6c:	18 f0       	brcs	.+6      	; 0x3a74 <__ultoa_invert+0x7c>
    3a6e:	49 5d       	subi	r20, 0xD9	; 217
    3a70:	31 fd       	sbrc	r19, 1
    3a72:	40 52       	subi	r20, 0x20	; 32
    3a74:	41 93       	st	Z+, r20
    3a76:	02 d0       	rcall	.+4      	; 0x3a7c <__ultoa_invert+0x84>
    3a78:	a9 f7       	brne	.-22     	; 0x3a64 <__ultoa_invert+0x6c>
    3a7a:	ea cf       	rjmp	.-44     	; 0x3a50 <__ultoa_invert+0x58>
    3a7c:	b4 e0       	ldi	r27, 0x04	; 4
    3a7e:	a6 95       	lsr	r26
    3a80:	97 95       	ror	r25
    3a82:	87 95       	ror	r24
    3a84:	77 95       	ror	r23
    3a86:	67 95       	ror	r22
    3a88:	ba 95       	dec	r27
    3a8a:	c9 f7       	brne	.-14     	; 0x3a7e <__ultoa_invert+0x86>
    3a8c:	00 97       	sbiw	r24, 0x00	; 0
    3a8e:	61 05       	cpc	r22, r1
    3a90:	71 05       	cpc	r23, r1
    3a92:	08 95       	ret
    3a94:	9b 01       	movw	r18, r22
    3a96:	ac 01       	movw	r20, r24
    3a98:	0a 2e       	mov	r0, r26
    3a9a:	06 94       	lsr	r0
    3a9c:	57 95       	ror	r21
    3a9e:	47 95       	ror	r20
    3aa0:	37 95       	ror	r19
    3aa2:	27 95       	ror	r18
    3aa4:	ba 95       	dec	r27
    3aa6:	c9 f7       	brne	.-14     	; 0x3a9a <__ultoa_invert+0xa2>
    3aa8:	62 0f       	add	r22, r18
    3aaa:	73 1f       	adc	r23, r19
    3aac:	84 1f       	adc	r24, r20
    3aae:	95 1f       	adc	r25, r21
    3ab0:	a0 1d       	adc	r26, r0
    3ab2:	08 95       	ret

00003ab4 <_exit>:
    3ab4:	f8 94       	cli

00003ab6 <__stop_program>:
    3ab6:	ff cf       	rjmp	.-2      	; 0x3ab6 <__stop_program>
