
AtmegaCommunication.elf:     file format elf32-avr

Sections:
Idx Name          Size      VMA       LMA       File off  Algn
  0 .data         0000030a  00800200  0000320c  000032a0  2**0
                  CONTENTS, ALLOC, LOAD, DATA
  1 .text         0000320c  00000000  00000000  00000094  2**1
                  CONTENTS, ALLOC, LOAD, READONLY, CODE
  2 .bss          000008b6  0080050a  0080050a  000035aa  2**0
                  ALLOC
  3 .stab         00002784  00000000  00000000  000035ac  2**2
                  CONTENTS, READONLY, DEBUGGING
  4 .stabstr      0000095a  00000000  00000000  00005d30  2**0
                  CONTENTS, READONLY, DEBUGGING
  5 .debug_aranges 000001c0  00000000  00000000  00006690  2**3
                  CONTENTS, READONLY, DEBUGGING
  6 .debug_info   0000259b  00000000  00000000  00006850  2**0
                  CONTENTS, READONLY, DEBUGGING
  7 .debug_abbrev 00000e29  00000000  00000000  00008deb  2**0
                  CONTENTS, READONLY, DEBUGGING
  8 .debug_line   0000143d  00000000  00000000  00009c14  2**0
                  CONTENTS, READONLY, DEBUGGING
  9 .debug_frame  00000ac4  00000000  00000000  0000b054  2**2
                  CONTENTS, READONLY, DEBUGGING
 10 .debug_str    00000b7a  00000000  00000000  0000bb18  2**0
                  CONTENTS, READONLY, DEBUGGING
 11 .debug_loc    00002d62  00000000  00000000  0000c692  2**0
                  CONTENTS, READONLY, DEBUGGING
 12 .debug_ranges 000000b8  00000000  00000000  0000f3f4  2**0
                  CONTENTS, READONLY, DEBUGGING

Disassembly of section .text:

00000000 <__vectors>:
       0:	0c 94 72 00 	jmp	0xe4	; 0xe4 <__ctors_end>
       4:	0c 94 94 00 	jmp	0x128	; 0x128 <__bad_interrupt>
       8:	0c 94 94 00 	jmp	0x128	; 0x128 <__bad_interrupt>
       c:	0c 94 94 00 	jmp	0x128	; 0x128 <__bad_interrupt>
      10:	0c 94 94 00 	jmp	0x128	; 0x128 <__bad_interrupt>
      14:	0c 94 94 00 	jmp	0x128	; 0x128 <__bad_interrupt>
      18:	0c 94 94 00 	jmp	0x128	; 0x128 <__bad_interrupt>
      1c:	0c 94 94 00 	jmp	0x128	; 0x128 <__bad_interrupt>
      20:	0c 94 94 00 	jmp	0x128	; 0x128 <__bad_interrupt>
      24:	0c 94 94 00 	jmp	0x128	; 0x128 <__bad_interrupt>
      28:	0c 94 94 00 	jmp	0x128	; 0x128 <__bad_interrupt>
      2c:	0c 94 94 00 	jmp	0x128	; 0x128 <__bad_interrupt>
      30:	0c 94 94 00 	jmp	0x128	; 0x128 <__bad_interrupt>
      34:	0c 94 94 00 	jmp	0x128	; 0x128 <__bad_interrupt>
      38:	0c 94 94 00 	jmp	0x128	; 0x128 <__bad_interrupt>
      3c:	0c 94 94 00 	jmp	0x128	; 0x128 <__bad_interrupt>
      40:	0c 94 94 00 	jmp	0x128	; 0x128 <__bad_interrupt>
      44:	0c 94 94 00 	jmp	0x128	; 0x128 <__bad_interrupt>
      48:	0c 94 94 00 	jmp	0x128	; 0x128 <__bad_interrupt>
      4c:	0c 94 94 00 	jmp	0x128	; 0x128 <__bad_interrupt>
      50:	0c 94 94 00 	jmp	0x128	; 0x128 <__bad_interrupt>
      54:	0c 94 94 00 	jmp	0x128	; 0x128 <__bad_interrupt>
      58:	0c 94 94 00 	jmp	0x128	; 0x128 <__bad_interrupt>
      5c:	0c 94 d0 13 	jmp	0x27a0	; 0x27a0 <__vector_23>
      60:	0c 94 94 00 	jmp	0x128	; 0x128 <__bad_interrupt>
      64:	0c 94 3a 04 	jmp	0x874	; 0x874 <__vector_25>
      68:	0c 94 94 00 	jmp	0x128	; 0x128 <__bad_interrupt>
      6c:	0c 94 94 00 	jmp	0x128	; 0x128 <__bad_interrupt>
      70:	0c 94 94 00 	jmp	0x128	; 0x128 <__bad_interrupt>
      74:	0c 94 94 00 	jmp	0x128	; 0x128 <__bad_interrupt>
      78:	0c 94 94 00 	jmp	0x128	; 0x128 <__bad_interrupt>
      7c:	0c 94 94 00 	jmp	0x128	; 0x128 <__bad_interrupt>
      80:	0c 94 94 00 	jmp	0x128	; 0x128 <__bad_interrupt>
      84:	0c 94 94 00 	jmp	0x128	; 0x128 <__bad_interrupt>
      88:	0c 94 94 00 	jmp	0x128	; 0x128 <__bad_interrupt>
      8c:	0c 94 94 00 	jmp	0x128	; 0x128 <__bad_interrupt>
      90:	0c 94 94 00 	jmp	0x128	; 0x128 <__bad_interrupt>
      94:	0c 94 94 00 	jmp	0x128	; 0x128 <__bad_interrupt>
      98:	0c 94 94 00 	jmp	0x128	; 0x128 <__bad_interrupt>
      9c:	0c 94 94 00 	jmp	0x128	; 0x128 <__bad_interrupt>
      a0:	0c 94 94 00 	jmp	0x128	; 0x128 <__bad_interrupt>
      a4:	0c 94 94 00 	jmp	0x128	; 0x128 <__bad_interrupt>
      a8:	0c 94 94 00 	jmp	0x128	; 0x128 <__bad_interrupt>
      ac:	0c 94 94 00 	jmp	0x128	; 0x128 <__bad_interrupt>
      b0:	0c 94 94 00 	jmp	0x128	; 0x128 <__bad_interrupt>
      b4:	0c 94 94 00 	jmp	0x128	; 0x128 <__bad_interrupt>
      b8:	0c 94 94 00 	jmp	0x128	; 0x128 <__bad_interrupt>
      bc:	0c 94 94 00 	jmp	0x128	; 0x128 <__bad_interrupt>
      c0:	0c 94 94 00 	jmp	0x128	; 0x128 <__bad_interrupt>
      c4:	0c 94 94 00 	jmp	0x128	; 0x128 <__bad_interrupt>
      c8:	0c 94 94 00 	jmp	0x128	; 0x128 <__bad_interrupt>
      cc:	0c 94 ac 03 	jmp	0x758	; 0x758 <__vector_51>
      d0:	0c 94 94 00 	jmp	0x128	; 0x128 <__bad_interrupt>
      d4:	0c 94 94 00 	jmp	0x128	; 0x128 <__bad_interrupt>
      d8:	0c 94 94 00 	jmp	0x128	; 0x128 <__bad_interrupt>
      dc:	0c 94 94 00 	jmp	0x128	; 0x128 <__bad_interrupt>
      e0:	0c 94 94 00 	jmp	0x128	; 0x128 <__bad_interrupt>

000000e4 <__ctors_end>:
      e4:	11 24       	eor	r1, r1
      e6:	1f be       	out	0x3f, r1	; 63
      e8:	cf ef       	ldi	r28, 0xFF	; 255
      ea:	d1 e2       	ldi	r29, 0x21	; 33
      ec:	de bf       	out	0x3e, r29	; 62
      ee:	cd bf       	out	0x3d, r28	; 61
      f0:	00 e0       	ldi	r16, 0x00	; 0
      f2:	0c bf       	out	0x3c, r16	; 60

000000f4 <__do_copy_data>:
      f4:	15 e0       	ldi	r17, 0x05	; 5
      f6:	a0 e0       	ldi	r26, 0x00	; 0
      f8:	b2 e0       	ldi	r27, 0x02	; 2
      fa:	ec e0       	ldi	r30, 0x0C	; 12
      fc:	f2 e3       	ldi	r31, 0x32	; 50
      fe:	00 e0       	ldi	r16, 0x00	; 0
     100:	0b bf       	out	0x3b, r16	; 59
     102:	02 c0       	rjmp	.+4      	; 0x108 <__do_copy_data+0x14>
     104:	07 90       	elpm	r0, Z+
     106:	0d 92       	st	X+, r0
     108:	aa 30       	cpi	r26, 0x0A	; 10
     10a:	b1 07       	cpc	r27, r17
     10c:	d9 f7       	brne	.-10     	; 0x104 <__do_copy_data+0x10>
     10e:	1b be       	out	0x3b, r1	; 59

00000110 <__do_clear_bss>:
     110:	1d e0       	ldi	r17, 0x0D	; 13
     112:	aa e0       	ldi	r26, 0x0A	; 10
     114:	b5 e0       	ldi	r27, 0x05	; 5
     116:	01 c0       	rjmp	.+2      	; 0x11a <.do_clear_bss_start>

00000118 <.do_clear_bss_loop>:
     118:	1d 92       	st	X+, r1

0000011a <.do_clear_bss_start>:
     11a:	a0 3c       	cpi	r26, 0xC0	; 192
     11c:	b1 07       	cpc	r27, r17
     11e:	e1 f7       	brne	.-8      	; 0x118 <.do_clear_bss_loop>
     120:	0e 94 c5 01 	call	0x38a	; 0x38a <main>
     124:	0c 94 04 19 	jmp	0x3208	; 0x3208 <_exit>

00000128 <__bad_interrupt>:
     128:	0c 94 00 00 	jmp	0	; 0x0 <__vectors>

0000012c <eventCallback>:

volatile int gnFanOnValue;
uint8_t bClientConnected;

static void eventCallback(int eventType,uint8_t* rxBuff, int rxSize)
{
     12c:	ef 92       	push	r14
     12e:	ff 92       	push	r15
     130:	0f 93       	push	r16
     132:	1f 93       	push	r17
     134:	cf 93       	push	r28
     136:	df 93       	push	r29
     138:	cd b7       	in	r28, 0x3d	; 61
     13a:	de b7       	in	r29, 0x3e	; 62
     13c:	2c 97       	sbiw	r28, 0x0c	; 12
     13e:	0f b6       	in	r0, 0x3f	; 63
     140:	f8 94       	cli
     142:	de bf       	out	0x3e, r29	; 62
     144:	0f be       	out	0x3f, r0	; 63
     146:	cd bf       	out	0x3d, r28	; 61
	uint32_t obj_id;
	uint32_t entityValue1;
	uint32_t entityValue2;
	if (eventType == EVENT_RX_DATA) 
     148:	81 30       	cpi	r24, 0x01	; 1
     14a:	91 05       	cpc	r25, r1
     14c:	09 f0       	breq	.+2      	; 0x150 <eventCallback+0x24>
     14e:	78 c0       	rjmp	.+240    	; 0x240 <eventCallback+0x114>
	{
		if (pktParcingActuatorControl(rxBuff, rxSize, &obj_id, &entityValue1, &entityValue2) < 0 )
     150:	8a 01       	movw	r16, r20
     152:	22 27       	eor	r18, r18
     154:	17 fd       	sbrc	r17, 7
     156:	20 95       	com	r18
     158:	32 2f       	mov	r19, r18
     15a:	cb 01       	movw	r24, r22
     15c:	b9 01       	movw	r22, r18
     15e:	a8 01       	movw	r20, r16
     160:	9e 01       	movw	r18, r28
     162:	2f 5f       	subi	r18, 0xFF	; 255
     164:	3f 4f       	sbci	r19, 0xFF	; 255
     166:	8e 01       	movw	r16, r28
     168:	0b 5f       	subi	r16, 0xFB	; 251
     16a:	1f 4f       	sbci	r17, 0xFF	; 255
     16c:	0f 2e       	mov	r0, r31
     16e:	f9 e0       	ldi	r31, 0x09	; 9
     170:	ef 2e       	mov	r14, r31
     172:	ff 24       	eor	r15, r15
     174:	f0 2d       	mov	r31, r0
     176:	ec 0e       	add	r14, r28
     178:	fd 1e       	adc	r15, r29
     17a:	0e 94 e0 10 	call	0x21c0	; 0x21c0 <pktParcingActuatorControl>
		{
			debugprint("Rx parcing fail.\r\n");
			return;			
		}
		debugprint("value1:%d,value2:%d\r\n",entityValue1,entityValue2);
     17e:	8d b7       	in	r24, 0x3d	; 61
     180:	9e b7       	in	r25, 0x3e	; 62
     182:	0a 97       	sbiw	r24, 0x0a	; 10
     184:	0f b6       	in	r0, 0x3f	; 63
     186:	f8 94       	cli
     188:	9e bf       	out	0x3e, r25	; 62
     18a:	0f be       	out	0x3f, r0	; 63
     18c:	8d bf       	out	0x3d, r24	; 61
     18e:	ed b7       	in	r30, 0x3d	; 61
     190:	fe b7       	in	r31, 0x3e	; 62
     192:	31 96       	adiw	r30, 0x01	; 1
     194:	80 e0       	ldi	r24, 0x00	; 0
     196:	92 e0       	ldi	r25, 0x02	; 2
     198:	ad b7       	in	r26, 0x3d	; 61
     19a:	be b7       	in	r27, 0x3e	; 62
     19c:	12 96       	adiw	r26, 0x02	; 2
     19e:	9c 93       	st	X, r25
     1a0:	8e 93       	st	-X, r24
     1a2:	11 97       	sbiw	r26, 0x01	; 1
     1a4:	8d 81       	ldd	r24, Y+5	; 0x05
     1a6:	9e 81       	ldd	r25, Y+6	; 0x06
     1a8:	af 81       	ldd	r26, Y+7	; 0x07
     1aa:	b8 85       	ldd	r27, Y+8	; 0x08
     1ac:	82 83       	std	Z+2, r24	; 0x02
     1ae:	93 83       	std	Z+3, r25	; 0x03
     1b0:	a4 83       	std	Z+4, r26	; 0x04
     1b2:	b5 83       	std	Z+5, r27	; 0x05
     1b4:	89 85       	ldd	r24, Y+9	; 0x09
     1b6:	9a 85       	ldd	r25, Y+10	; 0x0a
     1b8:	ab 85       	ldd	r26, Y+11	; 0x0b
     1ba:	bc 85       	ldd	r27, Y+12	; 0x0c
     1bc:	86 83       	std	Z+6, r24	; 0x06
     1be:	97 83       	std	Z+7, r25	; 0x07
     1c0:	a0 87       	std	Z+8, r26	; 0x08
     1c2:	b1 87       	std	Z+9, r27	; 0x09
     1c4:	0e 94 ed 03 	call	0x7da	; 0x7da <debugprint>
		switch(obj_id )
     1c8:	ed b7       	in	r30, 0x3d	; 61
     1ca:	fe b7       	in	r31, 0x3e	; 62
     1cc:	3a 96       	adiw	r30, 0x0a	; 10
     1ce:	0f b6       	in	r0, 0x3f	; 63
     1d0:	f8 94       	cli
     1d2:	fe bf       	out	0x3e, r31	; 62
     1d4:	0f be       	out	0x3f, r0	; 63
     1d6:	ed bf       	out	0x3d, r30	; 61
     1d8:	89 81       	ldd	r24, Y+1	; 0x01
     1da:	9a 81       	ldd	r25, Y+2	; 0x02
     1dc:	ab 81       	ldd	r26, Y+3	; 0x03
     1de:	bc 81       	ldd	r27, Y+4	; 0x04
     1e0:	82 31       	cpi	r24, 0x12	; 18
     1e2:	91 05       	cpc	r25, r1
     1e4:	a1 05       	cpc	r26, r1
     1e6:	b1 05       	cpc	r27, r1
     1e8:	f9 f4       	brne	.+62     	; 0x228 <eventCallback+0xfc>
		{
			case OBJECT_ID_FAN_CONTROL:
			gnFanOnValue = entityValue1;
     1ea:	8d 81       	ldd	r24, Y+5	; 0x05
     1ec:	9e 81       	ldd	r25, Y+6	; 0x06
     1ee:	90 93 20 05 	sts	0x0520, r25
     1f2:	80 93 1f 05 	sts	0x051F, r24
			debugprint("gnFanOnValue : %d\r\n",gnFanOnValue);
     1f6:	80 91 1f 05 	lds	r24, 0x051F
     1fa:	90 91 20 05 	lds	r25, 0x0520
     1fe:	00 d0       	rcall	.+0      	; 0x200 <eventCallback+0xd4>
     200:	0f 92       	push	r0
     202:	26 e1       	ldi	r18, 0x16	; 22
     204:	32 e0       	ldi	r19, 0x02	; 2
     206:	ad b7       	in	r26, 0x3d	; 61
     208:	be b7       	in	r27, 0x3e	; 62
     20a:	12 96       	adiw	r26, 0x02	; 2
     20c:	3c 93       	st	X, r19
     20e:	2e 93       	st	-X, r18
     210:	11 97       	sbiw	r26, 0x01	; 1
     212:	14 96       	adiw	r26, 0x04	; 4
     214:	9c 93       	st	X, r25
     216:	8e 93       	st	-X, r24
     218:	13 97       	sbiw	r26, 0x03	; 3
     21a:	0e 94 ed 03 	call	0x7da	; 0x7da <debugprint>
			break;
     21e:	0f 90       	pop	r0
     220:	0f 90       	pop	r0
     222:	0f 90       	pop	r0
     224:	0f 90       	pop	r0
     226:	0c c0       	rjmp	.+24     	; 0x240 <eventCallback+0x114>
			default:
			debugprint("no supported object id.\r\n");
     228:	0f 92       	push	r0
     22a:	0f 92       	push	r0
     22c:	8a e2       	ldi	r24, 0x2A	; 42
     22e:	92 e0       	ldi	r25, 0x02	; 2
     230:	ed b7       	in	r30, 0x3d	; 61
     232:	fe b7       	in	r31, 0x3e	; 62
     234:	92 83       	std	Z+2, r25	; 0x02
     236:	81 83       	std	Z+1, r24	; 0x01
     238:	0e 94 ed 03 	call	0x7da	; 0x7da <debugprint>
			break;  
     23c:	0f 90       	pop	r0
     23e:	0f 90       	pop	r0
		}
		
	}
}
     240:	2c 96       	adiw	r28, 0x0c	; 12
     242:	0f b6       	in	r0, 0x3f	; 63
     244:	f8 94       	cli
     246:	de bf       	out	0x3e, r29	; 62
     248:	0f be       	out	0x3f, r0	; 63
     24a:	cd bf       	out	0x3d, r28	; 61
     24c:	df 91       	pop	r29
     24e:	cf 91       	pop	r28
     250:	1f 91       	pop	r17
     252:	0f 91       	pop	r16
     254:	ff 90       	pop	r15
     256:	ef 90       	pop	r14
     258:	08 95       	ret

0000025a <SendSensorData>:
		}
	}
}

void SendSensorData( handler_id handleId, int sensorEntity1Value, int sensorEntity2Value)
{
     25a:	cf 92       	push	r12
     25c:	df 92       	push	r13
     25e:	ef 92       	push	r14
     260:	ff 92       	push	r15
     262:	0f 93       	push	r16
     264:	1f 93       	push	r17
     266:	cf 93       	push	r28
     268:	df 93       	push	r29
     26a:	00 d0       	rcall	.+0      	; 0x26c <SendSensorData+0x12>
     26c:	0f 92       	push	r0
     26e:	cd b7       	in	r28, 0x3d	; 61
     270:	de b7       	in	r29, 0x3e	; 62
     272:	69 01       	movw	r12, r18
	uint32_t len;
	uint8_t* buff;
	buff = makePkt(handleId,&len,sensorEntity1Value,sensorEntity2Value); // make packet
     274:	8a 01       	movw	r16, r20
     276:	22 27       	eor	r18, r18
     278:	17 fd       	sbrc	r17, 7
     27a:	20 95       	com	r18
     27c:	32 2f       	mov	r19, r18
     27e:	ee 24       	eor	r14, r14
     280:	d7 fc       	sbrc	r13, 7
     282:	e0 94       	com	r14
     284:	fe 2c       	mov	r15, r14
     286:	ae 01       	movw	r20, r28
     288:	4f 5f       	subi	r20, 0xFF	; 255
     28a:	5f 4f       	sbci	r21, 0xFF	; 255
     28c:	0e 94 91 10 	call	0x2122	; 0x2122 <makePkt>
	if ( buff == 0)
     290:	00 97       	sbiw	r24, 0x00	; 0
     292:	69 f4       	brne	.+26     	; 0x2ae <SendSensorData+0x54>
	{
		debugprint("SendSensor Data -- makePkt error.\n");
     294:	0f 92       	push	r0
     296:	0f 92       	push	r0
     298:	84 e4       	ldi	r24, 0x44	; 68
     29a:	92 e0       	ldi	r25, 0x02	; 2
     29c:	ed b7       	in	r30, 0x3d	; 61
     29e:	fe b7       	in	r31, 0x3e	; 62
     2a0:	92 83       	std	Z+2, r25	; 0x02
     2a2:	81 83       	std	Z+1, r24	; 0x01
     2a4:	0e 94 ed 03 	call	0x7da	; 0x7da <debugprint>
		return;
     2a8:	0f 90       	pop	r0
     2aa:	0f 90       	pop	r0
     2ac:	15 c0       	rjmp	.+42     	; 0x2d8 <SendSensorData+0x7e>
	}
	if ( bClientConnected)
     2ae:	20 91 1e 05 	lds	r18, 0x051E
     2b2:	22 23       	and	r18, r18
     2b4:	29 f0       	breq	.+10     	; 0x2c0 <SendSensorData+0x66>
	{
		wifiSendData(buff, len);
     2b6:	69 81       	ldd	r22, Y+1	; 0x01
     2b8:	7a 81       	ldd	r23, Y+2	; 0x02
     2ba:	0e 94 7a 0a 	call	0x14f4	; 0x14f4 <wifiSendData>
     2be:	0c c0       	rjmp	.+24     	; 0x2d8 <SendSensorData+0x7e>
	}
	else
	{
		debugprint("disconnected, tx error\r\n");
     2c0:	0f 92       	push	r0
     2c2:	0f 92       	push	r0
     2c4:	87 e6       	ldi	r24, 0x67	; 103
     2c6:	92 e0       	ldi	r25, 0x02	; 2
     2c8:	ed b7       	in	r30, 0x3d	; 61
     2ca:	fe b7       	in	r31, 0x3e	; 62
     2cc:	92 83       	std	Z+2, r25	; 0x02
     2ce:	81 83       	std	Z+1, r24	; 0x01
     2d0:	0e 94 ed 03 	call	0x7da	; 0x7da <debugprint>
     2d4:	0f 90       	pop	r0
     2d6:	0f 90       	pop	r0
	}				    
}
     2d8:	0f 90       	pop	r0
     2da:	0f 90       	pop	r0
     2dc:	0f 90       	pop	r0
     2de:	0f 90       	pop	r0
     2e0:	df 91       	pop	r29
     2e2:	cf 91       	pop	r28
     2e4:	1f 91       	pop	r17
     2e6:	0f 91       	pop	r16
     2e8:	ff 90       	pop	r15
     2ea:	ef 90       	pop	r14
     2ec:	df 90       	pop	r13
     2ee:	cf 90       	pop	r12
     2f0:	08 95       	ret

000002f2 <SendActuatorData>:

void SendActuatorData (handler_id handleId, int actuatorEntity1Value, int actuatorEntity2Value)
{
     2f2:	cf 92       	push	r12
     2f4:	df 92       	push	r13
     2f6:	ef 92       	push	r14
     2f8:	ff 92       	push	r15
     2fa:	0f 93       	push	r16
     2fc:	1f 93       	push	r17
     2fe:	cf 93       	push	r28
     300:	df 93       	push	r29
     302:	00 d0       	rcall	.+0      	; 0x304 <SendActuatorData+0x12>
     304:	0f 92       	push	r0
     306:	cd b7       	in	r28, 0x3d	; 61
     308:	de b7       	in	r29, 0x3e	; 62
     30a:	69 01       	movw	r12, r18
	uint32_t len;
	uint8_t* buff;
	buff = makePkt(handleId,&len,actuatorEntity1Value,actuatorEntity2Value); // make packet
     30c:	8a 01       	movw	r16, r20
     30e:	22 27       	eor	r18, r18
     310:	17 fd       	sbrc	r17, 7
     312:	20 95       	com	r18
     314:	32 2f       	mov	r19, r18
     316:	ee 24       	eor	r14, r14
     318:	d7 fc       	sbrc	r13, 7
     31a:	e0 94       	com	r14
     31c:	fe 2c       	mov	r15, r14
     31e:	ae 01       	movw	r20, r28
     320:	4f 5f       	subi	r20, 0xFF	; 255
     322:	5f 4f       	sbci	r21, 0xFF	; 255
     324:	0e 94 91 10 	call	0x2122	; 0x2122 <makePkt>
	if ( buff == 0)
     328:	00 97       	sbiw	r24, 0x00	; 0
     32a:	69 f4       	brne	.+26     	; 0x346 <SendActuatorData+0x54>
	{
		debugprint("actuator Data -- makePkt error.\n");
     32c:	0f 92       	push	r0
     32e:	0f 92       	push	r0
     330:	80 e8       	ldi	r24, 0x80	; 128
     332:	92 e0       	ldi	r25, 0x02	; 2
     334:	ed b7       	in	r30, 0x3d	; 61
     336:	fe b7       	in	r31, 0x3e	; 62
     338:	92 83       	std	Z+2, r25	; 0x02
     33a:	81 83       	std	Z+1, r24	; 0x01
     33c:	0e 94 ed 03 	call	0x7da	; 0x7da <debugprint>
		return;
     340:	0f 90       	pop	r0
     342:	0f 90       	pop	r0
     344:	15 c0       	rjmp	.+42     	; 0x370 <SendActuatorData+0x7e>
	}
	if ( bClientConnected)
     346:	20 91 1e 05 	lds	r18, 0x051E
     34a:	22 23       	and	r18, r18
     34c:	29 f0       	breq	.+10     	; 0x358 <SendActuatorData+0x66>
	{
		wifiSendData(buff, len);
     34e:	69 81       	ldd	r22, Y+1	; 0x01
     350:	7a 81       	ldd	r23, Y+2	; 0x02
     352:	0e 94 7a 0a 	call	0x14f4	; 0x14f4 <wifiSendData>
     356:	0c c0       	rjmp	.+24     	; 0x370 <SendActuatorData+0x7e>
	}
	else
	{
		debugprint("disconnected, tx error\r\n");
     358:	0f 92       	push	r0
     35a:	0f 92       	push	r0
     35c:	87 e6       	ldi	r24, 0x67	; 103
     35e:	92 e0       	ldi	r25, 0x02	; 2
     360:	ed b7       	in	r30, 0x3d	; 61
     362:	fe b7       	in	r31, 0x3e	; 62
     364:	92 83       	std	Z+2, r25	; 0x02
     366:	81 83       	std	Z+1, r24	; 0x01
     368:	0e 94 ed 03 	call	0x7da	; 0x7da <debugprint>
     36c:	0f 90       	pop	r0
     36e:	0f 90       	pop	r0
	}		
}
     370:	0f 90       	pop	r0
     372:	0f 90       	pop	r0
     374:	0f 90       	pop	r0
     376:	0f 90       	pop	r0
     378:	df 91       	pop	r29
     37a:	cf 91       	pop	r28
     37c:	1f 91       	pop	r17
     37e:	0f 91       	pop	r16
     380:	ff 90       	pop	r15
     382:	ef 90       	pop	r14
     384:	df 90       	pop	r13
     386:	cf 90       	pop	r12
     388:	08 95       	ret

0000038a <main>:
		
	}
}

int main(void)
{
     38a:	cf 93       	push	r28
     38c:	df 93       	push	r29
     38e:	cd b7       	in	r28, 0x3d	; 61
     390:	de b7       	in	r29, 0x3e	; 62
     392:	ab 97       	sbiw	r28, 0x2b	; 43
     394:	0f b6       	in	r0, 0x3f	; 63
     396:	f8 94       	cli
     398:	de bf       	out	0x3e, r29	; 62
     39a:	0f be       	out	0x3f, r0	; 63
     39c:	cd bf       	out	0x3d, r28	; 61
	debugInit();
     39e:	0e 94 d6 03 	call	0x7ac	; 0x7ac <debugInit>
	
	wifiInit();
     3a2:	0e 94 8f 04 	call	0x91e	; 0x91e <wifiInit>
	
	sei();
     3a6:	78 94       	sei
	
	debugprint("wifi start\r\n");
     3a8:	0f 92       	push	r0
     3aa:	0f 92       	push	r0
     3ac:	81 ea       	ldi	r24, 0xA1	; 161
     3ae:	92 e0       	ldi	r25, 0x02	; 2
     3b0:	ad b7       	in	r26, 0x3d	; 61
     3b2:	be b7       	in	r27, 0x3e	; 62
     3b4:	12 96       	adiw	r26, 0x02	; 2
     3b6:	9c 93       	st	X, r25
     3b8:	8e 93       	st	-X, r24
     3ba:	11 97       	sbiw	r26, 0x01	; 1
     3bc:	0e 94 ed 03 	call	0x7da	; 0x7da <debugprint>
	#else
		//round up by default
		__ticks_dc = (uint32_t)(ceil(fabs(__tmp)));
	#endif

	__builtin_avr_delay_cycles(__ticks_dc);
     3c0:	8f ef       	ldi	r24, 0xFF	; 255
     3c2:	9f ef       	ldi	r25, 0xFF	; 255
     3c4:	ac e2       	ldi	r26, 0x2C	; 44
     3c6:	81 50       	subi	r24, 0x01	; 1
     3c8:	90 40       	sbci	r25, 0x00	; 0
     3ca:	a0 40       	sbci	r26, 0x00	; 0
     3cc:	e1 f7       	brne	.-8      	; 0x3c6 <main+0x3c>
     3ce:	00 c0       	rjmp	.+0      	; 0x3d0 <main+0x46>
     3d0:	00 00       	nop
	_delay_ms(1000);

	wificlearUartBuff();
     3d2:	0f 90       	pop	r0
     3d4:	0f 90       	pop	r0
     3d6:	0e 94 03 0b 	call	0x1606	; 0x1606 <wificlearUartBuff>
	// UART echo disable 
	wifiEchoDisable();
     3da:	0e 94 24 0b 	call	0x1648	; 0x1648 <wifiEchoDisable>
	wificlearUartBuff();
     3de:	0e 94 03 0b 	call	0x1606	; 0x1606 <wificlearUartBuff>
	
	// register callback function 
	wifiSetEventCallback(eventCallback);
     3e2:	86 e9       	ldi	r24, 0x96	; 150
     3e4:	90 e0       	ldi	r25, 0x00	; 0
     3e6:	0e 94 74 0a 	call	0x14e8	; 0x14e8 <wifiSetEventCallback>
	
	// Auto connection disable
	wifiAutoConnectDisable();
     3ea:	0e 94 0a 0b 	call	0x1614	; 0x1614 <wifiAutoConnectDisable>
	wificlearUartBuff();
     3ee:	0e 94 03 0b 	call	0x1606	; 0x1606 <wificlearUartBuff>
	
	wifiModeSet();
     3f2:	0e 94 1f 0a 	call	0x143e	; 0x143e <wifiModeSet>
	
	wifiEnableDHCP();
     3f6:	0e 94 3d 0a 	call	0x147a	; 0x147a <wifiEnableDHCP>
	
	debugprint("\r\nAP list display:\r\n");
     3fa:	0f 92       	push	r0
     3fc:	0f 92       	push	r0
     3fe:	8e ea       	ldi	r24, 0xAE	; 174
     400:	92 e0       	ldi	r25, 0x02	; 2
     402:	ad b7       	in	r26, 0x3d	; 61
     404:	be b7       	in	r27, 0x3e	; 62
     406:	12 96       	adiw	r26, 0x02	; 2
     408:	9c 93       	st	X, r25
     40a:	8e 93       	st	-X, r24
     40c:	11 97       	sbiw	r26, 0x01	; 1
     40e:	0e 94 ed 03 	call	0x7da	; 0x7da <debugprint>
	wifiDisplayAPlist();
     412:	0f 90       	pop	r0
     414:	0f 90       	pop	r0
     416:	0e 94 e7 09 	call	0x13ce	; 0x13ce <wifiDisplayAPlist>
	
	// connect  AP 
	debugprint("\r\n");
     41a:	0f 92       	push	r0
     41c:	0f 92       	push	r0
     41e:	83 ec       	ldi	r24, 0xC3	; 195
     420:	92 e0       	ldi	r25, 0x02	; 2
     422:	ed b7       	in	r30, 0x3d	; 61
     424:	fe b7       	in	r31, 0x3e	; 62
     426:	92 83       	std	Z+2, r25	; 0x02
     428:	81 83       	std	Z+1, r24	; 0x01
     42a:	0e 94 ed 03 	call	0x7da	; 0x7da <debugprint>
	if ( !wifiConnectAP(SELECTED_AP_SSID, SELECTED_AP_PASS))
     42e:	0f 90       	pop	r0
     430:	0f 90       	pop	r0
     432:	86 ec       	ldi	r24, 0xC6	; 198
     434:	92 e0       	ldi	r25, 0x02	; 2
     436:	6f ec       	ldi	r22, 0xCF	; 207
     438:	72 e0       	ldi	r23, 0x02	; 2
     43a:	0e 94 01 0a 	call	0x1402	; 0x1402 <wifiConnectAP>
     43e:	88 23       	and	r24, r24
     440:	79 f4       	brne	.+30     	; 0x460 <main+0xd6>
	{
		debugprint("AP connected.\r\n");
     442:	0f 92       	push	r0
     444:	0f 92       	push	r0
     446:	8d ed       	ldi	r24, 0xDD	; 221
     448:	92 e0       	ldi	r25, 0x02	; 2
     44a:	ad b7       	in	r26, 0x3d	; 61
     44c:	be b7       	in	r27, 0x3e	; 62
     44e:	12 96       	adiw	r26, 0x02	; 2
     450:	9c 93       	st	X, r25
     452:	8e 93       	st	-X, r24
     454:	11 97       	sbiw	r26, 0x01	; 1
     456:	0e 94 ed 03 	call	0x7da	; 0x7da <debugprint>
     45a:	0f 90       	pop	r0
     45c:	0f 90       	pop	r0
     45e:	0c c0       	rjmp	.+24     	; 0x478 <main+0xee>
	}
	else
	{
		debugprint("AP connection fail.\r\n");
     460:	0f 92       	push	r0
     462:	0f 92       	push	r0
     464:	8d ee       	ldi	r24, 0xED	; 237
     466:	92 e0       	ldi	r25, 0x02	; 2
     468:	ed b7       	in	r30, 0x3d	; 61
     46a:	fe b7       	in	r31, 0x3e	; 62
     46c:	92 83       	std	Z+2, r25	; 0x02
     46e:	81 83       	std	Z+1, r24	; 0x01
     470:	0e 94 ed 03 	call	0x7da	; 0x7da <debugprint>
     474:	0f 90       	pop	r0
     476:	0f 90       	pop	r0
	}
	// display local allocated IP 
	debugprint("\r\n Allocated local IP:\r\n");
     478:	0f 92       	push	r0
     47a:	0f 92       	push	r0
     47c:	83 e0       	ldi	r24, 0x03	; 3
     47e:	93 e0       	ldi	r25, 0x03	; 3
     480:	ad b7       	in	r26, 0x3d	; 61
     482:	be b7       	in	r27, 0x3e	; 62
     484:	12 96       	adiw	r26, 0x02	; 2
     486:	9c 93       	st	X, r25
     488:	8e 93       	st	-X, r24
     48a:	11 97       	sbiw	r26, 0x01	; 1
     48c:	0e 94 ed 03 	call	0x7da	; 0x7da <debugprint>
	wifiDisplayLocalIP();
     490:	0f 90       	pop	r0
     492:	0f 90       	pop	r0
     494:	0e 94 2e 0a 	call	0x145c	; 0x145c <wifiDisplayLocalIP>
	debugprint("\r\n");
     498:	0f 92       	push	r0
     49a:	0f 92       	push	r0
     49c:	83 ec       	ldi	r24, 0xC3	; 195
     49e:	92 e0       	ldi	r25, 0x02	; 2
     4a0:	ed b7       	in	r30, 0x3d	; 61
     4a2:	fe b7       	in	r31, 0x3e	; 62
     4a4:	92 83       	std	Z+2, r25	; 0x02
     4a6:	81 83       	std	Z+1, r24	; 0x01
     4a8:	0e 94 ed 03 	call	0x7da	; 0x7da <debugprint>
	
	// TCP remote server connection
	if( !wifiConnectTCPServer(SERVER_IP_STR,SERVER_PORT))
     4ac:	0f 90       	pop	r0
     4ae:	0f 90       	pop	r0
     4b0:	8c e1       	ldi	r24, 0x1C	; 28
     4b2:	93 e0       	ldi	r25, 0x03	; 3
     4b4:	41 e5       	ldi	r20, 0x51	; 81
     4b6:	53 ec       	ldi	r21, 0xC3	; 195
     4b8:	60 e0       	ldi	r22, 0x00	; 0
     4ba:	70 e0       	ldi	r23, 0x00	; 0
     4bc:	0e 94 4c 0a 	call	0x1498	; 0x1498 <wifiConnectTCPServer>
     4c0:	88 23       	and	r24, r24
     4c2:	91 f4       	brne	.+36     	; 0x4e8 <main+0x15e>
	{
		bClientConnected = 1;
     4c4:	81 e0       	ldi	r24, 0x01	; 1
     4c6:	80 93 1e 05 	sts	0x051E, r24
		debugprint("Connected Server.\r\n");
     4ca:	0f 92       	push	r0
     4cc:	0f 92       	push	r0
     4ce:	8b e2       	ldi	r24, 0x2B	; 43
     4d0:	93 e0       	ldi	r25, 0x03	; 3
     4d2:	ad b7       	in	r26, 0x3d	; 61
     4d4:	be b7       	in	r27, 0x3e	; 62
     4d6:	12 96       	adiw	r26, 0x02	; 2
     4d8:	9c 93       	st	X, r25
     4da:	8e 93       	st	-X, r24
     4dc:	11 97       	sbiw	r26, 0x01	; 1
     4de:	0e 94 ed 03 	call	0x7da	; 0x7da <debugprint>
     4e2:	0f 90       	pop	r0
     4e4:	0f 90       	pop	r0
     4e6:	0e c0       	rjmp	.+28     	; 0x504 <main+0x17a>
	}
	else
	{
		bClientConnected = 0;
     4e8:	10 92 1e 05 	sts	0x051E, r1
		debugprint("Server connection fail.\r\n");
     4ec:	0f 92       	push	r0
     4ee:	0f 92       	push	r0
     4f0:	8f e3       	ldi	r24, 0x3F	; 63
     4f2:	93 e0       	ldi	r25, 0x03	; 3
     4f4:	ed b7       	in	r30, 0x3d	; 61
     4f6:	fe b7       	in	r31, 0x3e	; 62
     4f8:	92 83       	std	Z+2, r25	; 0x02
     4fa:	81 83       	std	Z+1, r24	; 0x01
     4fc:	0e 94 ed 03 	call	0x7da	; 0x7da <debugprint>
     500:	0f 90       	pop	r0
     502:	0f 90       	pop	r0
	}				
	debugprint("\r\n");
     504:	0f 92       	push	r0
     506:	0f 92       	push	r0
     508:	83 ec       	ldi	r24, 0xC3	; 195
     50a:	92 e0       	ldi	r25, 0x02	; 2
     50c:	ad b7       	in	r26, 0x3d	; 61
     50e:	be b7       	in	r27, 0x3e	; 62
     510:	12 96       	adiw	r26, 0x02	; 2
     512:	9c 93       	st	X, r25
     514:	8e 93       	st	-X, r24
     516:	11 97       	sbiw	r26, 0x01	; 1
     518:	0e 94 ed 03 	call	0x7da	; 0x7da <debugprint>
	wificlearUartBuff();
     51c:	0f 90       	pop	r0
     51e:	0f 90       	pop	r0
     520:	0e 94 03 0b 	call	0x1606	; 0x1606 <wificlearUartBuff>

	// 두개의 객체
	handler_id  handleIdSensor = -1;	// 온도 센서
	handler_id  handleIdActuator = -1;	// FAN 액츄에이터
	
	char  obj_des[] = OBJECT_DESC_TEMP_MONITOR;
     524:	de 01       	movw	r26, r28
     526:	11 96       	adiw	r26, 0x01	; 1
     528:	e1 e9       	ldi	r30, 0x91	; 145
     52a:	f3 e0       	ldi	r31, 0x03	; 3
     52c:	81 e1       	ldi	r24, 0x11	; 17
     52e:	01 90       	ld	r0, Z+
     530:	0d 92       	st	X+, r0
     532:	81 50       	subi	r24, 0x01	; 1
     534:	e1 f7       	brne	.-8      	; 0x52e <main+0x1a4>
	char  entity_sort1[] = ENTITY_SORT1_TEMP_MONITOR;
     536:	83 e4       	ldi	r24, 0x43	; 67
     538:	90 e0       	ldi	r25, 0x00	; 0
     53a:	9b 8b       	std	Y+19, r25	; 0x13
     53c:	8a 8b       	std	Y+18, r24	; 0x12
	char  entity_sort2[] = ENTITY_SORT2_TEMP_MONITOR;
     53e:	9d 8b       	std	Y+21, r25	; 0x15
     540:	8c 8b       	std	Y+20, r24	; 0x14
	
	handleIdSensor = createPktHandle((uint32_t)CNDI_USER_DOMAIN,(uint32_t)CONTROL_ID, (uint32_t)OBJECT_ID_TEMP_MONITOR, obj_des, (uint8_t)CMD_OBJ_TYPE_SENSOR,1, 
     542:	00 d0       	rcall	.+0      	; 0x544 <main+0x1ba>
     544:	00 d0       	rcall	.+0      	; 0x546 <main+0x1bc>
     546:	ed b7       	in	r30, 0x3d	; 61
     548:	fe b7       	in	r31, 0x3e	; 62
     54a:	31 96       	adiw	r30, 0x01	; 1
     54c:	81 e0       	ldi	r24, 0x01	; 1
     54e:	ad b7       	in	r26, 0x3d	; 61
     550:	be b7       	in	r27, 0x3e	; 62
     552:	11 96       	adiw	r26, 0x01	; 1
     554:	8c 93       	st	X, r24
										(uint8_t)ENTITYID_1_TEMP_MONITOR1,entity_sort1,(uint8_t)ENTITYID_2_TEMP_MONITOR2, entity_sort2); 
     556:	ce 01       	movw	r24, r28
     558:	42 96       	adiw	r24, 0x12	; 18
	
	char  obj_des[] = OBJECT_DESC_TEMP_MONITOR;
	char  entity_sort1[] = ENTITY_SORT1_TEMP_MONITOR;
	char  entity_sort2[] = ENTITY_SORT2_TEMP_MONITOR;
	
	handleIdSensor = createPktHandle((uint32_t)CNDI_USER_DOMAIN,(uint32_t)CONTROL_ID, (uint32_t)OBJECT_ID_TEMP_MONITOR, obj_des, (uint8_t)CMD_OBJ_TYPE_SENSOR,1, 
     55a:	92 83       	std	Z+2, r25	; 0x02
     55c:	81 83       	std	Z+1, r24	; 0x01
     55e:	82 e0       	ldi	r24, 0x02	; 2
     560:	83 83       	std	Z+3, r24	; 0x03
										(uint8_t)ENTITYID_1_TEMP_MONITOR1,entity_sort1,(uint8_t)ENTITYID_2_TEMP_MONITOR2, entity_sort2); 
     562:	ce 01       	movw	r24, r28
     564:	44 96       	adiw	r24, 0x14	; 20
	
	char  obj_des[] = OBJECT_DESC_TEMP_MONITOR;
	char  entity_sort1[] = ENTITY_SORT1_TEMP_MONITOR;
	char  entity_sort2[] = ENTITY_SORT2_TEMP_MONITOR;
	
	handleIdSensor = createPktHandle((uint32_t)CNDI_USER_DOMAIN,(uint32_t)CONTROL_ID, (uint32_t)OBJECT_ID_TEMP_MONITOR, obj_des, (uint8_t)CMD_OBJ_TYPE_SENSOR,1, 
     566:	95 83       	std	Z+5, r25	; 0x05
     568:	84 83       	std	Z+4, r24	; 0x04
     56a:	67 e5       	ldi	r22, 0x57	; 87
     56c:	74 e0       	ldi	r23, 0x04	; 4
     56e:	80 e0       	ldi	r24, 0x00	; 0
     570:	90 e0       	ldi	r25, 0x00	; 0
     572:	20 e1       	ldi	r18, 0x10	; 16
     574:	30 e0       	ldi	r19, 0x00	; 0
     576:	40 e0       	ldi	r20, 0x00	; 0
     578:	50 e0       	ldi	r21, 0x00	; 0
     57a:	0f 2e       	mov	r0, r31
     57c:	f1 e1       	ldi	r31, 0x11	; 17
     57e:	ef 2e       	mov	r14, r31
     580:	f0 e0       	ldi	r31, 0x00	; 0
     582:	ff 2e       	mov	r15, r31
     584:	f0 e0       	ldi	r31, 0x00	; 0
     586:	0f 2f       	mov	r16, r31
     588:	f0 e0       	ldi	r31, 0x00	; 0
     58a:	1f 2f       	mov	r17, r31
     58c:	f0 2d       	mov	r31, r0
     58e:	6e 01       	movw	r12, r28
     590:	08 94       	sec
     592:	c1 1c       	adc	r12, r1
     594:	d1 1c       	adc	r13, r1
     596:	aa 24       	eor	r10, r10
     598:	88 24       	eor	r8, r8
     59a:	83 94       	inc	r8
     59c:	0e 94 a9 0e 	call	0x1d52	; 0x1d52 <createPktHandle>
     5a0:	2b 01       	movw	r4, r22
     5a2:	3c 01       	movw	r6, r24
										(uint8_t)ENTITYID_1_TEMP_MONITOR1,entity_sort1,(uint8_t)ENTITYID_2_TEMP_MONITOR2, entity_sort2); 


	char  obj_des_ac[] = OBJECT_DESC_FAN_CONTROL;
     5a4:	fe 01       	movw	r30, r28
     5a6:	76 96       	adiw	r30, 0x16	; 22
     5a8:	a2 ea       	ldi	r26, 0xA2	; 162
     5aa:	b3 e0       	ldi	r27, 0x03	; 3
     5ac:	80 e1       	ldi	r24, 0x10	; 16
     5ae:	0d 90       	ld	r0, X+
     5b0:	01 92       	st	Z+, r0
     5b2:	81 50       	subi	r24, 0x01	; 1
     5b4:	e1 f7       	brne	.-8      	; 0x5ae <main+0x224>
	char  entity_sort1_ac[] = ENTITY_SORT1_FAN_CONTROL;
     5b6:	fe 01       	movw	r30, r28
     5b8:	b6 96       	adiw	r30, 0x26	; 38
     5ba:	a2 eb       	ldi	r26, 0xB2	; 178
     5bc:	b3 e0       	ldi	r27, 0x03	; 3
     5be:	83 e0       	ldi	r24, 0x03	; 3
     5c0:	0d 90       	ld	r0, X+
     5c2:	01 92       	st	Z+, r0
     5c4:	81 50       	subi	r24, 0x01	; 1
     5c6:	e1 f7       	brne	.-8      	; 0x5c0 <main+0x236>
	char  entity_sort2_ac[] = ENTITY_SORT2_FAN_CONTROL;
     5c8:	fe 01       	movw	r30, r28
     5ca:	b9 96       	adiw	r30, 0x29	; 41
     5cc:	a2 eb       	ldi	r26, 0xB2	; 178
     5ce:	b3 e0       	ldi	r27, 0x03	; 3
     5d0:	83 e0       	ldi	r24, 0x03	; 3
     5d2:	0d 90       	ld	r0, X+
     5d4:	01 92       	st	Z+, r0
     5d6:	81 50       	subi	r24, 0x01	; 1
     5d8:	e1 f7       	brne	.-8      	; 0x5d2 <main+0x248>
	
	handleIdActuator = createPktHandle((uint32_t)CNDI_USER_DOMAIN,(uint32_t)CONTROL_ID, (uint32_t)OBJECT_ID_FAN_CONTROL, obj_des_ac, (uint8_t)CMD_OBJ_TYPE_ACTUATOR,1,
     5da:	ed b7       	in	r30, 0x3d	; 61
     5dc:	fe b7       	in	r31, 0x3e	; 62
     5de:	31 96       	adiw	r30, 0x01	; 1
     5e0:	83 e0       	ldi	r24, 0x03	; 3
     5e2:	ad b7       	in	r26, 0x3d	; 61
     5e4:	be b7       	in	r27, 0x3e	; 62
     5e6:	11 96       	adiw	r26, 0x01	; 1
     5e8:	8c 93       	st	X, r24
			(uint8_t)ENTITYID_1_FAN_CONTROL1,entity_sort1_ac,(uint8_t)ENTITYID_2_FAN_CONTROL2, entity_sort2_ac);
     5ea:	ce 01       	movw	r24, r28
     5ec:	86 96       	adiw	r24, 0x26	; 38

	char  obj_des_ac[] = OBJECT_DESC_FAN_CONTROL;
	char  entity_sort1_ac[] = ENTITY_SORT1_FAN_CONTROL;
	char  entity_sort2_ac[] = ENTITY_SORT2_FAN_CONTROL;
	
	handleIdActuator = createPktHandle((uint32_t)CNDI_USER_DOMAIN,(uint32_t)CONTROL_ID, (uint32_t)OBJECT_ID_FAN_CONTROL, obj_des_ac, (uint8_t)CMD_OBJ_TYPE_ACTUATOR,1,
     5ee:	92 83       	std	Z+2, r25	; 0x02
     5f0:	81 83       	std	Z+1, r24	; 0x01
     5f2:	84 e0       	ldi	r24, 0x04	; 4
     5f4:	83 83       	std	Z+3, r24	; 0x03
			(uint8_t)ENTITYID_1_FAN_CONTROL1,entity_sort1_ac,(uint8_t)ENTITYID_2_FAN_CONTROL2, entity_sort2_ac);
     5f6:	ce 01       	movw	r24, r28
     5f8:	89 96       	adiw	r24, 0x29	; 41

	char  obj_des_ac[] = OBJECT_DESC_FAN_CONTROL;
	char  entity_sort1_ac[] = ENTITY_SORT1_FAN_CONTROL;
	char  entity_sort2_ac[] = ENTITY_SORT2_FAN_CONTROL;
	
	handleIdActuator = createPktHandle((uint32_t)CNDI_USER_DOMAIN,(uint32_t)CONTROL_ID, (uint32_t)OBJECT_ID_FAN_CONTROL, obj_des_ac, (uint8_t)CMD_OBJ_TYPE_ACTUATOR,1,
     5fa:	95 83       	std	Z+5, r25	; 0x05
     5fc:	84 83       	std	Z+4, r24	; 0x04
     5fe:	67 e5       	ldi	r22, 0x57	; 87
     600:	74 e0       	ldi	r23, 0x04	; 4
     602:	80 e0       	ldi	r24, 0x00	; 0
     604:	90 e0       	ldi	r25, 0x00	; 0
     606:	20 e1       	ldi	r18, 0x10	; 16
     608:	30 e0       	ldi	r19, 0x00	; 0
     60a:	40 e0       	ldi	r20, 0x00	; 0
     60c:	50 e0       	ldi	r21, 0x00	; 0
     60e:	0f 2e       	mov	r0, r31
     610:	f2 e1       	ldi	r31, 0x12	; 18
     612:	ef 2e       	mov	r14, r31
     614:	f0 e0       	ldi	r31, 0x00	; 0
     616:	ff 2e       	mov	r15, r31
     618:	f0 e0       	ldi	r31, 0x00	; 0
     61a:	0f 2f       	mov	r16, r31
     61c:	f0 e0       	ldi	r31, 0x00	; 0
     61e:	1f 2f       	mov	r17, r31
     620:	f0 2d       	mov	r31, r0
     622:	0f 2e       	mov	r0, r31
     624:	f6 e1       	ldi	r31, 0x16	; 22
     626:	cf 2e       	mov	r12, r31
     628:	dd 24       	eor	r13, r13
     62a:	f0 2d       	mov	r31, r0
     62c:	cc 0e       	add	r12, r28
     62e:	dd 1e       	adc	r13, r29
     630:	aa 24       	eor	r10, r10
     632:	a3 94       	inc	r10
     634:	88 24       	eor	r8, r8
     636:	83 94       	inc	r8
     638:	0e 94 a9 0e 	call	0x1d52	; 0x1d52 <createPktHandle>
     63c:	7b 01       	movw	r14, r22
     63e:	8c 01       	movw	r16, r24
			(uint8_t)ENTITYID_1_FAN_CONTROL1,entity_sort1_ac,(uint8_t)ENTITYID_2_FAN_CONTROL2, entity_sort2_ac);
	
	SendSensorData(handleIdSensor, SENSOR_INIT, 0);
     640:	ed b7       	in	r30, 0x3d	; 61
     642:	fe b7       	in	r31, 0x3e	; 62
     644:	36 96       	adiw	r30, 0x06	; 6
     646:	0f b6       	in	r0, 0x3f	; 63
     648:	f8 94       	cli
     64a:	fe bf       	out	0x3e, r31	; 62
     64c:	0f be       	out	0x3f, r0	; 63
     64e:	ed bf       	out	0x3d, r30	; 61
     650:	c3 01       	movw	r24, r6
     652:	b2 01       	movw	r22, r4
     654:	40 e0       	ldi	r20, 0x00	; 0
     656:	50 e0       	ldi	r21, 0x00	; 0
     658:	20 e0       	ldi	r18, 0x00	; 0
     65a:	30 e0       	ldi	r19, 0x00	; 0
     65c:	0e 94 2d 01 	call	0x25a	; 0x25a <SendSensorData>
     660:	8f ef       	ldi	r24, 0xFF	; 255
     662:	9f ef       	ldi	r25, 0xFF	; 255
     664:	ac e2       	ldi	r26, 0x2C	; 44
     666:	81 50       	subi	r24, 0x01	; 1
     668:	90 40       	sbci	r25, 0x00	; 0
     66a:	a0 40       	sbci	r26, 0x00	; 0
     66c:	e1 f7       	brne	.-8      	; 0x666 <main+0x2dc>
     66e:	00 c0       	rjmp	.+0      	; 0x670 <main+0x2e6>
     670:	00 00       	nop
	
	_delay_ms(1000);
	
	SendActuatorData(handleIdActuator, FAN_OFF, 0);
     672:	c8 01       	movw	r24, r16
     674:	b7 01       	movw	r22, r14
     676:	40 e0       	ldi	r20, 0x00	; 0
     678:	50 e0       	ldi	r21, 0x00	; 0
     67a:	20 e0       	ldi	r18, 0x00	; 0
     67c:	30 e0       	ldi	r19, 0x00	; 0
     67e:	0e 94 79 01 	call	0x2f2	; 0x2f2 <SendActuatorData>
	
	TIMER_100mSInit ();
     682:	0e 94 21 14 	call	0x2842	; 0x2842 <TIMER_100mSInit>
	setElapsedTime100mSUnit(100);	// 1 Sec
     686:	64 e6       	ldi	r22, 0x64	; 100
     688:	70 e0       	ldi	r23, 0x00	; 0
     68a:	80 e0       	ldi	r24, 0x00	; 0
     68c:	90 e0       	ldi	r25, 0x00	; 0
     68e:	0e 94 2c 14 	call	0x2858	; 0x2858 <setElapsedTime100mSUnit>

/*************** Sensor and Actuator Initialization ****************/
	// temp, humi sensor
	int tempData;
	SHT11_Init();
     692:	0e 94 c4 11 	call	0x2388	; 0x2388 <SHT11_Init>
	
	// fan actuator
	gnFanOnValue = 0; // default disable
     696:	10 92 20 05 	sts	0x0520, r1
     69a:	10 92 1f 05 	sts	0x051F, r1
	initFan();
     69e:	0e 94 45 0b 	call	0x168a	; 0x168a <initFan>

	debugprint("INDEX_ENT_VALUE_1:%d\r\n",INDEX_ENT_VALUE_1);
     6a2:	00 d0       	rcall	.+0      	; 0x6a4 <main+0x31a>
     6a4:	0f 92       	push	r0
     6a6:	89 e5       	ldi	r24, 0x59	; 89
     6a8:	93 e0       	ldi	r25, 0x03	; 3
     6aa:	ad b7       	in	r26, 0x3d	; 61
     6ac:	be b7       	in	r27, 0x3e	; 62
     6ae:	12 96       	adiw	r26, 0x02	; 2
     6b0:	9c 93       	st	X, r25
     6b2:	8e 93       	st	-X, r24
     6b4:	11 97       	sbiw	r26, 0x01	; 1
     6b6:	8c e3       	ldi	r24, 0x3C	; 60
     6b8:	90 e0       	ldi	r25, 0x00	; 0
     6ba:	14 96       	adiw	r26, 0x04	; 4
     6bc:	9c 93       	st	X, r25
     6be:	8e 93       	st	-X, r24
     6c0:	13 97       	sbiw	r26, 0x03	; 3
     6c2:	0e 94 ed 03 	call	0x7da	; 0x7da <debugprint>
     6c6:	0f 90       	pop	r0
     6c8:	0f 90       	pop	r0
     6ca:	0f 90       	pop	r0
     6cc:	0f 90       	pop	r0

	while(1)
	{
		tempData = get_SHT11_data(TEMP);
		debugprint("temp = %d [C], fan value = %d \r\n", tempData, gnFanOnValue);
     6ce:	0f 2e       	mov	r0, r31
     6d0:	f0 e7       	ldi	r31, 0x70	; 112
     6d2:	ef 2e       	mov	r14, r31
     6d4:	f3 e0       	ldi	r31, 0x03	; 3
     6d6:	ff 2e       	mov	r15, r31
     6d8:	f0 2d       	mov	r31, r0

	debugprint("INDEX_ENT_VALUE_1:%d\r\n",INDEX_ENT_VALUE_1);

	while(1)
	{
		tempData = get_SHT11_data(TEMP);
     6da:	80 e0       	ldi	r24, 0x00	; 0
     6dc:	0e 94 81 13 	call	0x2702	; 0x2702 <get_SHT11_data>
     6e0:	18 2f       	mov	r17, r24
     6e2:	09 2f       	mov	r16, r25
		debugprint("temp = %d [C], fan value = %d \r\n", tempData, gnFanOnValue);
     6e4:	80 91 1f 05 	lds	r24, 0x051F
     6e8:	90 91 20 05 	lds	r25, 0x0520
     6ec:	00 d0       	rcall	.+0      	; 0x6ee <main+0x364>
     6ee:	00 d0       	rcall	.+0      	; 0x6f0 <main+0x366>
     6f0:	ed b7       	in	r30, 0x3d	; 61
     6f2:	fe b7       	in	r31, 0x3e	; 62
     6f4:	31 96       	adiw	r30, 0x01	; 1
     6f6:	ad b7       	in	r26, 0x3d	; 61
     6f8:	be b7       	in	r27, 0x3e	; 62
     6fa:	12 96       	adiw	r26, 0x02	; 2
     6fc:	fc 92       	st	X, r15
     6fe:	ee 92       	st	-X, r14
     700:	11 97       	sbiw	r26, 0x01	; 1
     702:	12 83       	std	Z+2, r17	; 0x02
     704:	03 83       	std	Z+3, r16	; 0x03
     706:	95 83       	std	Z+5, r25	; 0x05
     708:	84 83       	std	Z+4, r24	; 0x04
     70a:	0e 94 ed 03 	call	0x7da	; 0x7da <debugprint>

		FAN_Action(gnFanOnValue);
     70e:	80 91 1f 05 	lds	r24, 0x051F
     712:	90 91 20 05 	lds	r25, 0x0520
     716:	ed b7       	in	r30, 0x3d	; 61
     718:	fe b7       	in	r31, 0x3e	; 62
     71a:	36 96       	adiw	r30, 0x06	; 6
     71c:	0f b6       	in	r0, 0x3f	; 63
     71e:	f8 94       	cli
     720:	fe bf       	out	0x3e, r31	; 62
     722:	0f be       	out	0x3f, r0	; 63
     724:	ed bf       	out	0x3d, r30	; 61
     726:	0e 94 3e 0b 	call	0x167c	; 0x167c <FAN_Action>
			
		wifiMain();
     72a:	0e 94 70 07 	call	0xee0	; 0xee0 <wifiMain>
		
		if ( isElapsed())
     72e:	0e 94 3f 14 	call	0x287e	; 0x287e <isElapsed>
     732:	88 23       	and	r24, r24
     734:	91 f2       	breq	.-92     	; 0x6da <main+0x350>
		{
			SendSensorData(handleIdSensor, tempData, 0);
     736:	c3 01       	movw	r24, r6
     738:	b2 01       	movw	r22, r4
     73a:	41 2f       	mov	r20, r17
     73c:	50 2f       	mov	r21, r16
     73e:	20 e0       	ldi	r18, 0x00	; 0
     740:	30 e0       	ldi	r19, 0x00	; 0
     742:	0e 94 2d 01 	call	0x25a	; 0x25a <SendSensorData>
     746:	c9 cf       	rjmp	.-110    	; 0x6da <main+0x350>

00000748 <putCh2>:
volatile unsigned char g_debugRxData[MAX_DEBUG_RX_DATA]; // Rx buff
volatile unsigned char g_debugRxCurrentIndex = 0;       // Rx buffer index

void putCh2(char ch)
{
	while (!(UCSR2A & 0x20));
     748:	e0 ed       	ldi	r30, 0xD0	; 208
     74a:	f0 e0       	ldi	r31, 0x00	; 0
     74c:	90 81       	ld	r25, Z
     74e:	95 ff       	sbrs	r25, 5
     750:	fd cf       	rjmp	.-6      	; 0x74c <putCh2+0x4>
		UDR2= ch;
     752:	80 93 d6 00 	sts	0x00D6, r24
}
     756:	08 95       	ret

00000758 <__vector_51>:

ISR(USART2_RX_vect)
{
     758:	1f 92       	push	r1
     75a:	0f 92       	push	r0
     75c:	0f b6       	in	r0, 0x3f	; 63
     75e:	0f 92       	push	r0
     760:	0b b6       	in	r0, 0x3b	; 59
     762:	0f 92       	push	r0
     764:	11 24       	eor	r1, r1
     766:	8f 93       	push	r24
     768:	9f 93       	push	r25
     76a:	ef 93       	push	r30
     76c:	ff 93       	push	r31
	g_debugRxData[g_debugRxCurrentIndex] = UDR2;
     76e:	90 91 0a 05 	lds	r25, 0x050A
     772:	80 91 d6 00 	lds	r24, 0x00D6
     776:	e1 e2       	ldi	r30, 0x21	; 33
     778:	f5 e0       	ldi	r31, 0x05	; 5
     77a:	e9 0f       	add	r30, r25
     77c:	f1 1d       	adc	r31, r1
     77e:	80 83       	st	Z, r24
	g_debugRxCurrentIndex++;
     780:	80 91 0a 05 	lds	r24, 0x050A
     784:	8f 5f       	subi	r24, 0xFF	; 255
     786:	80 93 0a 05 	sts	0x050A, r24
	if(g_debugRxCurrentIndex >= MAX_DEBUG_RX_DATA)
     78a:	80 91 0a 05 	lds	r24, 0x050A
     78e:	80 34       	cpi	r24, 0x40	; 64
     790:	10 f0       	brcs	.+4      	; 0x796 <__vector_51+0x3e>
		g_debugRxCurrentIndex = 0;
     792:	10 92 0a 05 	sts	0x050A, r1
}
     796:	ff 91       	pop	r31
     798:	ef 91       	pop	r30
     79a:	9f 91       	pop	r25
     79c:	8f 91       	pop	r24
     79e:	0f 90       	pop	r0
     7a0:	0b be       	out	0x3b, r0	; 59
     7a2:	0f 90       	pop	r0
     7a4:	0f be       	out	0x3f, r0	; 63
     7a6:	0f 90       	pop	r0
     7a8:	1f 90       	pop	r1
     7aa:	18 95       	reti

000007ac <debugInit>:
#define BAUD_RATE 115200L
void debugInit()
{
	// USART2 use
	// PH0 => RX, PH1 => TX
	DDRH  &= 0xFC;										// "0" input, "1" output
     7ac:	e1 e0       	ldi	r30, 0x01	; 1
     7ae:	f1 e0       	ldi	r31, 0x01	; 1
     7b0:	80 81       	ld	r24, Z
     7b2:	8c 7f       	andi	r24, 0xFC	; 252
     7b4:	80 83       	st	Z, r24
	PORTH |= 0x00;
     7b6:	e2 e0       	ldi	r30, 0x02	; 2
     7b8:	f1 e0       	ldi	r31, 0x01	; 1
     7ba:	80 81       	ld	r24, Z
     7bc:	80 83       	st	Z, r24
	
	// Not Double mode, Not multi_communication
	UCSR2A = 0x00;								// x2 Mode
     7be:	10 92 d0 00 	sts	0x00D0, r1
	UCSR2B = 0x98;
     7c2:	88 e9       	ldi	r24, 0x98	; 152
     7c4:	80 93 d1 00 	sts	0x00D1, r24
	UCSR2C = 0x06;
     7c8:	86 e0       	ldi	r24, 0x06	; 6
     7ca:	80 93 d2 00 	sts	0x00D2, r24
	//	UBRR0L = 0x3F;	// 0b00110011, (14745600 / (16 * 14400)) - 1 = 0x40
	//	UBRR0L = 0x2F;	// 0b00110011, (14745600 / (16 * 19200)) - 1 = 0x2F
	//	UBRR0L = 0x17;	// 0b00110011, (14745600 / (16 * 38400)) - 1 = 0x17
	//	UBRR0L = 0x0F;	// 0b00110011, (14745600 / (16 * 57600)) - 1 = 0x0F

	UBRR2H=(unsigned char) (baud >>8);                            // baud ?????? ??????  H???????? ????
     7ce:	10 92 d5 00 	sts	0x00D5, r1
	UBRR2L=(unsigned char) (baud & 0xFF);                         // baud ?????? ??????  L???????  ????
     7d2:	87 e0       	ldi	r24, 0x07	; 7
     7d4:	80 93 d4 00 	sts	0x00D4, r24
	
	//	UBRR2H = 0x00;
	//	UBRR2L = 16;								// 115200
}
     7d8:	08 95       	ret

000007da <debugprint>:

void debugprint(const char *fmt,...)
{
     7da:	0f 93       	push	r16
     7dc:	1f 93       	push	r17
     7de:	cf 93       	push	r28
     7e0:	df 93       	push	r29
     7e2:	cd b7       	in	r28, 0x3d	; 61
     7e4:	de b7       	in	r29, 0x3e	; 62
     7e6:	c0 58       	subi	r28, 0x80	; 128
     7e8:	d0 40       	sbci	r29, 0x00	; 0
     7ea:	0f b6       	in	r0, 0x3f	; 63
     7ec:	f8 94       	cli
     7ee:	de bf       	out	0x3e, r29	; 62
     7f0:	0f be       	out	0x3f, r0	; 63
     7f2:	cd bf       	out	0x3d, r28	; 61
     7f4:	fe 01       	movw	r30, r28
     7f6:	e8 57       	subi	r30, 0x78	; 120
     7f8:	ff 4f       	sbci	r31, 0xFF	; 255
     7fa:	61 91       	ld	r22, Z+
     7fc:	71 91       	ld	r23, Z+
	va_list ap;
	char s[128];
	char *p_char = s;
	va_start(ap, fmt);
	vsprintf(s, fmt,ap);
     7fe:	ce 01       	movw	r24, r28
     800:	01 96       	adiw	r24, 0x01	; 1
     802:	4e 2f       	mov	r20, r30
     804:	5f 2f       	mov	r21, r31
     806:	0e 94 34 16 	call	0x2c68	; 0x2c68 <vsprintf>
	va_end(ap);
	while(0 != *p_char){
     80a:	89 81       	ldd	r24, Y+1	; 0x01
     80c:	88 23       	and	r24, r24
     80e:	51 f0       	breq	.+20     	; 0x824 <debugprint+0x4a>
     810:	8e 01       	movw	r16, r28
     812:	0e 5f       	subi	r16, 0xFE	; 254
     814:	1f 4f       	sbci	r17, 0xFF	; 255
		putCh2(*p_char++);
     816:	0e 94 a4 03 	call	0x748	; 0x748 <putCh2>
	char s[128];
	char *p_char = s;
	va_start(ap, fmt);
	vsprintf(s, fmt,ap);
	va_end(ap);
	while(0 != *p_char){
     81a:	f8 01       	movw	r30, r16
     81c:	81 91       	ld	r24, Z+
     81e:	8f 01       	movw	r16, r30
     820:	88 23       	and	r24, r24
     822:	c9 f7       	brne	.-14     	; 0x816 <debugprint+0x3c>
		putCh2(*p_char++);
	}	
}
     824:	c0 58       	subi	r28, 0x80	; 128
     826:	df 4f       	sbci	r29, 0xFF	; 255
     828:	0f b6       	in	r0, 0x3f	; 63
     82a:	f8 94       	cli
     82c:	de bf       	out	0x3e, r29	; 62
     82e:	0f be       	out	0x3f, r0	; 63
     830:	cd bf       	out	0x3d, r28	; 61
     832:	df 91       	pop	r29
     834:	cf 91       	pop	r28
     836:	1f 91       	pop	r17
     838:	0f 91       	pop	r16
     83a:	08 95       	ret

0000083c <debugConsoleMain>:

void debugConsoleMain()
{
	int i;

	if ( !g_debugRxCurrentIndex ) 
     83c:	80 91 0a 05 	lds	r24, 0x050A
     840:	88 23       	and	r24, r24
     842:	79 f0       	breq	.+30     	; 0x862 <debugConsoleMain+0x26>
		return;
	
	for(i = 0; i <g_debugRxCurrentIndex;i++)
     844:	80 91 0a 05 	lds	r24, 0x050A
     848:	88 23       	and	r24, r24
     84a:	49 f0       	breq	.+18     	; 0x85e <debugConsoleMain+0x22>
     84c:	80 e0       	ldi	r24, 0x00	; 0
     84e:	90 e0       	ldi	r25, 0x00	; 0
     850:	01 96       	adiw	r24, 0x01	; 1
     852:	20 91 0a 05 	lds	r18, 0x050A
     856:	30 e0       	ldi	r19, 0x00	; 0
     858:	82 17       	cp	r24, r18
     85a:	93 07       	cpc	r25, r19
     85c:	cc f3       	brlt	.-14     	; 0x850 <debugConsoleMain+0x14>
	{

	}
	g_debugRxCurrentIndex = 0;
     85e:	10 92 0a 05 	sts	0x050A, r1
     862:	08 95       	ret

00000864 <putCh0>:
volatile int g_rxDataLen = 0;
volatile uint8_t g_rxDataBuff[MAX_WIFI_RX_DATA];

void putCh0(char ch)
{
	while (!(UCSR0A & 0x20));
     864:	e0 ec       	ldi	r30, 0xC0	; 192
     866:	f0 e0       	ldi	r31, 0x00	; 0
     868:	90 81       	ld	r25, Z
     86a:	95 ff       	sbrs	r25, 5
     86c:	fd cf       	rjmp	.-6      	; 0x868 <putCh0+0x4>
	UDR0= ch;
     86e:	80 93 c6 00 	sts	0x00C6, r24
}
     872:	08 95       	ret

00000874 <__vector_25>:

ISR(USART0_RX_vect)
{
     874:	1f 92       	push	r1
     876:	0f 92       	push	r0
     878:	0f b6       	in	r0, 0x3f	; 63
     87a:	0f 92       	push	r0
     87c:	0b b6       	in	r0, 0x3b	; 59
     87e:	0f 92       	push	r0
     880:	11 24       	eor	r1, r1
     882:	8f 93       	push	r24
     884:	9f 93       	push	r25
     886:	ef 93       	push	r30
     888:	ff 93       	push	r31
	g_wifiRxData[g_wifiRxCurrentIndex] = UDR0;
     88a:	90 91 10 05 	lds	r25, 0x0510
     88e:	80 91 c6 00 	lds	r24, 0x00C6
     892:	e1 e6       	ldi	r30, 0x61	; 97
     894:	f7 e0       	ldi	r31, 0x07	; 7
     896:	e9 0f       	add	r30, r25
     898:	f1 1d       	adc	r31, r1
     89a:	80 83       	st	Z, r24
	g_wifiRxCurrentIndex++;
     89c:	80 91 10 05 	lds	r24, 0x0510
     8a0:	8f 5f       	subi	r24, 0xFF	; 255
     8a2:	80 93 10 05 	sts	0x0510, r24
	if(g_wifiRxCurrentIndex >= MAX_WIFI_RX_DATA)
     8a6:	80 91 10 05 	lds	r24, 0x0510
	g_wifiRxCurrentIndex = 0;
}
     8aa:	ff 91       	pop	r31
     8ac:	ef 91       	pop	r30
     8ae:	9f 91       	pop	r25
     8b0:	8f 91       	pop	r24
     8b2:	0f 90       	pop	r0
     8b4:	0b be       	out	0x3b, r0	; 59
     8b6:	0f 90       	pop	r0
     8b8:	0f be       	out	0x3f, r0	; 63
     8ba:	0f 90       	pop	r0
     8bc:	1f 90       	pop	r1
     8be:	18 95       	reti

000008c0 <wifiAndBTModuleReset>:

void wifiAndBTModuleReset()
{
	// MOD_RESET(PD6) (wifi module and  BT module reset )  => bt + wifi  reset
	DDRD  &= 0xBF; // input										// "0" input, "1" output
     8c0:	56 98       	cbi	0x0a, 6	; 10
	PORTD &= 0xBF; // low
     8c2:	5e 98       	cbi	0x0b, 6	; 11
     8c4:	89 e9       	ldi	r24, 0x99	; 153
     8c6:	99 e5       	ldi	r25, 0x59	; 89
     8c8:	a1 e0       	ldi	r26, 0x01	; 1
     8ca:	81 50       	subi	r24, 0x01	; 1
     8cc:	90 40       	sbci	r25, 0x00	; 0
     8ce:	a0 40       	sbci	r26, 0x00	; 0
     8d0:	e1 f7       	brne	.-8      	; 0x8ca <wifiAndBTModuleReset+0xa>
     8d2:	00 00       	nop
	
	_delay_ms(30);
	DDRD  |= 0x40; // output
     8d4:	56 9a       	sbi	0x0a, 6	; 10
     8d6:	8f ef       	ldi	r24, 0xFF	; 255
     8d8:	9f e3       	ldi	r25, 0x3F	; 63
     8da:	a2 e0       	ldi	r26, 0x02	; 2
     8dc:	81 50       	subi	r24, 0x01	; 1
     8de:	90 40       	sbci	r25, 0x00	; 0
     8e0:	a0 40       	sbci	r26, 0x00	; 0
     8e2:	e1 f7       	brne	.-8      	; 0x8dc <wifiAndBTModuleReset+0x1c>
     8e4:	00 c0       	rjmp	.+0      	; 0x8e6 <wifiAndBTModuleReset+0x26>
     8e6:	00 00       	nop
	_delay_ms(50);
	DDRD  &= 0xBF; // input
     8e8:	56 98       	cbi	0x0a, 6	; 10
	PORTD |= 0x40; // high
     8ea:	5e 9a       	sbi	0x0b, 6	; 11
     8ec:	8f ef       	ldi	r24, 0xFF	; 255
     8ee:	9f ef       	ldi	r25, 0xFF	; 255
     8f0:	a9 e5       	ldi	r26, 0x59	; 89
     8f2:	81 50       	subi	r24, 0x01	; 1
     8f4:	90 40       	sbci	r25, 0x00	; 0
     8f6:	a0 40       	sbci	r26, 0x00	; 0
     8f8:	e1 f7       	brne	.-8      	; 0x8f2 <wifiAndBTModuleReset+0x32>
     8fa:	00 c0       	rjmp	.+0      	; 0x8fc <wifiAndBTModuleReset+0x3c>
     8fc:	00 00       	nop
	
	_delay_ms(2000);
}
     8fe:	08 95       	ret

00000900 <wifiEnable>:

void wifiEnable(uint8_t bEnable)
{
	if ( bEnable)
     900:	88 23       	and	r24, r24
     902:	11 f0       	breq	.+4      	; 0x908 <wifiEnable+0x8>
	{
		PORTD |= 0x80;  // high output
     904:	5f 9a       	sbi	0x0b, 7	; 11
     906:	01 c0       	rjmp	.+2      	; 0x90a <wifiEnable+0xa>
	}
	else
	{
		PORTD &= 0x7F;  // low output
     908:	5f 98       	cbi	0x0b, 7	; 11
     90a:	8f ef       	ldi	r24, 0xFF	; 255
     90c:	9f ef       	ldi	r25, 0xFF	; 255
     90e:	a8 e0       	ldi	r26, 0x08	; 8
     910:	81 50       	subi	r24, 0x01	; 1
     912:	90 40       	sbci	r25, 0x00	; 0
     914:	a0 40       	sbci	r26, 0x00	; 0
     916:	e1 f7       	brne	.-8      	; 0x910 <wifiEnable+0x10>
     918:	00 c0       	rjmp	.+0      	; 0x91a <wifiEnable+0x1a>
     91a:	00 00       	nop
	}
	_delay_ms(200);
	
}
     91c:	08 95       	ret

0000091e <wifiInit>:
#define BAUD_RATE_WIFI 115200L
void wifiInit()
{
	// USART0 use
	// PE0 => RX, PE1 => TX
	DDRE  &= 0xFC;										// "0" input, "1" output
     91e:	8d b1       	in	r24, 0x0d	; 13
     920:	8c 7f       	andi	r24, 0xFC	; 252
     922:	8d b9       	out	0x0d, r24	; 13
	PORTE |= 0x00;
     924:	8e b1       	in	r24, 0x0e	; 14
     926:	8e b9       	out	0x0e, r24	; 14
	
	// Not Double mode, Not multi_communication
	UCSR0A = 0x00;								// x2 Mode
     928:	10 92 c0 00 	sts	0x00C0, r1
	UCSR0B = 0x98;
     92c:	88 e9       	ldi	r24, 0x98	; 152
     92e:	80 93 c1 00 	sts	0x00C1, r24
	UCSR0C = 0x06;
     932:	86 e0       	ldi	r24, 0x06	; 6
     934:	80 93 c2 00 	sts	0x00C2, r24
	//	UBRR0L = 16;								// 115200
	
	unsigned int baud=1;   									// ??? baud???? "1"?? ????
	baud = ((F_CPU+(BAUD_RATE_WIFI*8L))/(BAUD_RATE_WIFI*16L)-1);      // baud?? ???֬?????? ????
	
	UBRR0H=(unsigned char) (baud >>8);                            // baud ?????? ??????  H???????? ????
     938:	10 92 c5 00 	sts	0x00C5, r1
	UBRR0L=(unsigned char) (baud & 0xFF);                         // baud ?????? ??????  L???????  ????
     93c:	87 e0       	ldi	r24, 0x07	; 7
     93e:	80 93 c4 00 	sts	0x00C4, r24
	
	// wifi enable init
	// WIFI_EN  ( PD7 )
	DDRD  |= 0x80; // output										// "0" input, "1" output
     942:	57 9a       	sbi	0x0a, 7	; 10
	PORTD |= 0x80; // default high
     944:	5f 9a       	sbi	0x0b, 7	; 11
	
	wifiAndBTModuleReset();
     946:	0e 94 60 04 	call	0x8c0	; 0x8c0 <wifiAndBTModuleReset>
     94a:	8f ef       	ldi	r24, 0xFF	; 255
     94c:	9f e7       	ldi	r25, 0x7F	; 127
     94e:	a4 e0       	ldi	r26, 0x04	; 4
     950:	81 50       	subi	r24, 0x01	; 1
     952:	90 40       	sbci	r25, 0x00	; 0
     954:	a0 40       	sbci	r26, 0x00	; 0
     956:	e1 f7       	brne	.-8      	; 0x950 <wifiInit+0x32>
     958:	00 c0       	rjmp	.+0      	; 0x95a <wifiInit+0x3c>
     95a:	00 00       	nop
	_delay_ms(100);
	wifiEnable(1);
     95c:	81 e0       	ldi	r24, 0x01	; 1
     95e:	0e 94 80 04 	call	0x900	; 0x900 <wifiEnable>
	
	callbackFnc = NULL;
     962:	10 92 62 0b 	sts	0x0B62, r1
     966:	10 92 61 0b 	sts	0x0B61, r1
}
     96a:	08 95       	ret

0000096c <wifiprint>:

void wifiprint(const char *fmt,...)
{
     96c:	0f 93       	push	r16
     96e:	1f 93       	push	r17
     970:	cf 93       	push	r28
     972:	df 93       	push	r29
     974:	cd b7       	in	r28, 0x3d	; 61
     976:	de b7       	in	r29, 0x3e	; 62
     978:	c0 58       	subi	r28, 0x80	; 128
     97a:	d0 40       	sbci	r29, 0x00	; 0
     97c:	0f b6       	in	r0, 0x3f	; 63
     97e:	f8 94       	cli
     980:	de bf       	out	0x3e, r29	; 62
     982:	0f be       	out	0x3f, r0	; 63
     984:	cd bf       	out	0x3d, r28	; 61
     986:	fe 01       	movw	r30, r28
     988:	e8 57       	subi	r30, 0x78	; 120
     98a:	ff 4f       	sbci	r31, 0xFF	; 255
     98c:	61 91       	ld	r22, Z+
     98e:	71 91       	ld	r23, Z+
	va_list ap;
	char s[128];
	char *p_char = s;
	va_start(ap, fmt);
	vsprintf(s, fmt,ap);
     990:	ce 01       	movw	r24, r28
     992:	01 96       	adiw	r24, 0x01	; 1
     994:	4e 2f       	mov	r20, r30
     996:	5f 2f       	mov	r21, r31
     998:	0e 94 34 16 	call	0x2c68	; 0x2c68 <vsprintf>
	va_end(ap);
	while(0 != *p_char){
     99c:	89 81       	ldd	r24, Y+1	; 0x01
     99e:	88 23       	and	r24, r24
     9a0:	51 f0       	breq	.+20     	; 0x9b6 <wifiprint+0x4a>
     9a2:	8e 01       	movw	r16, r28
     9a4:	0e 5f       	subi	r16, 0xFE	; 254
     9a6:	1f 4f       	sbci	r17, 0xFF	; 255
		putCh0(*p_char++);
     9a8:	0e 94 32 04 	call	0x864	; 0x864 <putCh0>
	char s[128];
	char *p_char = s;
	va_start(ap, fmt);
	vsprintf(s, fmt,ap);
	va_end(ap);
	while(0 != *p_char){
     9ac:	f8 01       	movw	r30, r16
     9ae:	81 91       	ld	r24, Z+
     9b0:	8f 01       	movw	r16, r30
     9b2:	88 23       	and	r24, r24
     9b4:	c9 f7       	brne	.-14     	; 0x9a8 <wifiprint+0x3c>
		putCh0(*p_char++);
	}
}
     9b6:	c0 58       	subi	r28, 0x80	; 128
     9b8:	df 4f       	sbci	r29, 0xFF	; 255
     9ba:	0f b6       	in	r0, 0x3f	; 63
     9bc:	f8 94       	cli
     9be:	de bf       	out	0x3e, r29	; 62
     9c0:	0f be       	out	0x3f, r0	; 63
     9c2:	cd bf       	out	0x3d, r28	; 61
     9c4:	df 91       	pop	r29
     9c6:	cf 91       	pop	r28
     9c8:	1f 91       	pop	r17
     9ca:	0f 91       	pop	r16
     9cc:	08 95       	ret

000009ce <parsingIPDRxData>:
// 1 => under rxing
// 2 => parcing fail

// +IPD,<len>:<data>
uint8_t parsingIPDRxData(uint8_t* buff, int buffLen)
{
     9ce:	8f 92       	push	r8
     9d0:	9f 92       	push	r9
     9d2:	af 92       	push	r10
     9d4:	bf 92       	push	r11
     9d6:	cf 92       	push	r12
     9d8:	df 92       	push	r13
     9da:	ef 92       	push	r14
     9dc:	ff 92       	push	r15
     9de:	0f 93       	push	r16
     9e0:	1f 93       	push	r17
     9e2:	cf 93       	push	r28
     9e4:	df 93       	push	r29
     9e6:	cd b7       	in	r28, 0x3d	; 61
     9e8:	de b7       	in	r29, 0x3e	; 62
     9ea:	2a 97       	sbiw	r28, 0x0a	; 10
     9ec:	0f b6       	in	r0, 0x3f	; 63
     9ee:	f8 94       	cli
     9f0:	de bf       	out	0x3e, r29	; 62
     9f2:	0f be       	out	0x3f, r0	; 63
     9f4:	cd bf       	out	0x3d, r28	; 61
     9f6:	6c 01       	movw	r12, r24
     9f8:	7b 01       	movw	r14, r22
	int deliIndex = -1;
	int rxLen;
	char  strTemp[10];
	for( int i = 0; i < buffLen ; i++)
     9fa:	16 16       	cp	r1, r22
     9fc:	17 06       	cpc	r1, r23
     9fe:	0c f0       	brlt	.+2      	; 0xa02 <parsingIPDRxData+0x34>
     a00:	76 c0       	rjmp	.+236    	; 0xaee <parsingIPDRxData+0x120>
	{
		if (buff[i] == ':')
     a02:	fc 01       	movw	r30, r24
     a04:	80 81       	ld	r24, Z
     a06:	8a 33       	cpi	r24, 0x3A	; 58
     a08:	c1 f0       	breq	.+48     	; 0xa3a <parsingIPDRxData+0x6c>
// 0 => success
// 1 => under rxing
// 2 => parcing fail

// +IPD,<len>:<data>
uint8_t parsingIPDRxData(uint8_t* buff, int buffLen)
     a0a:	31 96       	adiw	r30, 0x01	; 1
{
	int deliIndex = -1;
	int rxLen;
	char  strTemp[10];
	for( int i = 0; i < buffLen ; i++)
     a0c:	80 e0       	ldi	r24, 0x00	; 0
     a0e:	90 e0       	ldi	r25, 0x00	; 0
     a10:	03 c0       	rjmp	.+6      	; 0xa18 <parsingIPDRxData+0x4a>
	{
		if (buff[i] == ':')
     a12:	21 91       	ld	r18, Z+
     a14:	2a 33       	cpi	r18, 0x3A	; 58
     a16:	31 f0       	breq	.+12     	; 0xa24 <parsingIPDRxData+0x56>
uint8_t parsingIPDRxData(uint8_t* buff, int buffLen)
{
	int deliIndex = -1;
	int rxLen;
	char  strTemp[10];
	for( int i = 0; i < buffLen ; i++)
     a18:	01 96       	adiw	r24, 0x01	; 1
     a1a:	8e 15       	cp	r24, r14
     a1c:	9f 05       	cpc	r25, r15
     a1e:	c9 f7       	brne	.-14     	; 0xa12 <parsingIPDRxData+0x44>
			break;
		}
	}
	if ( deliIndex == -1)
	{
		return 1;
     a20:	81 e0       	ldi	r24, 0x01	; 1
     a22:	6e c0       	rjmp	.+220    	; 0xb00 <parsingIPDRxData+0x132>
		{
			deliIndex = i;
			break;
		}
	}
	if ( deliIndex == -1)
     a24:	ff ef       	ldi	r31, 0xFF	; 255
     a26:	8f 3f       	cpi	r24, 0xFF	; 255
     a28:	9f 07       	cpc	r25, r31
     a2a:	09 f4       	brne	.+2      	; 0xa2e <parsingIPDRxData+0x60>
     a2c:	62 c0       	rjmp	.+196    	; 0xaf2 <parsingIPDRxData+0x124>
uint8_t parsingIPDRxData(uint8_t* buff, int buffLen)
{
	int deliIndex = -1;
	int rxLen;
	char  strTemp[10];
	for( int i = 0; i < buffLen ; i++)
     a2e:	5c 01       	movw	r10, r24
	}
	if ( deliIndex == -1)
	{
		return 1;
	}
	if (deliIndex > 11 )
     a30:	8c 30       	cpi	r24, 0x0C	; 12
     a32:	91 05       	cpc	r25, r1
     a34:	0c f0       	brlt	.+2      	; 0xa38 <parsingIPDRxData+0x6a>
     a36:	5f c0       	rjmp	.+190    	; 0xaf6 <parsingIPDRxData+0x128>
     a38:	02 c0       	rjmp	.+4      	; 0xa3e <parsingIPDRxData+0x70>
uint8_t parsingIPDRxData(uint8_t* buff, int buffLen)
{
	int deliIndex = -1;
	int rxLen;
	char  strTemp[10];
	for( int i = 0; i < buffLen ; i++)
     a3a:	aa 24       	eor	r10, r10
     a3c:	bb 24       	eor	r11, r11
	if (deliIndex > 11 )
	{
		
		return 2;
	}
	memcpy(strTemp,buff+5, deliIndex - 5 );
     a3e:	85 01       	movw	r16, r10
     a40:	05 50       	subi	r16, 0x05	; 5
     a42:	10 40       	sbci	r17, 0x00	; 0
     a44:	b6 01       	movw	r22, r12
     a46:	6b 5f       	subi	r22, 0xFB	; 251
     a48:	7f 4f       	sbci	r23, 0xFF	; 255
     a4a:	ce 01       	movw	r24, r28
     a4c:	01 96       	adiw	r24, 0x01	; 1
     a4e:	40 2f       	mov	r20, r16
     a50:	51 2f       	mov	r21, r17
     a52:	0e 94 15 16 	call	0x2c2a	; 0x2c2a <memcpy>
	strTemp[deliIndex - 5] = NULL;
     a56:	e1 e0       	ldi	r30, 0x01	; 1
     a58:	f0 e0       	ldi	r31, 0x00	; 0
     a5a:	ec 0f       	add	r30, r28
     a5c:	fd 1f       	adc	r31, r29
     a5e:	e0 0f       	add	r30, r16
     a60:	f1 1f       	adc	r31, r17
     a62:	10 82       	st	Z, r1
	
	rxLen = atoi(strTemp);
     a64:	ce 01       	movw	r24, r28
     a66:	01 96       	adiw	r24, 0x01	; 1
     a68:	0e 94 f7 15 	call	0x2bee	; 0x2bee <atoi>
     a6c:	ac 01       	movw	r20, r24
	
	if ( rxLen == 0)
     a6e:	00 97       	sbiw	r24, 0x00	; 0
     a70:	09 f4       	brne	.+2      	; 0xa74 <parsingIPDRxData+0xa6>
     a72:	43 c0       	rjmp	.+134    	; 0xafa <parsingIPDRxData+0x12c>
	{
		return 2;
	}
	
	if ( (buffLen -deliIndex-1) < rxLen )
     a74:	ea 18       	sub	r14, r10
     a76:	fb 08       	sbc	r15, r11
     a78:	87 01       	movw	r16, r14
     a7a:	01 50       	subi	r16, 0x01	; 1
     a7c:	10 40       	sbci	r17, 0x00	; 0
     a7e:	08 17       	cp	r16, r24
     a80:	19 07       	cpc	r17, r25
     a82:	34 f5       	brge	.+76     	; 0xad0 <parsingIPDRxData+0x102>
	{
		if ( (buffLen-deliIndex+1) == rxLen ) // message  \r\n   
     a84:	c7 01       	movw	r24, r14
     a86:	01 96       	adiw	r24, 0x01	; 1
     a88:	84 17       	cp	r24, r20
     a8a:	95 07       	cpc	r25, r21
     a8c:	c1 f5       	brne	.+112    	; 0xafe <parsingIPDRxData+0x130>
		{
			g_wifiIPDRxDataLen = rxLen;	
     a8e:	90 93 0f 05 	sts	0x050F, r25
     a92:	80 93 0e 05 	sts	0x050E, r24
			memcpy(g_wifiIPDRxData,buff+deliIndex+1,rxLen-2 );
     a96:	0f 2e       	mov	r0, r31
     a98:	f1 e6       	ldi	r31, 0x61	; 97
     a9a:	8f 2e       	mov	r8, r31
     a9c:	f5 e0       	ldi	r31, 0x05	; 5
     a9e:	9f 2e       	mov	r9, r31
     aa0:	f0 2d       	mov	r31, r0
     aa2:	b5 01       	movw	r22, r10
     aa4:	6f 5f       	subi	r22, 0xFF	; 255
     aa6:	7f 4f       	sbci	r23, 0xFF	; 255
     aa8:	6c 0d       	add	r22, r12
     aaa:	7d 1d       	adc	r23, r13
     aac:	88 2d       	mov	r24, r8
     aae:	99 2d       	mov	r25, r9
     ab0:	40 2f       	mov	r20, r16
     ab2:	51 2f       	mov	r21, r17
     ab4:	0e 94 15 16 	call	0x2c2a	; 0x2c2a <memcpy>
			g_wifiIPDRxData[rxLen-2] = 0x0D;
     ab8:	f4 01       	movw	r30, r8
     aba:	e0 0f       	add	r30, r16
     abc:	f1 1f       	adc	r31, r17
     abe:	8d e0       	ldi	r24, 0x0D	; 13
     ac0:	80 83       	st	Z, r24
			g_wifiIPDRxData[rxLen-1] = 0x0A;
     ac2:	f4 01       	movw	r30, r8
     ac4:	ee 0d       	add	r30, r14
     ac6:	ff 1d       	adc	r31, r15
     ac8:	8a e0       	ldi	r24, 0x0A	; 10
     aca:	80 83       	st	Z, r24
			return 0;
     acc:	80 e0       	ldi	r24, 0x00	; 0
     ace:	18 c0       	rjmp	.+48     	; 0xb00 <parsingIPDRxData+0x132>
		}
		return 1;
	}
	g_wifiIPDRxDataLen = rxLen;
     ad0:	90 93 0f 05 	sts	0x050F, r25
     ad4:	80 93 0e 05 	sts	0x050E, r24
	memcpy(g_wifiIPDRxData,buff+deliIndex+1,rxLen );
     ad8:	81 e6       	ldi	r24, 0x61	; 97
     ada:	95 e0       	ldi	r25, 0x05	; 5
     adc:	b5 01       	movw	r22, r10
     ade:	6f 5f       	subi	r22, 0xFF	; 255
     ae0:	7f 4f       	sbci	r23, 0xFF	; 255
     ae2:	6c 0d       	add	r22, r12
     ae4:	7d 1d       	adc	r23, r13
     ae6:	0e 94 15 16 	call	0x2c2a	; 0x2c2a <memcpy>
	return 0;
     aea:	80 e0       	ldi	r24, 0x00	; 0
     aec:	09 c0       	rjmp	.+18     	; 0xb00 <parsingIPDRxData+0x132>
			break;
		}
	}
	if ( deliIndex == -1)
	{
		return 1;
     aee:	81 e0       	ldi	r24, 0x01	; 1
     af0:	07 c0       	rjmp	.+14     	; 0xb00 <parsingIPDRxData+0x132>
     af2:	81 e0       	ldi	r24, 0x01	; 1
     af4:	05 c0       	rjmp	.+10     	; 0xb00 <parsingIPDRxData+0x132>
	}
	if (deliIndex > 11 )
	{
		
		return 2;
     af6:	82 e0       	ldi	r24, 0x02	; 2
     af8:	03 c0       	rjmp	.+6      	; 0xb00 <parsingIPDRxData+0x132>
	
	rxLen = atoi(strTemp);
	
	if ( rxLen == 0)
	{
		return 2;
     afa:	82 e0       	ldi	r24, 0x02	; 2
     afc:	01 c0       	rjmp	.+2      	; 0xb00 <parsingIPDRxData+0x132>
			memcpy(g_wifiIPDRxData,buff+deliIndex+1,rxLen-2 );
			g_wifiIPDRxData[rxLen-2] = 0x0D;
			g_wifiIPDRxData[rxLen-1] = 0x0A;
			return 0;
		}
		return 1;
     afe:	81 e0       	ldi	r24, 0x01	; 1
	}
	g_wifiIPDRxDataLen = rxLen;
	memcpy(g_wifiIPDRxData,buff+deliIndex+1,rxLen );
	return 0;
}
     b00:	2a 96       	adiw	r28, 0x0a	; 10
     b02:	0f b6       	in	r0, 0x3f	; 63
     b04:	f8 94       	cli
     b06:	de bf       	out	0x3e, r29	; 62
     b08:	0f be       	out	0x3f, r0	; 63
     b0a:	cd bf       	out	0x3d, r28	; 61
     b0c:	df 91       	pop	r29
     b0e:	cf 91       	pop	r28
     b10:	1f 91       	pop	r17
     b12:	0f 91       	pop	r16
     b14:	ff 90       	pop	r15
     b16:	ef 90       	pop	r14
     b18:	df 90       	pop	r13
     b1a:	cf 90       	pop	r12
     b1c:	bf 90       	pop	r11
     b1e:	af 90       	pop	r10
     b20:	9f 90       	pop	r9
     b22:	8f 90       	pop	r8
     b24:	08 95       	ret

00000b26 <parsingMsg>:
#define  MSG_SEND_READY	8
#define  MSG_BYSY		9
#define  MSG_UNDER_MSG  10

uint8_t parsingMsg(uint8_t* buff, int buffLen)
{
     b26:	0f 93       	push	r16
     b28:	1f 93       	push	r17
     b2a:	cf 93       	push	r28
     b2c:	df 93       	push	r29
     b2e:	ec 01       	movw	r28, r24
     b30:	8b 01       	movw	r16, r22
	//putCh2(g_wifiRxData[i]);
	debugprint("[%02X]",buff[i]);
}
debugprint("\r\n");
#endif	
	if (!strncmp((char*)buff,"OK",2))
     b32:	65 eb       	ldi	r22, 0xB5	; 181
     b34:	73 e0       	ldi	r23, 0x03	; 3
     b36:	42 e0       	ldi	r20, 0x02	; 2
     b38:	50 e0       	ldi	r21, 0x00	; 0
     b3a:	0e 94 1e 16 	call	0x2c3c	; 0x2c3c <strncmp>
     b3e:	28 2f       	mov	r18, r24
     b40:	39 2f       	mov	r19, r25
     b42:	21 15       	cp	r18, r1
     b44:	31 05       	cpc	r19, r1
     b46:	09 f4       	brne	.+2      	; 0xb4a <parsingMsg+0x24>
     b48:	6a c0       	rjmp	.+212    	; 0xc1e <parsingMsg+0xf8>
	{
		return MSG_OK;
	}
	else if (buff[0] == '>')
     b4a:	88 81       	ld	r24, Y
     b4c:	8e 33       	cpi	r24, 0x3E	; 62
     b4e:	09 f4       	brne	.+2      	; 0xb52 <parsingMsg+0x2c>
     b50:	68 c0       	rjmp	.+208    	; 0xc22 <parsingMsg+0xfc>
	{
		return MSG_SEND_READY;
	}
	else if ((buffLen >= 7) && !strncmp(buff,"SEND OK",7)  )
     b52:	07 30       	cpi	r16, 0x07	; 7
     b54:	11 05       	cpc	r17, r1
     b56:	6c f0       	brlt	.+26     	; 0xb72 <parsingMsg+0x4c>
     b58:	ce 01       	movw	r24, r28
     b5a:	68 eb       	ldi	r22, 0xB8	; 184
     b5c:	73 e0       	ldi	r23, 0x03	; 3
     b5e:	47 e0       	ldi	r20, 0x07	; 7
     b60:	50 e0       	ldi	r21, 0x00	; 0
     b62:	0e 94 1e 16 	call	0x2c3c	; 0x2c3c <strncmp>
     b66:	28 2f       	mov	r18, r24
     b68:	39 2f       	mov	r19, r25
     b6a:	21 15       	cp	r18, r1
     b6c:	31 05       	cpc	r19, r1
     b6e:	09 f4       	brne	.+2      	; 0xb72 <parsingMsg+0x4c>
     b70:	5a c0       	rjmp	.+180    	; 0xc26 <parsingMsg+0x100>
	{
		return MSG_SEND_OK;
	}
	else if ((buffLen >=4) &&  !strncmp(buff,"+IPD,",4) )
     b72:	04 30       	cpi	r16, 0x04	; 4
     b74:	11 05       	cpc	r17, r1
     b76:	c4 f0       	brlt	.+48     	; 0xba8 <parsingMsg+0x82>
     b78:	ce 01       	movw	r24, r28
     b7a:	60 ec       	ldi	r22, 0xC0	; 192
     b7c:	73 e0       	ldi	r23, 0x03	; 3
     b7e:	44 e0       	ldi	r20, 0x04	; 4
     b80:	50 e0       	ldi	r21, 0x00	; 0
     b82:	0e 94 1e 16 	call	0x2c3c	; 0x2c3c <strncmp>
     b86:	28 2f       	mov	r18, r24
     b88:	39 2f       	mov	r19, r25
     b8a:	21 15       	cp	r18, r1
     b8c:	31 05       	cpc	r19, r1
     b8e:	61 f4       	brne	.+24     	; 0xba8 <parsingMsg+0x82>
	{
		uint8_t temp;
		temp = parsingIPDRxData(buff, buffLen);
     b90:	ce 01       	movw	r24, r28
     b92:	b8 01       	movw	r22, r16
     b94:	0e 94 e7 04 	call	0x9ce	; 0x9ce <parsingIPDRxData>
		if ( temp == 0)
     b98:	88 23       	and	r24, r24
     b9a:	09 f4       	brne	.+2      	; 0xb9e <parsingMsg+0x78>
     b9c:	46 c0       	rjmp	.+140    	; 0xc2a <parsingMsg+0x104>
			return MSG_RX;
		else if (temp == 1)
     b9e:	81 30       	cpi	r24, 0x01	; 1
     ba0:	09 f0       	breq	.+2      	; 0xba4 <parsingMsg+0x7e>
     ba2:	45 c0       	rjmp	.+138    	; 0xc2e <parsingMsg+0x108>
			return MSG_RXING;
     ba4:	84 e0       	ldi	r24, 0x04	; 4
     ba6:	4e c0       	rjmp	.+156    	; 0xc44 <parsingMsg+0x11e>
		
		return MSG_UNDEFINED;	// fail
	}
	else if ((buffLen >= 5) && !strncmp(buff,"ERROR",5)  )
     ba8:	05 30       	cpi	r16, 0x05	; 5
     baa:	11 05       	cpc	r17, r1
     bac:	64 f0       	brlt	.+24     	; 0xbc6 <parsingMsg+0xa0>
     bae:	ce 01       	movw	r24, r28
     bb0:	66 ec       	ldi	r22, 0xC6	; 198
     bb2:	73 e0       	ldi	r23, 0x03	; 3
     bb4:	45 e0       	ldi	r20, 0x05	; 5
     bb6:	50 e0       	ldi	r21, 0x00	; 0
     bb8:	0e 94 1e 16 	call	0x2c3c	; 0x2c3c <strncmp>
     bbc:	28 2f       	mov	r18, r24
     bbe:	39 2f       	mov	r19, r25
     bc0:	21 15       	cp	r18, r1
     bc2:	31 05       	cpc	r19, r1
     bc4:	b1 f1       	breq	.+108    	; 0xc32 <parsingMsg+0x10c>
	{
		return MSG_ERROR;
	}
	else if ((buffLen >= 4) && !strncmp(buff,"FAIL",5)  )
     bc6:	04 30       	cpi	r16, 0x04	; 4
     bc8:	11 05       	cpc	r17, r1
     bca:	64 f0       	brlt	.+24     	; 0xbe4 <parsingMsg+0xbe>
     bcc:	ce 01       	movw	r24, r28
     bce:	6c ec       	ldi	r22, 0xCC	; 204
     bd0:	73 e0       	ldi	r23, 0x03	; 3
     bd2:	45 e0       	ldi	r20, 0x05	; 5
     bd4:	50 e0       	ldi	r21, 0x00	; 0
     bd6:	0e 94 1e 16 	call	0x2c3c	; 0x2c3c <strncmp>
     bda:	28 2f       	mov	r18, r24
     bdc:	39 2f       	mov	r19, r25
     bde:	21 15       	cp	r18, r1
     be0:	31 05       	cpc	r19, r1
     be2:	49 f1       	breq	.+82     	; 0xc36 <parsingMsg+0x110>
	{
		return MSG_FAIL;
	}
	else if ((buffLen >= 7) && !strncmp(buff,"ALREADY",7)  )
     be4:	07 30       	cpi	r16, 0x07	; 7
     be6:	11 05       	cpc	r17, r1
     be8:	44 f1       	brlt	.+80     	; 0xc3a <parsingMsg+0x114>
     bea:	ce 01       	movw	r24, r28
     bec:	61 ed       	ldi	r22, 0xD1	; 209
     bee:	73 e0       	ldi	r23, 0x03	; 3
     bf0:	47 e0       	ldi	r20, 0x07	; 7
     bf2:	50 e0       	ldi	r21, 0x00	; 0
     bf4:	0e 94 1e 16 	call	0x2c3c	; 0x2c3c <strncmp>
     bf8:	28 2f       	mov	r18, r24
     bfa:	39 2f       	mov	r19, r25
     bfc:	21 15       	cp	r18, r1
     bfe:	31 05       	cpc	r19, r1
     c00:	f1 f0       	breq	.+60     	; 0xc3e <parsingMsg+0x118>
	{
		return MSG_ALREAD;
	}
	else if ((buffLen>= 7) && !strncmp(buff,"busy...",7) )
     c02:	ce 01       	movw	r24, r28
     c04:	69 ed       	ldi	r22, 0xD9	; 217
     c06:	73 e0       	ldi	r23, 0x03	; 3
     c08:	47 e0       	ldi	r20, 0x07	; 7
     c0a:	50 e0       	ldi	r21, 0x00	; 0
     c0c:	0e 94 1e 16 	call	0x2c3c	; 0x2c3c <strncmp>
     c10:	28 2f       	mov	r18, r24
     c12:	39 2f       	mov	r19, r25
     c14:	21 15       	cp	r18, r1
     c16:	31 05       	cpc	r19, r1
     c18:	a1 f4       	brne	.+40     	; 0xc42 <parsingMsg+0x11c>
	{
		return MSG_BYSY;
     c1a:	89 e0       	ldi	r24, 0x09	; 9
     c1c:	13 c0       	rjmp	.+38     	; 0xc44 <parsingMsg+0x11e>
}
debugprint("\r\n");
#endif	
	if (!strncmp((char*)buff,"OK",2))
	{
		return MSG_OK;
     c1e:	82 e0       	ldi	r24, 0x02	; 2
     c20:	11 c0       	rjmp	.+34     	; 0xc44 <parsingMsg+0x11e>
	}
	else if (buff[0] == '>')
	{
		return MSG_SEND_READY;
     c22:	88 e0       	ldi	r24, 0x08	; 8
     c24:	0f c0       	rjmp	.+30     	; 0xc44 <parsingMsg+0x11e>
	}
	else if ((buffLen >= 7) && !strncmp(buff,"SEND OK",7)  )
	{
		return MSG_SEND_OK;
     c26:	81 e0       	ldi	r24, 0x01	; 1
     c28:	0d c0       	rjmp	.+26     	; 0xc44 <parsingMsg+0x11e>
	else if ((buffLen >=4) &&  !strncmp(buff,"+IPD,",4) )
	{
		uint8_t temp;
		temp = parsingIPDRxData(buff, buffLen);
		if ( temp == 0)
			return MSG_RX;
     c2a:	83 e0       	ldi	r24, 0x03	; 3
     c2c:	0b c0       	rjmp	.+22     	; 0xc44 <parsingMsg+0x11e>
		else if (temp == 1)
			return MSG_RXING;
		
		return MSG_UNDEFINED;	// fail
     c2e:	80 e0       	ldi	r24, 0x00	; 0
     c30:	09 c0       	rjmp	.+18     	; 0xc44 <parsingMsg+0x11e>
	}
	else if ((buffLen >= 5) && !strncmp(buff,"ERROR",5)  )
	{
		return MSG_ERROR;
     c32:	85 e0       	ldi	r24, 0x05	; 5
     c34:	07 c0       	rjmp	.+14     	; 0xc44 <parsingMsg+0x11e>
	}
	else if ((buffLen >= 4) && !strncmp(buff,"FAIL",5)  )
	{
		return MSG_FAIL;
     c36:	86 e0       	ldi	r24, 0x06	; 6
     c38:	05 c0       	rjmp	.+10     	; 0xc44 <parsingMsg+0x11e>
	else if (buffLen>= 7)
	{
		return MSG_UNDEFINED;
	}
	
	return MSG_UNDER_MSG;
     c3a:	8a e0       	ldi	r24, 0x0A	; 10
     c3c:	03 c0       	rjmp	.+6      	; 0xc44 <parsingMsg+0x11e>
	{
		return MSG_FAIL;
	}
	else if ((buffLen >= 7) && !strncmp(buff,"ALREADY",7)  )
	{
		return MSG_ALREAD;
     c3e:	87 e0       	ldi	r24, 0x07	; 7
     c40:	01 c0       	rjmp	.+2      	; 0xc44 <parsingMsg+0x11e>
	{
		return MSG_BYSY;
	}
	else if (buffLen>= 7)
	{
		return MSG_UNDEFINED;
     c42:	80 e0       	ldi	r24, 0x00	; 0
	}
	
	return MSG_UNDER_MSG;
}
     c44:	df 91       	pop	r29
     c46:	cf 91       	pop	r28
     c48:	1f 91       	pop	r17
     c4a:	0f 91       	pop	r16
     c4c:	08 95       	ret

00000c4e <rxDataProcess>:

uint8_t rxDataProcess(uint8_t* msgBuff, uint8_t msgBuffLen)
{
     c4e:	2f 92       	push	r2
     c50:	3f 92       	push	r3
     c52:	4f 92       	push	r4
     c54:	5f 92       	push	r5
     c56:	6f 92       	push	r6
     c58:	7f 92       	push	r7
     c5a:	8f 92       	push	r8
     c5c:	9f 92       	push	r9
     c5e:	af 92       	push	r10
     c60:	bf 92       	push	r11
     c62:	cf 92       	push	r12
     c64:	df 92       	push	r13
     c66:	ef 92       	push	r14
     c68:	ff 92       	push	r15
     c6a:	0f 93       	push	r16
     c6c:	1f 93       	push	r17
     c6e:	cf 93       	push	r28
     c70:	df 93       	push	r29
     c72:	cd b7       	in	r28, 0x3d	; 61
     c74:	de b7       	in	r29, 0x3e	; 62
     c76:	c2 50       	subi	r28, 0x02	; 2
     c78:	d2 40       	sbci	r29, 0x02	; 2
     c7a:	0f b6       	in	r0, 0x3f	; 63
     c7c:	f8 94       	cli
     c7e:	de bf       	out	0x3e, r29	; 62
     c80:	0f be       	out	0x3f, r0	; 63
     c82:	cd bf       	out	0x3d, r28	; 61
     c84:	3c 01       	movw	r6, r24
     c86:	c6 2e       	mov	r12, r22
	int lineFeedIndex;
	
	uint8_t syncDetected;
	uint8_t temp;
	uint8_t msgBuffIndex = 0;
	if (g_wifiRxCurrentIndex == 0 )
     c88:	80 91 10 05 	lds	r24, 0x0510
     c8c:	88 23       	and	r24, r24
     c8e:	09 f4       	brne	.+2      	; 0xc92 <rxDataProcess+0x44>
     c90:	0b c1       	rjmp	.+534    	; 0xea8 <rxDataProcess+0x25a>
		return 0;
	
	if ((g_rxDataLen + g_wifiRxCurrentIndex) >= MAX_WIFI_RX_DATA )
     c92:	20 91 10 05 	lds	r18, 0x0510
     c96:	80 91 0b 05 	lds	r24, 0x050B
     c9a:	90 91 0c 05 	lds	r25, 0x050C
     c9e:	82 0f       	add	r24, r18
     ca0:	91 1d       	adc	r25, r1
     ca2:	22 e0       	ldi	r18, 0x02	; 2
     ca4:	80 30       	cpi	r24, 0x00	; 0
     ca6:	92 07       	cpc	r25, r18
     ca8:	44 f0       	brlt	.+16     	; 0xcba <rxDataProcess+0x6c>
	{
		g_rxDataLen = 0;
     caa:	10 92 0c 05 	sts	0x050C, r1
     cae:	10 92 0b 05 	sts	0x050B, r1
		g_underRxDataFlag = 0;
     cb2:	10 92 0d 05 	sts	0x050D, r1
		return msgBuffIndex;
     cb6:	dd 24       	eor	r13, r13
     cb8:	f8 c0       	rjmp	.+496    	; 0xeaa <rxDataProcess+0x25c>
	}
	memcpy(g_rxDataBuff,g_wifiRxData,g_wifiRxCurrentIndex);
     cba:	40 91 10 05 	lds	r20, 0x0510
     cbe:	81 e6       	ldi	r24, 0x61	; 97
     cc0:	99 e0       	ldi	r25, 0x09	; 9
     cc2:	61 e6       	ldi	r22, 0x61	; 97
     cc4:	77 e0       	ldi	r23, 0x07	; 7
     cc6:	50 e0       	ldi	r21, 0x00	; 0
     cc8:	0e 94 15 16 	call	0x2c2a	; 0x2c2a <memcpy>
	g_rxDataLen += (int)g_wifiRxCurrentIndex;
     ccc:	20 91 10 05 	lds	r18, 0x0510
     cd0:	80 91 0b 05 	lds	r24, 0x050B
     cd4:	90 91 0c 05 	lds	r25, 0x050C
     cd8:	82 0f       	add	r24, r18
     cda:	91 1d       	adc	r25, r1
     cdc:	90 93 0c 05 	sts	0x050C, r25
     ce0:	80 93 0b 05 	sts	0x050B, r24
	g_wifiRxCurrentIndex = 0;
     ce4:	10 92 10 05 	sts	0x0510, r1
	int  carriageReturnIndex;
	int lineFeedIndex;
	
	uint8_t syncDetected;
	uint8_t temp;
	uint8_t msgBuffIndex = 0;
     ce8:	dd 24       	eor	r13, r13
	while(1)
	{
		carriageReturnIndex = -1;
		lineFeedIndex = -1;
		
		for ( int i = 0; i < g_rxDataLen ; i++ )
     cea:	aa 24       	eor	r10, r10
     cec:	bb 24       	eor	r11, r11
	}
#endif

	while(1)
	{
		carriageReturnIndex = -1;
     cee:	88 24       	eor	r8, r8
     cf0:	8a 94       	dec	r8
     cf2:	98 2c       	mov	r9, r8
					break;
				}
			}
			else
			{
				if ( g_rxDataBuff[i] ==  CARRIAGE_RETURN )
     cf4:	0f 2e       	mov	r0, r31
     cf6:	f1 e6       	ldi	r31, 0x61	; 97
     cf8:	ef 2e       	mov	r14, r31
     cfa:	f9 e0       	ldi	r31, 0x09	; 9
     cfc:	ff 2e       	mov	r15, r31
     cfe:	f0 2d       	mov	r31, r0
     d00:	cf 5f       	subi	r28, 0xFF	; 255
     d02:	dd 4f       	sbci	r29, 0xFD	; 253
     d04:	e8 82       	st	Y, r14
     d06:	c1 50       	subi	r28, 0x01	; 1
     d08:	d2 40       	sbci	r29, 0x02	; 2
     d0a:	ce 5f       	subi	r28, 0xFE	; 254
     d0c:	dd 4f       	sbci	r29, 0xFD	; 253
     d0e:	f8 82       	st	Y, r15
     d10:	c2 50       	subi	r28, 0x02	; 2
     d12:	d2 40       	sbci	r29, 0x02	; 2
				if ( (g_rxDataBuff[i] ==  LINE_FEED) && ((carriageReturnIndex+1) == i ) )
				{
					lineFeedIndex = i;
					if ( lineFeedIndex == 1)//
					{
						memcpy(strTemp, g_rxDataBuff+lineFeedIndex+1, g_rxDataLen - lineFeedIndex -1);
     d14:	0f 2e       	mov	r0, r31
     d16:	f3 e6       	ldi	r31, 0x63	; 99
     d18:	4f 2e       	mov	r4, r31
     d1a:	f9 e0       	ldi	r31, 0x09	; 9
     d1c:	5f 2e       	mov	r5, r31
     d1e:	f0 2d       	mov	r31, r0
						memcpy(g_rxDataBuff , strTemp, g_rxDataLen - lineFeedIndex -1);
     d20:	0f 2e       	mov	r0, r31
     d22:	fe ef       	ldi	r31, 0xFE	; 254
     d24:	2f 2e       	mov	r2, r31
     d26:	ff ef       	ldi	r31, 0xFF	; 255
     d28:	3f 2e       	mov	r3, r31
     d2a:	f0 2d       	mov	r31, r0
     d2c:	24 0c       	add	r2, r4
     d2e:	35 1c       	adc	r3, r5
	while(1)
	{
		carriageReturnIndex = -1;
		lineFeedIndex = -1;
		
		for ( int i = 0; i < g_rxDataLen ; i++ )
     d30:	80 91 0b 05 	lds	r24, 0x050B
     d34:	90 91 0c 05 	lds	r25, 0x050C
     d38:	18 16       	cp	r1, r24
     d3a:	19 06       	cpc	r1, r25
     d3c:	0c f0       	brlt	.+2      	; 0xd40 <rxDataProcess+0xf2>
     d3e:	9b c0       	rjmp	.+310    	; 0xe76 <rxDataProcess+0x228>
     d40:	85 01       	movw	r16, r10
	}
#endif

	while(1)
	{
		carriageReturnIndex = -1;
     d42:	b4 01       	movw	r22, r8
		lineFeedIndex = -1;
		
		for ( int i = 0; i < g_rxDataLen ; i++ )
		{
			// check carriage return and line feed
			if ( carriageReturnIndex !=  -1)
     d44:	8f ef       	ldi	r24, 0xFF	; 255
     d46:	6f 3f       	cpi	r22, 0xFF	; 255
     d48:	78 07       	cpc	r23, r24
     d4a:	09 f4       	brne	.+2      	; 0xd4e <rxDataProcess+0x100>
     d4c:	83 c0       	rjmp	.+262    	; 0xe54 <rxDataProcess+0x206>
			{
				if ( (g_rxDataBuff[i] ==  LINE_FEED) && ((carriageReturnIndex+1) == i ) )
     d4e:	f7 01       	movw	r30, r14
     d50:	e0 0f       	add	r30, r16
     d52:	f1 1f       	adc	r31, r17
     d54:	80 81       	ld	r24, Z
     d56:	8a 30       	cpi	r24, 0x0A	; 10
     d58:	09 f0       	breq	.+2      	; 0xd5c <rxDataProcess+0x10e>
     d5a:	83 c0       	rjmp	.+262    	; 0xe62 <rxDataProcess+0x214>
     d5c:	cb 01       	movw	r24, r22
     d5e:	01 96       	adiw	r24, 0x01	; 1
     d60:	80 17       	cp	r24, r16
     d62:	91 07       	cpc	r25, r17
     d64:	09 f0       	breq	.+2      	; 0xd68 <rxDataProcess+0x11a>
     d66:	7d c0       	rjmp	.+250    	; 0xe62 <rxDataProcess+0x214>
				{
					lineFeedIndex = i;
					if ( lineFeedIndex == 1)//
     d68:	81 30       	cpi	r24, 0x01	; 1
     d6a:	91 05       	cpc	r25, r1
     d6c:	19 f5       	brne	.+70     	; 0xdb4 <rxDataProcess+0x166>
					{
						memcpy(strTemp, g_rxDataBuff+lineFeedIndex+1, g_rxDataLen - lineFeedIndex -1);
     d6e:	40 91 0b 05 	lds	r20, 0x050B
     d72:	50 91 0c 05 	lds	r21, 0x050C
     d76:	42 50       	subi	r20, 0x02	; 2
     d78:	50 40       	sbci	r21, 0x00	; 0
     d7a:	ce 01       	movw	r24, r28
     d7c:	01 96       	adiw	r24, 0x01	; 1
     d7e:	64 2d       	mov	r22, r4
     d80:	75 2d       	mov	r23, r5
     d82:	0e 94 15 16 	call	0x2c2a	; 0x2c2a <memcpy>
						memcpy(g_rxDataBuff , strTemp, g_rxDataLen - lineFeedIndex -1);
     d86:	40 91 0b 05 	lds	r20, 0x050B
     d8a:	50 91 0c 05 	lds	r21, 0x050C
     d8e:	42 50       	subi	r20, 0x02	; 2
     d90:	50 40       	sbci	r21, 0x00	; 0
     d92:	82 2d       	mov	r24, r2
     d94:	93 2d       	mov	r25, r3
     d96:	be 01       	movw	r22, r28
     d98:	6f 5f       	subi	r22, 0xFF	; 255
     d9a:	7f 4f       	sbci	r23, 0xFF	; 255
     d9c:	0e 94 15 16 	call	0x2c2a	; 0x2c2a <memcpy>
						g_rxDataLen -= (lineFeedIndex + 1);
     da0:	80 91 0b 05 	lds	r24, 0x050B
     da4:	90 91 0c 05 	lds	r25, 0x050C
     da8:	02 97       	sbiw	r24, 0x02	; 2
     daa:	90 93 0c 05 	sts	0x050C, r25
     dae:	80 93 0b 05 	sts	0x050B, r24
     db2:	be cf       	rjmp	.-132    	; 0xd30 <rxDataProcess+0xe2>
						break;
					}
					temp = parsingMsg(g_rxDataBuff, carriageReturnIndex);
     db4:	cf 5f       	subi	r28, 0xFF	; 255
     db6:	dd 4f       	sbci	r29, 0xFD	; 253
     db8:	88 81       	ld	r24, Y
     dba:	c1 50       	subi	r28, 0x01	; 1
     dbc:	d2 40       	sbci	r29, 0x02	; 2
     dbe:	ce 5f       	subi	r28, 0xFE	; 254
     dc0:	dd 4f       	sbci	r29, 0xFD	; 253
     dc2:	98 81       	ld	r25, Y
     dc4:	c2 50       	subi	r28, 0x02	; 2
     dc6:	d2 40       	sbci	r29, 0x02	; 2
     dc8:	0e 94 93 05 	call	0xb26	; 0xb26 <parsingMsg>
					//					debugprint("M1:%d\r\n",temp);
					if ( msgBuffIndex <  msgBuffLen )
     dcc:	dc 14       	cp	r13, r12
     dce:	28 f4       	brcc	.+10     	; 0xdda <rxDataProcess+0x18c>
					{
						msgBuff[msgBuffIndex] = temp;
     dd0:	f3 01       	movw	r30, r6
     dd2:	ed 0d       	add	r30, r13
     dd4:	f1 1d       	adc	r31, r1
     dd6:	80 83       	st	Z, r24
						msgBuffIndex++;
     dd8:	d3 94       	inc	r13
						
					}
					if ( (lineFeedIndex+1) == g_rxDataLen ) //when  line feed is data end
     dda:	20 91 0b 05 	lds	r18, 0x050B
     dde:	30 91 0c 05 	lds	r19, 0x050C
     de2:	c8 01       	movw	r24, r16
     de4:	01 96       	adiw	r24, 0x01	; 1
     de6:	82 17       	cp	r24, r18
     de8:	93 07       	cpc	r25, r19
     dea:	19 f4       	brne	.+6      	; 0xdf2 <rxDataProcess+0x1a4>
					{
						g_underRxDataFlag = 0;
     dec:	10 92 0d 05 	sts	0x050D, r1
						return msgBuffIndex;
     df0:	5c c0       	rjmp	.+184    	; 0xeaa <rxDataProcess+0x25c>
					}
					memcpy(strTemp, g_rxDataBuff+lineFeedIndex+1, g_rxDataLen - lineFeedIndex -1);
     df2:	b8 01       	movw	r22, r16
     df4:	6e 59       	subi	r22, 0x9E	; 158
     df6:	76 4f       	sbci	r23, 0xF6	; 246
     df8:	40 91 0b 05 	lds	r20, 0x050B
     dfc:	50 91 0c 05 	lds	r21, 0x050C
     e00:	40 1b       	sub	r20, r16
     e02:	51 0b       	sbc	r21, r17
     e04:	41 50       	subi	r20, 0x01	; 1
     e06:	50 40       	sbci	r21, 0x00	; 0
     e08:	ce 01       	movw	r24, r28
     e0a:	01 96       	adiw	r24, 0x01	; 1
     e0c:	0e 94 15 16 	call	0x2c2a	; 0x2c2a <memcpy>
					memcpy(g_rxDataBuff , strTemp, g_rxDataLen - lineFeedIndex -1);
     e10:	40 91 0b 05 	lds	r20, 0x050B
     e14:	50 91 0c 05 	lds	r21, 0x050C
     e18:	40 1b       	sub	r20, r16
     e1a:	51 0b       	sbc	r21, r17
     e1c:	41 50       	subi	r20, 0x01	; 1
     e1e:	50 40       	sbci	r21, 0x00	; 0
     e20:	8e 2d       	mov	r24, r14
     e22:	9f 2d       	mov	r25, r15
     e24:	be 01       	movw	r22, r28
     e26:	6f 5f       	subi	r22, 0xFF	; 255
     e28:	7f 4f       	sbci	r23, 0xFF	; 255
     e2a:	0e 94 15 16 	call	0x2c2a	; 0x2c2a <memcpy>
					g_rxDataLen -= (lineFeedIndex + 1);
     e2e:	20 91 0b 05 	lds	r18, 0x050B
     e32:	30 91 0c 05 	lds	r19, 0x050C
     e36:	c8 01       	movw	r24, r16
     e38:	80 95       	com	r24
     e3a:	90 95       	com	r25
     e3c:	82 0f       	add	r24, r18
     e3e:	93 1f       	adc	r25, r19
     e40:	90 93 0c 05 	sts	0x050C, r25
     e44:	80 93 0b 05 	sts	0x050B, r24
					continue;
				}
			}
		}
		
		if ( lineFeedIndex == -1) // no find sync, check rxing data
     e48:	2f ef       	ldi	r18, 0xFF	; 255
     e4a:	0f 3f       	cpi	r16, 0xFF	; 255
     e4c:	12 07       	cpc	r17, r18
     e4e:	09 f0       	breq	.+2      	; 0xe52 <rxDataProcess+0x204>
     e50:	6f cf       	rjmp	.-290    	; 0xd30 <rxDataProcess+0xe2>
     e52:	11 c0       	rjmp	.+34     	; 0xe76 <rxDataProcess+0x228>
					break;
				}
			}
			else
			{
				if ( g_rxDataBuff[i] ==  CARRIAGE_RETURN )
     e54:	f7 01       	movw	r30, r14
     e56:	e0 0f       	add	r30, r16
     e58:	f1 1f       	adc	r31, r17
     e5a:	80 81       	ld	r24, Z
     e5c:	8d 30       	cpi	r24, 0x0D	; 13
     e5e:	09 f4       	brne	.+2      	; 0xe62 <rxDataProcess+0x214>
     e60:	b8 01       	movw	r22, r16
	while(1)
	{
		carriageReturnIndex = -1;
		lineFeedIndex = -1;
		
		for ( int i = 0; i < g_rxDataLen ; i++ )
     e62:	0f 5f       	subi	r16, 0xFF	; 255
     e64:	1f 4f       	sbci	r17, 0xFF	; 255
     e66:	80 91 0b 05 	lds	r24, 0x050B
     e6a:	90 91 0c 05 	lds	r25, 0x050C
     e6e:	08 17       	cp	r16, r24
     e70:	19 07       	cpc	r17, r25
     e72:	0c f4       	brge	.+2      	; 0xe76 <rxDataProcess+0x228>
     e74:	67 cf       	rjmp	.-306    	; 0xd44 <rxDataProcess+0xf6>
			}
		}
		
		if ( lineFeedIndex == -1) // no find sync, check rxing data
		{
			g_underRxDataFlag = 1;
     e76:	81 e0       	ldi	r24, 0x01	; 1
     e78:	80 93 0d 05 	sts	0x050D, r24
			
			temp = parsingMsg(g_rxDataBuff, g_rxDataLen);
     e7c:	60 91 0b 05 	lds	r22, 0x050B
     e80:	70 91 0c 05 	lds	r23, 0x050C
     e84:	81 e6       	ldi	r24, 0x61	; 97
     e86:	99 e0       	ldi	r25, 0x09	; 9
     e88:	0e 94 93 05 	call	0xb26	; 0xb26 <parsingMsg>
			//			debugprint("M2:%d\r\n",temp);
			if ((temp ==MSG_UNDER_MSG) || (temp ==MSG_RXING) )
     e8c:	8a 30       	cpi	r24, 0x0A	; 10
     e8e:	31 f0       	breq	.+12     	; 0xe9c <rxDataProcess+0x24e>
     e90:	84 30       	cpi	r24, 0x04	; 4
     e92:	21 f0       	breq	.+8      	; 0xe9c <rxDataProcess+0x24e>
			{
			}
			else
			{
				g_rxDataLen = 0;
     e94:	10 92 0c 05 	sts	0x050C, r1
     e98:	10 92 0b 05 	sts	0x050B, r1
			}
			msgBuff[msgBuffIndex] = temp;
     e9c:	f3 01       	movw	r30, r6
     e9e:	ed 0d       	add	r30, r13
     ea0:	f1 1d       	adc	r31, r1
     ea2:	80 83       	st	Z, r24
			msgBuffIndex++;
     ea4:	d3 94       	inc	r13
			return msgBuffIndex;
     ea6:	01 c0       	rjmp	.+2      	; 0xeaa <rxDataProcess+0x25c>
	
	uint8_t syncDetected;
	uint8_t temp;
	uint8_t msgBuffIndex = 0;
	if (g_wifiRxCurrentIndex == 0 )
		return 0;
     ea8:	dd 24       	eor	r13, r13
			return msgBuffIndex;
		}
	}
	
	return msgBuffIndex;
}
     eaa:	8d 2d       	mov	r24, r13
     eac:	ce 5f       	subi	r28, 0xFE	; 254
     eae:	dd 4f       	sbci	r29, 0xFD	; 253
     eb0:	0f b6       	in	r0, 0x3f	; 63
     eb2:	f8 94       	cli
     eb4:	de bf       	out	0x3e, r29	; 62
     eb6:	0f be       	out	0x3f, r0	; 63
     eb8:	cd bf       	out	0x3d, r28	; 61
     eba:	df 91       	pop	r29
     ebc:	cf 91       	pop	r28
     ebe:	1f 91       	pop	r17
     ec0:	0f 91       	pop	r16
     ec2:	ff 90       	pop	r15
     ec4:	ef 90       	pop	r14
     ec6:	df 90       	pop	r13
     ec8:	cf 90       	pop	r12
     eca:	bf 90       	pop	r11
     ecc:	af 90       	pop	r10
     ece:	9f 90       	pop	r9
     ed0:	8f 90       	pop	r8
     ed2:	7f 90       	pop	r7
     ed4:	6f 90       	pop	r6
     ed6:	5f 90       	pop	r5
     ed8:	4f 90       	pop	r4
     eda:	3f 90       	pop	r3
     edc:	2f 90       	pop	r2
     ede:	08 95       	ret

00000ee0 <wifiMain>:
[04][00][00][00][00][00][00][00][00][00][00][00][00][01][02][04][00][00][00][00][00][00][00][00][03]
[00][00][00][00][1E][00][00][00][FF]
*/

void wifiMain()
{
     ee0:	cf 93       	push	r28
     ee2:	df 93       	push	r29
     ee4:	00 d0       	rcall	.+0      	; 0xee6 <wifiMain+0x6>
     ee6:	0f 92       	push	r0
     ee8:	cd b7       	in	r28, 0x3d	; 61
     eea:	de b7       	in	r29, 0x3e	; 62
	g_wifiRxCurrentIndex = 0;
#else
	int i;
	int  endIndex = -1;
	
	if ( g_wifiIPDRxDataLen )// no ipd data
     eec:	80 91 0e 05 	lds	r24, 0x050E
     ef0:	90 91 0f 05 	lds	r25, 0x050F
     ef4:	00 97       	sbiw	r24, 0x00	; 0
     ef6:	99 f0       	breq	.+38     	; 0xf1e <wifiMain+0x3e>
	{
		if (callbackFnc != NULL )
     ef8:	e0 91 61 0b 	lds	r30, 0x0B61
     efc:	f0 91 62 0b 	lds	r31, 0x0B62
     f00:	30 97       	sbiw	r30, 0x00	; 0
     f02:	49 f0       	breq	.+18     	; 0xf16 <wifiMain+0x36>
		{
			callbackFnc(EVENT_RX_DATA,g_wifiIPDRxData,g_wifiIPDRxDataLen);
     f04:	40 91 0e 05 	lds	r20, 0x050E
     f08:	50 91 0f 05 	lds	r21, 0x050F
     f0c:	81 e0       	ldi	r24, 0x01	; 1
     f0e:	90 e0       	ldi	r25, 0x00	; 0
     f10:	61 e6       	ldi	r22, 0x61	; 97
     f12:	75 e0       	ldi	r23, 0x05	; 5
     f14:	19 95       	eicall
		}
		g_wifiIPDRxDataLen = 0;
     f16:	10 92 0f 05 	sts	0x050F, r1
     f1a:	10 92 0e 05 	sts	0x050E, r1
		
	}
	
	if ( !g_wifiRxCurrentIndex )
     f1e:	80 91 10 05 	lds	r24, 0x0510
     f22:	88 23       	and	r24, r24
     f24:	f1 f0       	breq	.+60     	; 0xf62 <wifiMain+0x82>
	}
#endif

	uint8_t msgBuff[4];
	uint8_t msgRxNum;
	msgRxNum = rxDataProcess(msgBuff,4);
     f26:	ce 01       	movw	r24, r28
     f28:	01 96       	adiw	r24, 0x01	; 1
     f2a:	64 e0       	ldi	r22, 0x04	; 4
     f2c:	0e 94 27 06 	call	0xc4e	; 0xc4e <rxDataProcess>
	
	
	if ( !g_wifiIPDRxDataLen )// no ipd data
     f30:	80 91 0e 05 	lds	r24, 0x050E
     f34:	90 91 0f 05 	lds	r25, 0x050F
     f38:	00 97       	sbiw	r24, 0x00	; 0
     f3a:	99 f0       	breq	.+38     	; 0xf62 <wifiMain+0x82>
		return;

	if (callbackFnc != NULL )
     f3c:	e0 91 61 0b 	lds	r30, 0x0B61
     f40:	f0 91 62 0b 	lds	r31, 0x0B62
     f44:	30 97       	sbiw	r30, 0x00	; 0
     f46:	49 f0       	breq	.+18     	; 0xf5a <wifiMain+0x7a>
	{
		callbackFnc(EVENT_RX_DATA,g_wifiIPDRxData,g_wifiIPDRxDataLen);
     f48:	40 91 0e 05 	lds	r20, 0x050E
     f4c:	50 91 0f 05 	lds	r21, 0x050F
     f50:	81 e0       	ldi	r24, 0x01	; 1
     f52:	90 e0       	ldi	r25, 0x00	; 0
     f54:	61 e6       	ldi	r22, 0x61	; 97
     f56:	75 e0       	ldi	r23, 0x05	; 5
     f58:	19 95       	eicall
	}
	g_wifiIPDRxDataLen = 0;
     f5a:	10 92 0f 05 	sts	0x050F, r1
     f5e:	10 92 0e 05 	sts	0x050E, r1

	#endif
}
     f62:	0f 90       	pop	r0
     f64:	0f 90       	pop	r0
     f66:	0f 90       	pop	r0
     f68:	0f 90       	pop	r0
     f6a:	df 91       	pop	r29
     f6c:	cf 91       	pop	r28
     f6e:	08 95       	ret

00000f70 <WaitOKWithPrint>:

int WaitOKWithPrint()
{
     f70:	2f 92       	push	r2
     f72:	3f 92       	push	r3
     f74:	4f 92       	push	r4
     f76:	5f 92       	push	r5
     f78:	6f 92       	push	r6
     f7a:	7f 92       	push	r7
     f7c:	8f 92       	push	r8
     f7e:	9f 92       	push	r9
     f80:	af 92       	push	r10
     f82:	bf 92       	push	r11
     f84:	cf 92       	push	r12
     f86:	df 92       	push	r13
     f88:	ef 92       	push	r14
     f8a:	ff 92       	push	r15
     f8c:	0f 93       	push	r16
     f8e:	1f 93       	push	r17
     f90:	cf 93       	push	r28
     f92:	df 93       	push	r29
     f94:	cd b7       	in	r28, 0x3d	; 61
     f96:	de b7       	in	r29, 0x3e	; 62
     f98:	c0 50       	subi	r28, 0x00	; 0
     f9a:	d2 40       	sbci	r29, 0x02	; 2
     f9c:	0f b6       	in	r0, 0x3f	; 63
     f9e:	f8 94       	cli
     fa0:	de bf       	out	0x3e, r29	; 62
     fa2:	0f be       	out	0x3f, r0	; 63
     fa4:	cd bf       	out	0x3d, r28	; 61
	uint8_t strTemp[512];
	int currentIndex = 0;
     fa6:	ee 24       	eor	r14, r14
     fa8:	ff 24       	eor	r15, r15
		if (g_wifiRxCurrentIndex)
		{
			for (i = 0; i < g_wifiRxCurrentIndex ; i++)
			{
				//
				strTemp[currentIndex++] = g_wifiRxData[i];
     faa:	0f 2e       	mov	r0, r31
     fac:	f1 e6       	ldi	r31, 0x61	; 97
     fae:	af 2e       	mov	r10, r31
     fb0:	f7 e0       	ldi	r31, 0x07	; 7
     fb2:	bf 2e       	mov	r11, r31
     fb4:	f0 2d       	mov	r31, r0
						{
							g_wifiRxCurrentIndex = 0;
							//							debugprint("error\r\n");
							return -1;
						}
						else if ((currentIndex >= 7) && !strncmp(strTemp,"ERROR",5)  )
     fb6:	0f 2e       	mov	r0, r31
     fb8:	f6 ec       	ldi	r31, 0xC6	; 198
     fba:	2f 2e       	mov	r2, r31
     fbc:	f3 e0       	ldi	r31, 0x03	; 3
     fbe:	3f 2e       	mov	r3, r31
     fc0:	f0 2d       	mov	r31, r0
				{
					//debugprint("\r\n");
					if ( currentIndex >= 4) // "OK\r\n"
					{
						// check end  "OK\r\n"
						if (!strncmp((char*)strTemp,"OK",2))
     fc2:	0f 2e       	mov	r0, r31
     fc4:	f5 eb       	ldi	r31, 0xB5	; 181
     fc6:	6f 2e       	mov	r6, r31
     fc8:	f3 e0       	ldi	r31, 0x03	; 3
     fca:	7f 2e       	mov	r7, r31
     fcc:	f0 2d       	mov	r31, r0
						{
							g_wifiRxCurrentIndex = 0;
							return 0;
						}
						else if ((currentIndex >=4) &&  !strncmp(strTemp,"+IPD,",4) )
     fce:	0f 2e       	mov	r0, r31
     fd0:	f0 ec       	ldi	r31, 0xC0	; 192
     fd2:	4f 2e       	mov	r4, r31
     fd4:	f3 e0       	ldi	r31, 0x03	; 3
     fd6:	5f 2e       	mov	r5, r31
     fd8:	f0 2d       	mov	r31, r0
	OK\r\n
	*/
	
	while(1)
	{
		if (g_wifiRxCurrentIndex)
     fda:	80 91 10 05 	lds	r24, 0x0510
     fde:	88 23       	and	r24, r24
     fe0:	e1 f3       	breq	.-8      	; 0xfda <WaitOKWithPrint+0x6a>
		{
			for (i = 0; i < g_wifiRxCurrentIndex ; i++)
     fe2:	80 91 10 05 	lds	r24, 0x0510
     fe6:	88 23       	and	r24, r24
     fe8:	09 f4       	brne	.+2      	; 0xfec <WaitOKWithPrint+0x7c>
     fea:	a9 c0       	rjmp	.+338    	; 0x113e <WaitOKWithPrint+0x1ce>
     fec:	cc 24       	eor	r12, r12
     fee:	dd 24       	eor	r13, r13
						
						#endif
						//						debugprint(strTemp);
						
					}
					currentIndex = 0;
     ff0:	88 24       	eor	r8, r8
     ff2:	99 24       	eor	r9, r9
		if (g_wifiRxCurrentIndex)
		{
			for (i = 0; i < g_wifiRxCurrentIndex ; i++)
			{
				//
				strTemp[currentIndex++] = g_wifiRxData[i];
     ff4:	85 01       	movw	r16, r10
     ff6:	0c 0d       	add	r16, r12
     ff8:	1d 1d       	adc	r17, r13
     ffa:	f8 01       	movw	r30, r16
     ffc:	80 81       	ld	r24, Z
     ffe:	e1 e0       	ldi	r30, 0x01	; 1
    1000:	f0 e0       	ldi	r31, 0x00	; 0
    1002:	ec 0f       	add	r30, r28
    1004:	fd 1f       	adc	r31, r29
    1006:	ee 0d       	add	r30, r14
    1008:	ff 1d       	adc	r31, r15
    100a:	80 83       	st	Z, r24
    100c:	08 94       	sec
    100e:	e1 1c       	adc	r14, r1
    1010:	f1 1c       	adc	r15, r1
				//if((g_wifiRxData[i] !=0x0D) && (g_wifiRxData[i] !=0x0A)   )
				putCh2(g_wifiRxData[i]);
    1012:	f8 01       	movw	r30, r16
    1014:	80 81       	ld	r24, Z
    1016:	0e 94 a4 03 	call	0x748	; 0x748 <putCh2>
				
				if (g_wifiRxData[i] == 0x0A)
    101a:	f8 01       	movw	r30, r16
    101c:	80 81       	ld	r24, Z
    101e:	8a 30       	cpi	r24, 0x0A	; 10
    1020:	09 f0       	breq	.+2      	; 0x1024 <WaitOKWithPrint+0xb4>
    1022:	83 c0       	rjmp	.+262    	; 0x112a <WaitOKWithPrint+0x1ba>
				{
					//debugprint("\r\n");
					if ( currentIndex >= 4) // "OK\r\n"
    1024:	f4 e0       	ldi	r31, 0x04	; 4
    1026:	ef 16       	cp	r14, r31
    1028:	f1 04       	cpc	r15, r1
    102a:	0c f4       	brge	.+2      	; 0x102e <WaitOKWithPrint+0xbe>
    102c:	79 c0       	rjmp	.+242    	; 0x1120 <WaitOKWithPrint+0x1b0>
					{
						// check end  "OK\r\n"
						if (!strncmp((char*)strTemp,"OK",2))
    102e:	ce 01       	movw	r24, r28
    1030:	01 96       	adiw	r24, 0x01	; 1
    1032:	b3 01       	movw	r22, r6
    1034:	42 e0       	ldi	r20, 0x02	; 2
    1036:	50 e0       	ldi	r21, 0x00	; 0
    1038:	0e 94 1e 16 	call	0x2c3c	; 0x2c3c <strncmp>
    103c:	28 2f       	mov	r18, r24
    103e:	39 2f       	mov	r19, r25
    1040:	21 15       	cp	r18, r1
    1042:	31 05       	cpc	r19, r1
    1044:	29 f4       	brne	.+10     	; 0x1050 <WaitOKWithPrint+0xe0>
						{
							g_wifiRxCurrentIndex = 0;
    1046:	10 92 10 05 	sts	0x0510, r1
							return 0;
    104a:	80 e0       	ldi	r24, 0x00	; 0
    104c:	90 e0       	ldi	r25, 0x00	; 0
    104e:	7a c0       	rjmp	.+244    	; 0x1144 <WaitOKWithPrint+0x1d4>
						}
						else if ((currentIndex >=4) &&  !strncmp(strTemp,"+IPD,",4) )
    1050:	ce 01       	movw	r24, r28
    1052:	01 96       	adiw	r24, 0x01	; 1
    1054:	b2 01       	movw	r22, r4
    1056:	44 e0       	ldi	r20, 0x04	; 4
    1058:	50 e0       	ldi	r21, 0x00	; 0
    105a:	0e 94 1e 16 	call	0x2c3c	; 0x2c3c <strncmp>
    105e:	28 2f       	mov	r18, r24
    1060:	39 2f       	mov	r19, r25
    1062:	21 15       	cp	r18, r1
    1064:	31 05       	cpc	r19, r1
    1066:	29 f4       	brne	.+10     	; 0x1072 <WaitOKWithPrint+0x102>
						{
							g_wifiRxCurrentIndex = 0;
    1068:	10 92 10 05 	sts	0x0510, r1
							//							debugprint("error\r\n");
							return -1;
    106c:	8f ef       	ldi	r24, 0xFF	; 255
    106e:	9f ef       	ldi	r25, 0xFF	; 255
    1070:	69 c0       	rjmp	.+210    	; 0x1144 <WaitOKWithPrint+0x1d4>
						}
						else if ((currentIndex >= 7) && !strncmp(strTemp,"ERROR",5)  )
    1072:	87 e0       	ldi	r24, 0x07	; 7
    1074:	e8 16       	cp	r14, r24
    1076:	f1 04       	cpc	r15, r1
    1078:	8c f0       	brlt	.+34     	; 0x109c <WaitOKWithPrint+0x12c>
    107a:	ce 01       	movw	r24, r28
    107c:	01 96       	adiw	r24, 0x01	; 1
    107e:	b1 01       	movw	r22, r2
    1080:	45 e0       	ldi	r20, 0x05	; 5
    1082:	50 e0       	ldi	r21, 0x00	; 0
    1084:	0e 94 1e 16 	call	0x2c3c	; 0x2c3c <strncmp>
    1088:	28 2f       	mov	r18, r24
    108a:	39 2f       	mov	r19, r25
    108c:	21 15       	cp	r18, r1
    108e:	31 05       	cpc	r19, r1
    1090:	29 f4       	brne	.+10     	; 0x109c <WaitOKWithPrint+0x12c>
						{
							g_wifiRxCurrentIndex = 0;
    1092:	10 92 10 05 	sts	0x0510, r1
							//							debugprint("error\r\n");
							return -1;
    1096:	8f ef       	ldi	r24, 0xFF	; 255
    1098:	9f ef       	ldi	r25, 0xFF	; 255
    109a:	54 c0       	rjmp	.+168    	; 0x1144 <WaitOKWithPrint+0x1d4>
						}
						else if ((currentIndex >= 6) && !strncmp(strTemp,"FAIL",5)  )
    109c:	e6 e0       	ldi	r30, 0x06	; 6
    109e:	ee 16       	cp	r14, r30
    10a0:	f1 04       	cpc	r15, r1
    10a2:	94 f0       	brlt	.+36     	; 0x10c8 <WaitOKWithPrint+0x158>
    10a4:	ce 01       	movw	r24, r28
    10a6:	01 96       	adiw	r24, 0x01	; 1
    10a8:	6c ec       	ldi	r22, 0xCC	; 204
    10aa:	73 e0       	ldi	r23, 0x03	; 3
    10ac:	45 e0       	ldi	r20, 0x05	; 5
    10ae:	50 e0       	ldi	r21, 0x00	; 0
    10b0:	0e 94 1e 16 	call	0x2c3c	; 0x2c3c <strncmp>
    10b4:	28 2f       	mov	r18, r24
    10b6:	39 2f       	mov	r19, r25
    10b8:	21 15       	cp	r18, r1
    10ba:	31 05       	cpc	r19, r1
    10bc:	29 f4       	brne	.+10     	; 0x10c8 <WaitOKWithPrint+0x158>
						{
							g_wifiRxCurrentIndex = 0;
    10be:	10 92 10 05 	sts	0x0510, r1
							//							debugprint("fail\r\n");
							return -1;
    10c2:	8f ef       	ldi	r24, 0xFF	; 255
    10c4:	9f ef       	ldi	r25, 0xFF	; 255
    10c6:	3e c0       	rjmp	.+124    	; 0x1144 <WaitOKWithPrint+0x1d4>
						}
						else if ((currentIndex >= 7) && !strncmp(strTemp,"ALREAY",5)  )
    10c8:	f7 e0       	ldi	r31, 0x07	; 7
    10ca:	ef 16       	cp	r14, r31
    10cc:	f1 04       	cpc	r15, r1
    10ce:	94 f0       	brlt	.+36     	; 0x10f4 <WaitOKWithPrint+0x184>
    10d0:	ce 01       	movw	r24, r28
    10d2:	01 96       	adiw	r24, 0x01	; 1
    10d4:	61 ee       	ldi	r22, 0xE1	; 225
    10d6:	73 e0       	ldi	r23, 0x03	; 3
    10d8:	45 e0       	ldi	r20, 0x05	; 5
    10da:	50 e0       	ldi	r21, 0x00	; 0
    10dc:	0e 94 1e 16 	call	0x2c3c	; 0x2c3c <strncmp>
    10e0:	28 2f       	mov	r18, r24
    10e2:	39 2f       	mov	r19, r25
    10e4:	21 15       	cp	r18, r1
    10e6:	31 05       	cpc	r19, r1
    10e8:	29 f4       	brne	.+10     	; 0x10f4 <WaitOKWithPrint+0x184>
						{
							g_wifiRxCurrentIndex = 0;
    10ea:	10 92 10 05 	sts	0x0510, r1
							return 0;
    10ee:	80 e0       	ldi	r24, 0x00	; 0
    10f0:	90 e0       	ldi	r25, 0x00	; 0
    10f2:	28 c0       	rjmp	.+80     	; 0x1144 <WaitOKWithPrint+0x1d4>
						}
						else if ((currentIndex >= 9) && !strncmp(strTemp,"SEND OK",7)  )
    10f4:	89 e0       	ldi	r24, 0x09	; 9
    10f6:	e8 16       	cp	r14, r24
    10f8:	f1 04       	cpc	r15, r1
    10fa:	a4 f0       	brlt	.+40     	; 0x1124 <WaitOKWithPrint+0x1b4>
    10fc:	ce 01       	movw	r24, r28
    10fe:	01 96       	adiw	r24, 0x01	; 1
    1100:	68 eb       	ldi	r22, 0xB8	; 184
    1102:	73 e0       	ldi	r23, 0x03	; 3
    1104:	47 e0       	ldi	r20, 0x07	; 7
    1106:	50 e0       	ldi	r21, 0x00	; 0
    1108:	0e 94 1e 16 	call	0x2c3c	; 0x2c3c <strncmp>
    110c:	28 2f       	mov	r18, r24
    110e:	39 2f       	mov	r19, r25
    1110:	21 15       	cp	r18, r1
    1112:	31 05       	cpc	r19, r1
    1114:	49 f4       	brne	.+18     	; 0x1128 <WaitOKWithPrint+0x1b8>
						{
							g_wifiRxCurrentIndex = 0;
    1116:	10 92 10 05 	sts	0x0510, r1
							return 0;
    111a:	80 e0       	ldi	r24, 0x00	; 0
    111c:	90 e0       	ldi	r25, 0x00	; 0
    111e:	12 c0       	rjmp	.+36     	; 0x1144 <WaitOKWithPrint+0x1d4>
						
						#endif
						//						debugprint(strTemp);
						
					}
					currentIndex = 0;
    1120:	74 01       	movw	r14, r8
    1122:	03 c0       	rjmp	.+6      	; 0x112a <WaitOKWithPrint+0x1ba>
    1124:	74 01       	movw	r14, r8
    1126:	01 c0       	rjmp	.+2      	; 0x112a <WaitOKWithPrint+0x1ba>
    1128:	74 01       	movw	r14, r8
	
	while(1)
	{
		if (g_wifiRxCurrentIndex)
		{
			for (i = 0; i < g_wifiRxCurrentIndex ; i++)
    112a:	08 94       	sec
    112c:	c1 1c       	adc	r12, r1
    112e:	d1 1c       	adc	r13, r1
    1130:	80 91 10 05 	lds	r24, 0x0510
    1134:	90 e0       	ldi	r25, 0x00	; 0
    1136:	c8 16       	cp	r12, r24
    1138:	d9 06       	cpc	r13, r25
    113a:	0c f4       	brge	.+2      	; 0x113e <WaitOKWithPrint+0x1ce>
    113c:	5b cf       	rjmp	.-330    	; 0xff4 <WaitOKWithPrint+0x84>
						
					}
					currentIndex = 0;
				}
			}
			g_wifiRxCurrentIndex = 0;
    113e:	10 92 10 05 	sts	0x0510, r1
    1142:	4b cf       	rjmp	.-362    	; 0xfda <WaitOKWithPrint+0x6a>
		}
	}
}
    1144:	c0 50       	subi	r28, 0x00	; 0
    1146:	de 4f       	sbci	r29, 0xFE	; 254
    1148:	0f b6       	in	r0, 0x3f	; 63
    114a:	f8 94       	cli
    114c:	de bf       	out	0x3e, r29	; 62
    114e:	0f be       	out	0x3f, r0	; 63
    1150:	cd bf       	out	0x3d, r28	; 61
    1152:	df 91       	pop	r29
    1154:	cf 91       	pop	r28
    1156:	1f 91       	pop	r17
    1158:	0f 91       	pop	r16
    115a:	ff 90       	pop	r15
    115c:	ef 90       	pop	r14
    115e:	df 90       	pop	r13
    1160:	cf 90       	pop	r12
    1162:	bf 90       	pop	r11
    1164:	af 90       	pop	r10
    1166:	9f 90       	pop	r9
    1168:	8f 90       	pop	r8
    116a:	7f 90       	pop	r7
    116c:	6f 90       	pop	r6
    116e:	5f 90       	pop	r5
    1170:	4f 90       	pop	r4
    1172:	3f 90       	pop	r3
    1174:	2f 90       	pop	r2
    1176:	08 95       	ret

00001178 <WaitSendReadyWithoutPrint>:


int WaitSendReadyWithoutPrint()
{
    1178:	cf 92       	push	r12
    117a:	df 92       	push	r13
    117c:	ff 92       	push	r15
    117e:	0f 93       	push	r16
    1180:	1f 93       	push	r17
    1182:	cf 93       	push	r28
    1184:	df 93       	push	r29
    1186:	00 d0       	rcall	.+0      	; 0x1188 <WaitSendReadyWithoutPrint+0x10>
    1188:	0f 92       	push	r0
    118a:	cd b7       	in	r28, 0x3d	; 61
    118c:	de b7       	in	r29, 0x3e	; 62
    118e:	0f 2e       	mov	r0, r31
    1190:	f5 e6       	ldi	r31, 0x65	; 101
    1192:	cf 2e       	mov	r12, r31
    1194:	dd 24       	eor	r13, r13
    1196:	f0 2d       	mov	r31, r0
	int counter = 0;
	uint8_t msgBuff[4];
	uint8_t msgRxNum;
	int i;
	uint8_t okFlag =0;
	uint8_t readyFlag = 0;
    1198:	00 e0       	ldi	r16, 0x00	; 0
{
	int counter = 0;
	uint8_t msgBuff[4];
	uint8_t msgRxNum;
	int i;
	uint8_t okFlag =0;
    119a:	ff 24       	eor	r15, r15
		for(i = 0 ; i< msgRxNum ; i++)
		{
			if (msgBuff[i] == MSG_SEND_READY)
			{
				
				readyFlag = 1;
    119c:	11 e0       	ldi	r17, 0x01	; 1
	int i;
	uint8_t okFlag =0;
	uint8_t readyFlag = 0;
	while(1)
	{
		msgRxNum = rxDataProcess(msgBuff,4);
    119e:	ce 01       	movw	r24, r28
    11a0:	01 96       	adiw	r24, 0x01	; 1
    11a2:	64 e0       	ldi	r22, 0x04	; 4
    11a4:	0e 94 27 06 	call	0xc4e	; 0xc4e <rxDataProcess>
		for(i = 0 ; i< msgRxNum ; i++)
    11a8:	88 23       	and	r24, r24
    11aa:	a1 f0       	breq	.+40     	; 0x11d4 <WaitSendReadyWithoutPrint+0x5c>
    11ac:	fe 01       	movw	r30, r28
    11ae:	31 96       	adiw	r30, 0x01	; 1
		}
	}
}


int WaitSendReadyWithoutPrint()
    11b0:	9f 01       	movw	r18, r30
    11b2:	28 0f       	add	r18, r24
    11b4:	31 1d       	adc	r19, r1
    11b6:	c9 01       	movw	r24, r18
	while(1)
	{
		msgRxNum = rxDataProcess(msgBuff,4);
		for(i = 0 ; i< msgRxNum ; i++)
		{
			if (msgBuff[i] == MSG_SEND_READY)
    11b8:	21 91       	ld	r18, Z+
    11ba:	28 30       	cpi	r18, 0x08	; 8
    11bc:	29 f0       	breq	.+10     	; 0x11c8 <WaitSendReadyWithoutPrint+0x50>
			{
				
				readyFlag = 1;
			}
			else if (msgBuff[i] == MSG_OK)
    11be:	22 30       	cpi	r18, 0x02	; 2
    11c0:	29 f0       	breq	.+10     	; 0x11cc <WaitSendReadyWithoutPrint+0x54>
			{
				okFlag = 1;
			}
			else if (msgBuff[i] == MSG_ERROR)
    11c2:	25 30       	cpi	r18, 0x05	; 5
    11c4:	21 f4       	brne	.+8      	; 0x11ce <WaitSendReadyWithoutPrint+0x56>
    11c6:	26 c0       	rjmp	.+76     	; 0x1214 <WaitSendReadyWithoutPrint+0x9c>
		for(i = 0 ; i< msgRxNum ; i++)
		{
			if (msgBuff[i] == MSG_SEND_READY)
			{
				
				readyFlag = 1;
    11c8:	01 2f       	mov	r16, r17
    11ca:	01 c0       	rjmp	.+2      	; 0x11ce <WaitSendReadyWithoutPrint+0x56>
			}
			else if (msgBuff[i] == MSG_OK)
			{
				okFlag = 1;
    11cc:	f1 2e       	mov	r15, r17
	uint8_t okFlag =0;
	uint8_t readyFlag = 0;
	while(1)
	{
		msgRxNum = rxDataProcess(msgBuff,4);
		for(i = 0 ; i< msgRxNum ; i++)
    11ce:	e8 17       	cp	r30, r24
    11d0:	f9 07       	cpc	r31, r25
    11d2:	91 f7       	brne	.-28     	; 0x11b8 <WaitSendReadyWithoutPrint+0x40>
			else if (msgBuff[i] == MSG_ERROR)
			{
				return -1;
			}
		}
		if ( readyFlag && okFlag )
    11d4:	00 23       	and	r16, r16
    11d6:	11 f0       	breq	.+4      	; 0x11dc <WaitSendReadyWithoutPrint+0x64>
    11d8:	ff 20       	and	r15, r15
    11da:	f9 f4       	brne	.+62     	; 0x121a <WaitSendReadyWithoutPrint+0xa2>
    11dc:	08 94       	sec
    11de:	c1 08       	sbc	r12, r1
    11e0:	d1 08       	sbc	r13, r1
		{
			return 0;
		}
		
		counter++;
		if (counter> 100)
    11e2:	c1 14       	cp	r12, r1
    11e4:	d1 04       	cpc	r13, r1
    11e6:	79 f4       	brne	.+30     	; 0x1206 <WaitSendReadyWithoutPrint+0x8e>
		{
			debugprint("WaitSendReadyWithoutPrint counter err\r\n");
    11e8:	0f 92       	push	r0
    11ea:	0f 92       	push	r0
    11ec:	88 ee       	ldi	r24, 0xE8	; 232
    11ee:	93 e0       	ldi	r25, 0x03	; 3
    11f0:	ed b7       	in	r30, 0x3d	; 61
    11f2:	fe b7       	in	r31, 0x3e	; 62
    11f4:	92 83       	std	Z+2, r25	; 0x02
    11f6:	81 83       	std	Z+1, r24	; 0x01
    11f8:	0e 94 ed 03 	call	0x7da	; 0x7da <debugprint>
			return -1;
    11fc:	0f 90       	pop	r0
    11fe:	0f 90       	pop	r0
    1200:	8f ef       	ldi	r24, 0xFF	; 255
    1202:	9f ef       	ldi	r25, 0xFF	; 255
    1204:	0c c0       	rjmp	.+24     	; 0x121e <WaitSendReadyWithoutPrint+0xa6>
    1206:	8f ef       	ldi	r24, 0xFF	; 255
    1208:	9f e8       	ldi	r25, 0x8F	; 143
    120a:	01 97       	sbiw	r24, 0x01	; 1
    120c:	f1 f7       	brne	.-4      	; 0x120a <WaitSendReadyWithoutPrint+0x92>
    120e:	00 c0       	rjmp	.+0      	; 0x1210 <WaitSendReadyWithoutPrint+0x98>
    1210:	00 00       	nop
    1212:	c5 cf       	rjmp	.-118    	; 0x119e <WaitSendReadyWithoutPrint+0x26>
			{
				okFlag = 1;
			}
			else if (msgBuff[i] == MSG_ERROR)
			{
				return -1;
    1214:	8f ef       	ldi	r24, 0xFF	; 255
    1216:	9f ef       	ldi	r25, 0xFF	; 255
    1218:	02 c0       	rjmp	.+4      	; 0x121e <WaitSendReadyWithoutPrint+0xa6>
			}
		}
		if ( readyFlag && okFlag )
		{
			return 0;
    121a:	80 e0       	ldi	r24, 0x00	; 0
    121c:	90 e0       	ldi	r25, 0x00	; 0
			return -1;
		}
		
		_delay_ms(10);
	}
}
    121e:	0f 90       	pop	r0
    1220:	0f 90       	pop	r0
    1222:	0f 90       	pop	r0
    1224:	0f 90       	pop	r0
    1226:	df 91       	pop	r29
    1228:	cf 91       	pop	r28
    122a:	1f 91       	pop	r17
    122c:	0f 91       	pop	r16
    122e:	ff 90       	pop	r15
    1230:	df 90       	pop	r13
    1232:	cf 90       	pop	r12
    1234:	08 95       	ret

00001236 <WaitSendOKWithoutPrint>:

int WaitSendOKWithoutPrint()
{
    1236:	0f 93       	push	r16
    1238:	1f 93       	push	r17
    123a:	cf 93       	push	r28
    123c:	df 93       	push	r29
    123e:	00 d0       	rcall	.+0      	; 0x1240 <WaitSendOKWithoutPrint+0xa>
    1240:	0f 92       	push	r0
    1242:	cd b7       	in	r28, 0x3d	; 61
    1244:	de b7       	in	r29, 0x3e	; 62
    1246:	05 e6       	ldi	r16, 0x65	; 101
    1248:	10 e0       	ldi	r17, 0x00	; 0
	uint8_t msgBuff[4];
	uint8_t msgRxNum;
	int i;
	while(1)
	{
		msgRxNum = rxDataProcess(msgBuff,4);
    124a:	ce 01       	movw	r24, r28
    124c:	01 96       	adiw	r24, 0x01	; 1
    124e:	64 e0       	ldi	r22, 0x04	; 4
    1250:	0e 94 27 06 	call	0xc4e	; 0xc4e <rxDataProcess>
		for(i = 0 ; i< msgRxNum ; i++)
    1254:	88 23       	and	r24, r24
    1256:	b9 f0       	breq	.+46     	; 0x1286 <WaitSendOKWithoutPrint+0x50>
		{
			if (msgBuff[i] == MSG_SEND_OK)
    1258:	99 81       	ldd	r25, Y+1	; 0x01
    125a:	91 30       	cpi	r25, 0x01	; 1
    125c:	69 f1       	breq	.+90     	; 0x12b8 <WaitSendOKWithoutPrint+0x82>
			return 0;
			else if (msgBuff[i] == MSG_ERROR)
    125e:	95 30       	cpi	r25, 0x05	; 5
    1260:	71 f1       	breq	.+92     	; 0x12be <WaitSendOKWithoutPrint+0x88>
    1262:	fe 01       	movw	r30, r28
    1264:	32 96       	adiw	r30, 0x02	; 2
		
		_delay_ms(10);
	}
}

int WaitSendOKWithoutPrint()
    1266:	21 e0       	ldi	r18, 0x01	; 1
    1268:	30 e0       	ldi	r19, 0x00	; 0
    126a:	2c 0f       	add	r18, r28
    126c:	3d 1f       	adc	r19, r29
    126e:	28 0f       	add	r18, r24
    1270:	31 1d       	adc	r19, r1
    1272:	c9 01       	movw	r24, r18
    1274:	05 c0       	rjmp	.+10     	; 0x1280 <WaitSendOKWithoutPrint+0x4a>
	while(1)
	{
		msgRxNum = rxDataProcess(msgBuff,4);
		for(i = 0 ; i< msgRxNum ; i++)
		{
			if (msgBuff[i] == MSG_SEND_OK)
    1276:	21 91       	ld	r18, Z+
    1278:	21 30       	cpi	r18, 0x01	; 1
    127a:	21 f1       	breq	.+72     	; 0x12c4 <WaitSendOKWithoutPrint+0x8e>
			return 0;
			else if (msgBuff[i] == MSG_ERROR)
    127c:	25 30       	cpi	r18, 0x05	; 5
    127e:	29 f1       	breq	.+74     	; 0x12ca <WaitSendOKWithoutPrint+0x94>
	uint8_t msgRxNum;
	int i;
	while(1)
	{
		msgRxNum = rxDataProcess(msgBuff,4);
		for(i = 0 ; i< msgRxNum ; i++)
    1280:	e8 17       	cp	r30, r24
    1282:	f9 07       	cpc	r31, r25
    1284:	c1 f7       	brne	.-16     	; 0x1276 <WaitSendOKWithoutPrint+0x40>
    1286:	01 50       	subi	r16, 0x01	; 1
    1288:	10 40       	sbci	r17, 0x00	; 0
			else if (msgBuff[i] == MSG_ERROR)
			return -1;
		}
		
		counter++;
		if (counter> 100)
    128a:	79 f4       	brne	.+30     	; 0x12aa <WaitSendOKWithoutPrint+0x74>
		{
			debugprint("WaitOKWithoutPrint counter err\r\n");
    128c:	0f 92       	push	r0
    128e:	0f 92       	push	r0
    1290:	80 e1       	ldi	r24, 0x10	; 16
    1292:	94 e0       	ldi	r25, 0x04	; 4
    1294:	ed b7       	in	r30, 0x3d	; 61
    1296:	fe b7       	in	r31, 0x3e	; 62
    1298:	92 83       	std	Z+2, r25	; 0x02
    129a:	81 83       	std	Z+1, r24	; 0x01
    129c:	0e 94 ed 03 	call	0x7da	; 0x7da <debugprint>
			return -1;
    12a0:	0f 90       	pop	r0
    12a2:	0f 90       	pop	r0
    12a4:	8f ef       	ldi	r24, 0xFF	; 255
    12a6:	9f ef       	ldi	r25, 0xFF	; 255
    12a8:	12 c0       	rjmp	.+36     	; 0x12ce <WaitSendOKWithoutPrint+0x98>
    12aa:	8f ef       	ldi	r24, 0xFF	; 255
    12ac:	9f e8       	ldi	r25, 0x8F	; 143
    12ae:	01 97       	sbiw	r24, 0x01	; 1
    12b0:	f1 f7       	brne	.-4      	; 0x12ae <WaitSendOKWithoutPrint+0x78>
    12b2:	00 c0       	rjmp	.+0      	; 0x12b4 <WaitSendOKWithoutPrint+0x7e>
    12b4:	00 00       	nop
    12b6:	c9 cf       	rjmp	.-110    	; 0x124a <WaitSendOKWithoutPrint+0x14>
	{
		msgRxNum = rxDataProcess(msgBuff,4);
		for(i = 0 ; i< msgRxNum ; i++)
		{
			if (msgBuff[i] == MSG_SEND_OK)
			return 0;
    12b8:	80 e0       	ldi	r24, 0x00	; 0
    12ba:	90 e0       	ldi	r25, 0x00	; 0
    12bc:	08 c0       	rjmp	.+16     	; 0x12ce <WaitSendOKWithoutPrint+0x98>
			else if (msgBuff[i] == MSG_ERROR)
			return -1;
    12be:	8f ef       	ldi	r24, 0xFF	; 255
    12c0:	9f ef       	ldi	r25, 0xFF	; 255
    12c2:	05 c0       	rjmp	.+10     	; 0x12ce <WaitSendOKWithoutPrint+0x98>
	{
		msgRxNum = rxDataProcess(msgBuff,4);
		for(i = 0 ; i< msgRxNum ; i++)
		{
			if (msgBuff[i] == MSG_SEND_OK)
			return 0;
    12c4:	80 e0       	ldi	r24, 0x00	; 0
    12c6:	90 e0       	ldi	r25, 0x00	; 0
    12c8:	02 c0       	rjmp	.+4      	; 0x12ce <WaitSendOKWithoutPrint+0x98>
			else if (msgBuff[i] == MSG_ERROR)
			return -1;
    12ca:	8f ef       	ldi	r24, 0xFF	; 255
    12cc:	9f ef       	ldi	r25, 0xFF	; 255
			return -1;
		}
		_delay_ms(10);
		
	}
}
    12ce:	0f 90       	pop	r0
    12d0:	0f 90       	pop	r0
    12d2:	0f 90       	pop	r0
    12d4:	0f 90       	pop	r0
    12d6:	df 91       	pop	r29
    12d8:	cf 91       	pop	r28
    12da:	1f 91       	pop	r17
    12dc:	0f 91       	pop	r16
    12de:	08 95       	ret

000012e0 <WaitOk>:

int WaitOk() //"\r\nOK\r\n"
{
    12e0:	cf 92       	push	r12
    12e2:	df 92       	push	r13
    12e4:	ef 92       	push	r14
    12e6:	ff 92       	push	r15
    12e8:	0f 93       	push	r16
    12ea:	1f 93       	push	r17
    12ec:	cf 93       	push	r28
    12ee:	df 93       	push	r29
    12f0:	cd b7       	in	r28, 0x3d	; 61
    12f2:	de b7       	in	r29, 0x3e	; 62
    12f4:	c0 50       	subi	r28, 0x00	; 0
    12f6:	d1 40       	sbci	r29, 0x01	; 1
    12f8:	0f b6       	in	r0, 0x3f	; 63
    12fa:	f8 94       	cli
    12fc:	de bf       	out	0x3e, r29	; 62
    12fe:	0f be       	out	0x3f, r0	; 63
    1300:	cd bf       	out	0x3d, r28	; 61
	uint8_t strTemp[256];
	int currentIndex = 0;
	uint8_t firstCarrageReturnDetect = 0;
    1302:	dd 24       	eor	r13, r13
}

int WaitOk() //"\r\nOK\r\n"
{
	uint8_t strTemp[256];
	int currentIndex = 0;
    1304:	40 e0       	ldi	r20, 0x00	; 0
    1306:	50 e0       	ldi	r21, 0x00	; 0
		_delay_ms(10);
		
	}
}

int WaitOk() //"\r\nOK\r\n"
    1308:	be 01       	movw	r22, r28
    130a:	6f 5f       	subi	r22, 0xFF	; 255
    130c:	7f 4f       	sbci	r23, 0xFF	; 255
    130e:	ee 24       	eor	r14, r14
    1310:	ff 24       	eor	r15, r15
	{
		if (g_wifiRxCurrentIndex)
		{
			for (i = 0; i < g_wifiRxCurrentIndex ; i++)
			{
				strTemp[currentIndex++] = g_wifiRxData[i];
    1312:	01 e6       	ldi	r16, 0x61	; 97
    1314:	17 e0       	ldi	r17, 0x07	; 7
				if (g_wifiRxData[i] == 0x0A)
				{
					if ( !firstCarrageReturnDetect )
					{
						firstCarrageReturnDetect = 1;
    1316:	cc 24       	eor	r12, r12
    1318:	c3 94       	inc	r12
	uint8_t firstCarrageReturnDetect = 0;
	int i;
	
	while(1)
	{
		if (g_wifiRxCurrentIndex)
    131a:	80 91 10 05 	lds	r24, 0x0510
    131e:	88 23       	and	r24, r24
    1320:	e1 f3       	breq	.-8      	; 0x131a <WaitOk+0x3a>
		{
			for (i = 0; i < g_wifiRxCurrentIndex ; i++)
    1322:	80 91 10 05 	lds	r24, 0x0510
    1326:	88 23       	and	r24, r24
    1328:	c1 f3       	breq	.-16     	; 0x131a <WaitOk+0x3a>
		_delay_ms(10);
		
	}
}

int WaitOk() //"\r\nOK\r\n"
    132a:	db 01       	movw	r26, r22
    132c:	a4 0f       	add	r26, r20
    132e:	b5 1f       	adc	r27, r21
    1330:	97 01       	movw	r18, r14
	{
		if (g_wifiRxCurrentIndex)
		{
			for (i = 0; i < g_wifiRxCurrentIndex ; i++)
			{
				strTemp[currentIndex++] = g_wifiRxData[i];
    1332:	f8 01       	movw	r30, r16
    1334:	e2 0f       	add	r30, r18
    1336:	f3 1f       	adc	r31, r19
    1338:	80 81       	ld	r24, Z
    133a:	8d 93       	st	X+, r24
				if (g_wifiRxData[i] == 0x0A)
    133c:	80 81       	ld	r24, Z
    133e:	8a 30       	cpi	r24, 0x0A	; 10
    1340:	39 f5       	brne	.+78     	; 0x1390 <WaitOk+0xb0>
				{
					if ( !firstCarrageReturnDetect )
    1342:	dd 20       	and	r13, r13
    1344:	21 f1       	breq	.+72     	; 0x138e <WaitOk+0xae>
						firstCarrageReturnDetect = 1;
					}
					else
					{
						// check end  "OK\r\n"
						if (!strncmp(strTemp+2,"OK",2))
    1346:	ce 01       	movw	r24, r28
    1348:	03 96       	adiw	r24, 0x03	; 3
    134a:	65 eb       	ldi	r22, 0xB5	; 181
    134c:	73 e0       	ldi	r23, 0x03	; 3
    134e:	42 e0       	ldi	r20, 0x02	; 2
    1350:	50 e0       	ldi	r21, 0x00	; 0
    1352:	0e 94 1e 16 	call	0x2c3c	; 0x2c3c <strncmp>
    1356:	28 2f       	mov	r18, r24
    1358:	39 2f       	mov	r19, r25
    135a:	21 15       	cp	r18, r1
    135c:	31 05       	cpc	r19, r1
    135e:	29 f4       	brne	.+10     	; 0x136a <WaitOk+0x8a>
						{
							g_wifiRxCurrentIndex = 0;
    1360:	10 92 10 05 	sts	0x0510, r1
							return 0;
    1364:	80 e0       	ldi	r24, 0x00	; 0
    1366:	90 e0       	ldi	r25, 0x00	; 0
    1368:	22 c0       	rjmp	.+68     	; 0x13ae <WaitOk+0xce>
						}
						else if (!strncmp(strTemp+2,"ERROR",5)  )
    136a:	ce 01       	movw	r24, r28
    136c:	03 96       	adiw	r24, 0x03	; 3
    136e:	66 ec       	ldi	r22, 0xC6	; 198
    1370:	73 e0       	ldi	r23, 0x03	; 3
    1372:	45 e0       	ldi	r20, 0x05	; 5
    1374:	50 e0       	ldi	r21, 0x00	; 0
    1376:	0e 94 1e 16 	call	0x2c3c	; 0x2c3c <strncmp>
    137a:	28 2f       	mov	r18, r24
    137c:	39 2f       	mov	r19, r25
    137e:	21 15       	cp	r18, r1
    1380:	31 05       	cpc	r19, r1
    1382:	99 f4       	brne	.+38     	; 0x13aa <WaitOk+0xca>
						{
							g_wifiRxCurrentIndex = 0;
    1384:	10 92 10 05 	sts	0x0510, r1
							return -1;
    1388:	8f ef       	ldi	r24, 0xFF	; 255
    138a:	9f ef       	ldi	r25, 0xFF	; 255
    138c:	10 c0       	rjmp	.+32     	; 0x13ae <WaitOk+0xce>
				strTemp[currentIndex++] = g_wifiRxData[i];
				if (g_wifiRxData[i] == 0x0A)
				{
					if ( !firstCarrageReturnDetect )
					{
						firstCarrageReturnDetect = 1;
    138e:	dc 2c       	mov	r13, r12
		_delay_ms(10);
		
	}
}

int WaitOk() //"\r\nOK\r\n"
    1390:	ad 01       	movw	r20, r26
    1392:	46 1b       	sub	r20, r22
    1394:	57 0b       	sbc	r21, r23
	
	while(1)
	{
		if (g_wifiRxCurrentIndex)
		{
			for (i = 0; i < g_wifiRxCurrentIndex ; i++)
    1396:	2f 5f       	subi	r18, 0xFF	; 255
    1398:	3f 4f       	sbci	r19, 0xFF	; 255
    139a:	80 91 10 05 	lds	r24, 0x0510
    139e:	90 e0       	ldi	r25, 0x00	; 0
    13a0:	28 17       	cp	r18, r24
    13a2:	39 07       	cpc	r19, r25
    13a4:	0c f0       	brlt	.+2      	; 0x13a8 <WaitOk+0xc8>
    13a6:	b9 cf       	rjmp	.-142    	; 0x131a <WaitOk+0x3a>
    13a8:	c4 cf       	rjmp	.-120    	; 0x1332 <WaitOk+0x52>
						else if (!strncmp(strTemp+2,"ERROR",5)  )
						{
							g_wifiRxCurrentIndex = 0;
							return -1;
						}
						return -1;
    13aa:	8f ef       	ldi	r24, 0xFF	; 255
    13ac:	9f ef       	ldi	r25, 0xFF	; 255
				}
			}
		}
	}
	return -1;
}
    13ae:	c0 50       	subi	r28, 0x00	; 0
    13b0:	df 4f       	sbci	r29, 0xFF	; 255
    13b2:	0f b6       	in	r0, 0x3f	; 63
    13b4:	f8 94       	cli
    13b6:	de bf       	out	0x3e, r29	; 62
    13b8:	0f be       	out	0x3f, r0	; 63
    13ba:	cd bf       	out	0x3d, r28	; 61
    13bc:	df 91       	pop	r29
    13be:	cf 91       	pop	r28
    13c0:	1f 91       	pop	r17
    13c2:	0f 91       	pop	r16
    13c4:	ff 90       	pop	r15
    13c6:	ef 90       	pop	r14
    13c8:	df 90       	pop	r13
    13ca:	cf 90       	pop	r12
    13cc:	08 95       	ret

000013ce <wifiDisplayAPlist>:

int wifiDisplayAPlist()
{
	wifiprint("AT+CWLAP\r\n");
    13ce:	0f 92       	push	r0
    13d0:	0f 92       	push	r0
    13d2:	81 e3       	ldi	r24, 0x31	; 49
    13d4:	94 e0       	ldi	r25, 0x04	; 4
    13d6:	ad b7       	in	r26, 0x3d	; 61
    13d8:	be b7       	in	r27, 0x3e	; 62
    13da:	12 96       	adiw	r26, 0x02	; 2
    13dc:	9c 93       	st	X, r25
    13de:	8e 93       	st	-X, r24
    13e0:	11 97       	sbiw	r26, 0x01	; 1
    13e2:	0e 94 b6 04 	call	0x96c	; 0x96c <wifiprint>
    13e6:	8f ef       	ldi	r24, 0xFF	; 255
    13e8:	9f ef       	ldi	r25, 0xFF	; 255
    13ea:	a9 e5       	ldi	r26, 0x59	; 89
    13ec:	81 50       	subi	r24, 0x01	; 1
    13ee:	90 40       	sbci	r25, 0x00	; 0
    13f0:	a0 40       	sbci	r26, 0x00	; 0
    13f2:	e1 f7       	brne	.-8      	; 0x13ec <wifiDisplayAPlist+0x1e>
    13f4:	00 c0       	rjmp	.+0      	; 0x13f6 <wifiDisplayAPlist+0x28>
    13f6:	00 00       	nop
	_delay_ms(2000);
	return WaitOKWithPrint();
    13f8:	0f 90       	pop	r0
    13fa:	0f 90       	pop	r0
    13fc:	0e 94 b8 07 	call	0xf70	; 0xf70 <WaitOKWithPrint>
}
    1400:	08 95       	ret

00001402 <wifiConnectAP>:

uint8_t wifiConnectAP(char* ssid, char* pwd)
{
	wifiprint("AT+CWJAP_DEF=\"%s\",\"%s\"\r\n",ssid,pwd);
    1402:	00 d0       	rcall	.+0      	; 0x1404 <wifiConnectAP+0x2>
    1404:	00 d0       	rcall	.+0      	; 0x1406 <wifiConnectAP+0x4>
    1406:	ed b7       	in	r30, 0x3d	; 61
    1408:	fe b7       	in	r31, 0x3e	; 62
    140a:	31 96       	adiw	r30, 0x01	; 1
    140c:	2c e3       	ldi	r18, 0x3C	; 60
    140e:	34 e0       	ldi	r19, 0x04	; 4
    1410:	ad b7       	in	r26, 0x3d	; 61
    1412:	be b7       	in	r27, 0x3e	; 62
    1414:	12 96       	adiw	r26, 0x02	; 2
    1416:	3c 93       	st	X, r19
    1418:	2e 93       	st	-X, r18
    141a:	11 97       	sbiw	r26, 0x01	; 1
    141c:	93 83       	std	Z+3, r25	; 0x03
    141e:	82 83       	std	Z+2, r24	; 0x02
    1420:	75 83       	std	Z+5, r23	; 0x05
    1422:	64 83       	std	Z+4, r22	; 0x04
    1424:	0e 94 b6 04 	call	0x96c	; 0x96c <wifiprint>
	
	return WaitOKWithPrint();
    1428:	8d b7       	in	r24, 0x3d	; 61
    142a:	9e b7       	in	r25, 0x3e	; 62
    142c:	06 96       	adiw	r24, 0x06	; 6
    142e:	0f b6       	in	r0, 0x3f	; 63
    1430:	f8 94       	cli
    1432:	9e bf       	out	0x3e, r25	; 62
    1434:	0f be       	out	0x3f, r0	; 63
    1436:	8d bf       	out	0x3d, r24	; 61
    1438:	0e 94 b8 07 	call	0xf70	; 0xf70 <WaitOKWithPrint>
}
    143c:	08 95       	ret

0000143e <wifiModeSet>:


uint8_t wifiModeSet()
{
	wifiprint("AT+CWMODE=3\r\n");
    143e:	0f 92       	push	r0
    1440:	0f 92       	push	r0
    1442:	85 e5       	ldi	r24, 0x55	; 85
    1444:	94 e0       	ldi	r25, 0x04	; 4
    1446:	ed b7       	in	r30, 0x3d	; 61
    1448:	fe b7       	in	r31, 0x3e	; 62
    144a:	92 83       	std	Z+2, r25	; 0x02
    144c:	81 83       	std	Z+1, r24	; 0x01
    144e:	0e 94 b6 04 	call	0x96c	; 0x96c <wifiprint>
	return WaitOKWithPrint();
    1452:	0f 90       	pop	r0
    1454:	0f 90       	pop	r0
    1456:	0e 94 b8 07 	call	0xf70	; 0xf70 <WaitOKWithPrint>

}
    145a:	08 95       	ret

0000145c <wifiDisplayLocalIP>:

uint8_t wifiDisplayLocalIP()
{
	wifiprint("AT+CIPSTA_CUR?\r\n");
    145c:	0f 92       	push	r0
    145e:	0f 92       	push	r0
    1460:	83 e6       	ldi	r24, 0x63	; 99
    1462:	94 e0       	ldi	r25, 0x04	; 4
    1464:	ed b7       	in	r30, 0x3d	; 61
    1466:	fe b7       	in	r31, 0x3e	; 62
    1468:	92 83       	std	Z+2, r25	; 0x02
    146a:	81 83       	std	Z+1, r24	; 0x01
    146c:	0e 94 b6 04 	call	0x96c	; 0x96c <wifiprint>
	return WaitOKWithPrint();
    1470:	0f 90       	pop	r0
    1472:	0f 90       	pop	r0
    1474:	0e 94 b8 07 	call	0xf70	; 0xf70 <WaitOKWithPrint>
}
    1478:	08 95       	ret

0000147a <wifiEnableDHCP>:

uint8_t wifiEnableDHCP()
{
	wifiprint("AT+CWDHCP_CUR=1,1\r\n");
    147a:	0f 92       	push	r0
    147c:	0f 92       	push	r0
    147e:	84 e7       	ldi	r24, 0x74	; 116
    1480:	94 e0       	ldi	r25, 0x04	; 4
    1482:	ed b7       	in	r30, 0x3d	; 61
    1484:	fe b7       	in	r31, 0x3e	; 62
    1486:	92 83       	std	Z+2, r25	; 0x02
    1488:	81 83       	std	Z+1, r24	; 0x01
    148a:	0e 94 b6 04 	call	0x96c	; 0x96c <wifiprint>
	return WaitOKWithPrint();
    148e:	0f 90       	pop	r0
    1490:	0f 90       	pop	r0
    1492:	0e 94 b8 07 	call	0xf70	; 0xf70 <WaitOKWithPrint>

}
    1496:	08 95       	ret

00001498 <wifiConnectTCPServer>:


uint8_t wifiConnectTCPServer(char* remoteIP,uint32_t remotePort)
{
	wifiprint("AT+CIPSTART=\"TCP\",\"%s\",%u\r\n",remoteIP, remotePort);
    1498:	2d b7       	in	r18, 0x3d	; 61
    149a:	3e b7       	in	r19, 0x3e	; 62
    149c:	28 50       	subi	r18, 0x08	; 8
    149e:	30 40       	sbci	r19, 0x00	; 0
    14a0:	0f b6       	in	r0, 0x3f	; 63
    14a2:	f8 94       	cli
    14a4:	3e bf       	out	0x3e, r19	; 62
    14a6:	0f be       	out	0x3f, r0	; 63
    14a8:	2d bf       	out	0x3d, r18	; 61
    14aa:	ed b7       	in	r30, 0x3d	; 61
    14ac:	fe b7       	in	r31, 0x3e	; 62
    14ae:	31 96       	adiw	r30, 0x01	; 1
    14b0:	28 e8       	ldi	r18, 0x88	; 136
    14b2:	34 e0       	ldi	r19, 0x04	; 4
    14b4:	ad b7       	in	r26, 0x3d	; 61
    14b6:	be b7       	in	r27, 0x3e	; 62
    14b8:	12 96       	adiw	r26, 0x02	; 2
    14ba:	3c 93       	st	X, r19
    14bc:	2e 93       	st	-X, r18
    14be:	11 97       	sbiw	r26, 0x01	; 1
    14c0:	93 83       	std	Z+3, r25	; 0x03
    14c2:	82 83       	std	Z+2, r24	; 0x02
    14c4:	44 83       	std	Z+4, r20	; 0x04
    14c6:	55 83       	std	Z+5, r21	; 0x05
    14c8:	66 83       	std	Z+6, r22	; 0x06
    14ca:	77 83       	std	Z+7, r23	; 0x07
    14cc:	0e 94 b6 04 	call	0x96c	; 0x96c <wifiprint>
	
	return WaitOKWithPrint();
    14d0:	2d b7       	in	r18, 0x3d	; 61
    14d2:	3e b7       	in	r19, 0x3e	; 62
    14d4:	28 5f       	subi	r18, 0xF8	; 248
    14d6:	3f 4f       	sbci	r19, 0xFF	; 255
    14d8:	0f b6       	in	r0, 0x3f	; 63
    14da:	f8 94       	cli
    14dc:	3e bf       	out	0x3e, r19	; 62
    14de:	0f be       	out	0x3f, r0	; 63
    14e0:	2d bf       	out	0x3d, r18	; 61
    14e2:	0e 94 b8 07 	call	0xf70	; 0xf70 <WaitOKWithPrint>
}
    14e6:	08 95       	ret

000014e8 <wifiSetEventCallback>:


uint8_t wifiSetEventCallback(void* func)
{
	callbackFnc = func;
    14e8:	90 93 62 0b 	sts	0x0B62, r25
    14ec:	80 93 61 0b 	sts	0x0B61, r24
	return 0;
}
    14f0:	80 e0       	ldi	r24, 0x00	; 0
    14f2:	08 95       	ret

000014f4 <wifiSendData>:

int wifiSendData(uint8_t* buff, int dataSize)
{
    14f4:	ef 92       	push	r14
    14f6:	ff 92       	push	r15
    14f8:	0f 93       	push	r16
    14fa:	1f 93       	push	r17
    14fc:	cf 93       	push	r28
    14fe:	df 93       	push	r29
    1500:	08 2f       	mov	r16, r24
    1502:	19 2f       	mov	r17, r25
    1504:	eb 01       	movw	r28, r22
	if (0 )
	{
		debugprint("wifiSendData err. rx processing ,g_wifiRxCurrentIndex:%d\r\n",g_wifiRxCurrentIndex);
		return -1;
	}
	wifiprint("AT+CIPSEND=%d\r\n",dataSize);
    1506:	00 d0       	rcall	.+0      	; 0x1508 <wifiSendData+0x14>
    1508:	0f 92       	push	r0
    150a:	84 ea       	ldi	r24, 0xA4	; 164
    150c:	94 e0       	ldi	r25, 0x04	; 4
    150e:	ad b7       	in	r26, 0x3d	; 61
    1510:	be b7       	in	r27, 0x3e	; 62
    1512:	12 96       	adiw	r26, 0x02	; 2
    1514:	9c 93       	st	X, r25
    1516:	8e 93       	st	-X, r24
    1518:	11 97       	sbiw	r26, 0x01	; 1
    151a:	14 96       	adiw	r26, 0x04	; 4
    151c:	7c 93       	st	X, r23
    151e:	6e 93       	st	-X, r22
    1520:	13 97       	sbiw	r26, 0x03	; 3
    1522:	0e 94 b6 04 	call	0x96c	; 0x96c <wifiprint>
	if ( WaitSendReadyWithoutPrint() < 0 )
    1526:	0f 90       	pop	r0
    1528:	0f 90       	pop	r0
    152a:	0f 90       	pop	r0
    152c:	0f 90       	pop	r0
    152e:	0e 94 bc 08 	call	0x1178	; 0x1178 <WaitSendReadyWithoutPrint>
    1532:	99 23       	and	r25, r25
    1534:	2c f0       	brlt	.+10     	; 0x1540 <wifiSendData+0x4c>
		}
		#endif
		return -1;
	}
	
	for(int i = 0; i < dataSize ; i++ )
    1536:	1c 16       	cp	r1, r28
    1538:	1d 06       	cpc	r1, r29
    153a:	0c f4       	brge	.+2      	; 0x153e <wifiSendData+0x4a>
    153c:	4a c0       	rjmp	.+148    	; 0x15d2 <wifiSendData+0xde>
    153e:	57 c0       	rjmp	.+174    	; 0x15ee <wifiSendData+0xfa>
		return -1;
	}
	wifiprint("AT+CIPSEND=%d\r\n",dataSize);
	if ( WaitSendReadyWithoutPrint() < 0 )
	{
		debugprint("wifiSendData wait err -0");
    1540:	0f 92       	push	r0
    1542:	0f 92       	push	r0
    1544:	84 eb       	ldi	r24, 0xB4	; 180
    1546:	94 e0       	ldi	r25, 0x04	; 4
    1548:	ed b7       	in	r30, 0x3d	; 61
    154a:	fe b7       	in	r31, 0x3e	; 62
    154c:	92 83       	std	Z+2, r25	; 0x02
    154e:	81 83       	std	Z+1, r24	; 0x01
    1550:	0e 94 ed 03 	call	0x7da	; 0x7da <debugprint>
		#if 1 // test
		debugprint("&:");
    1554:	8d ec       	ldi	r24, 0xCD	; 205
    1556:	94 e0       	ldi	r25, 0x04	; 4
    1558:	ad b7       	in	r26, 0x3d	; 61
    155a:	be b7       	in	r27, 0x3e	; 62
    155c:	12 96       	adiw	r26, 0x02	; 2
    155e:	9c 93       	st	X, r25
    1560:	8e 93       	st	-X, r24
    1562:	11 97       	sbiw	r26, 0x01	; 1
    1564:	0e 94 ed 03 	call	0x7da	; 0x7da <debugprint>
		for(int i = 0; i <g_rxDataLen;i++)
    1568:	80 91 0b 05 	lds	r24, 0x050B
    156c:	90 91 0c 05 	lds	r25, 0x050C
    1570:	0f 90       	pop	r0
    1572:	0f 90       	pop	r0
    1574:	18 16       	cp	r1, r24
    1576:	19 06       	cpc	r1, r25
    1578:	ec f5       	brge	.+122    	; 0x15f4 <wifiSendData+0x100>
    157a:	c0 e0       	ldi	r28, 0x00	; 0
    157c:	d0 e0       	ldi	r29, 0x00	; 0
		{
			//putCh2(g_wifiRxData[i]);
			debugprint("[%02X]",g_rxDataBuff[i]);
    157e:	01 e6       	ldi	r16, 0x61	; 97
    1580:	19 e0       	ldi	r17, 0x09	; 9
    1582:	0f 2e       	mov	r0, r31
    1584:	f0 ed       	ldi	r31, 0xD0	; 208
    1586:	ef 2e       	mov	r14, r31
    1588:	f4 e0       	ldi	r31, 0x04	; 4
    158a:	ff 2e       	mov	r15, r31
    158c:	f0 2d       	mov	r31, r0
    158e:	f8 01       	movw	r30, r16
    1590:	ec 0f       	add	r30, r28
    1592:	fd 1f       	adc	r31, r29
    1594:	80 81       	ld	r24, Z
    1596:	00 d0       	rcall	.+0      	; 0x1598 <wifiSendData+0xa4>
    1598:	0f 92       	push	r0
    159a:	ed b7       	in	r30, 0x3d	; 61
    159c:	fe b7       	in	r31, 0x3e	; 62
    159e:	31 96       	adiw	r30, 0x01	; 1
    15a0:	ad b7       	in	r26, 0x3d	; 61
    15a2:	be b7       	in	r27, 0x3e	; 62
    15a4:	12 96       	adiw	r26, 0x02	; 2
    15a6:	fc 92       	st	X, r15
    15a8:	ee 92       	st	-X, r14
    15aa:	11 97       	sbiw	r26, 0x01	; 1
    15ac:	82 83       	std	Z+2, r24	; 0x02
    15ae:	13 82       	std	Z+3, r1	; 0x03
    15b0:	0e 94 ed 03 	call	0x7da	; 0x7da <debugprint>
	if ( WaitSendReadyWithoutPrint() < 0 )
	{
		debugprint("wifiSendData wait err -0");
		#if 1 // test
		debugprint("&:");
		for(int i = 0; i <g_rxDataLen;i++)
    15b4:	21 96       	adiw	r28, 0x01	; 1
    15b6:	80 91 0b 05 	lds	r24, 0x050B
    15ba:	90 91 0c 05 	lds	r25, 0x050C
    15be:	0f 90       	pop	r0
    15c0:	0f 90       	pop	r0
    15c2:	0f 90       	pop	r0
    15c4:	0f 90       	pop	r0
    15c6:	c8 17       	cp	r28, r24
    15c8:	d9 07       	cpc	r29, r25
    15ca:	0c f3       	brlt	.-62     	; 0x158e <wifiSendData+0x9a>
		{
			//putCh2(g_wifiRxData[i]);
			debugprint("[%02X]",g_rxDataBuff[i]);
		}
		#endif
		return -1;
    15cc:	8f ef       	ldi	r24, 0xFF	; 255
    15ce:	9f ef       	ldi	r25, 0xFF	; 255
    15d0:	13 c0       	rjmp	.+38     	; 0x15f8 <wifiSendData+0x104>
	if ( WaitSendReadyWithoutPrint() < 0 )
	{
		debugprint("wifiSendData wait err -0");
		#if 1 // test
		debugprint("&:");
		for(int i = 0; i <g_rxDataLen;i++)
    15d2:	e0 2e       	mov	r14, r16
    15d4:	f1 2e       	mov	r15, r17
		}
		#endif
		return -1;
	}
	
	for(int i = 0; i < dataSize ; i++ )
    15d6:	00 e0       	ldi	r16, 0x00	; 0
    15d8:	10 e0       	ldi	r17, 0x00	; 0
	{
		
		putCh0(buff[i]);
    15da:	f7 01       	movw	r30, r14
    15dc:	81 91       	ld	r24, Z+
    15de:	7f 01       	movw	r14, r30
    15e0:	0e 94 32 04 	call	0x864	; 0x864 <putCh0>
		}
		#endif
		return -1;
	}
	
	for(int i = 0; i < dataSize ; i++ )
    15e4:	0f 5f       	subi	r16, 0xFF	; 255
    15e6:	1f 4f       	sbci	r17, 0xFF	; 255
    15e8:	0c 17       	cp	r16, r28
    15ea:	1d 07       	cpc	r17, r29
    15ec:	b1 f7       	brne	.-20     	; 0x15da <wifiSendData+0xe6>
	{
		
		putCh0(buff[i]);
	}
	
	return WaitSendOKWithoutPrint();
    15ee:	0e 94 1b 09 	call	0x1236	; 0x1236 <WaitSendOKWithoutPrint>
    15f2:	02 c0       	rjmp	.+4      	; 0x15f8 <wifiSendData+0x104>
		{
			//putCh2(g_wifiRxData[i]);
			debugprint("[%02X]",g_rxDataBuff[i]);
		}
		#endif
		return -1;
    15f4:	8f ef       	ldi	r24, 0xFF	; 255
    15f6:	9f ef       	ldi	r25, 0xFF	; 255
		putCh0(buff[i]);
	}
	
	return WaitSendOKWithoutPrint();
	
}
    15f8:	df 91       	pop	r29
    15fa:	cf 91       	pop	r28
    15fc:	1f 91       	pop	r17
    15fe:	0f 91       	pop	r16
    1600:	ff 90       	pop	r15
    1602:	ef 90       	pop	r14
    1604:	08 95       	ret

00001606 <wificlearUartBuff>:

void wificlearUartBuff()
{
	g_wifiRxCurrentIndex = 0;
    1606:	10 92 10 05 	sts	0x0510, r1
	g_rxDataLen = 0;
    160a:	10 92 0c 05 	sts	0x050C, r1
    160e:	10 92 0b 05 	sts	0x050B, r1
}
    1612:	08 95       	ret

00001614 <wifiAutoConnectDisable>:

void wifiAutoConnectDisable()
{
	wifiprint("AT+CWAUTOCONN=0\r\n");
    1614:	0f 92       	push	r0
    1616:	0f 92       	push	r0
    1618:	87 ed       	ldi	r24, 0xD7	; 215
    161a:	94 e0       	ldi	r25, 0x04	; 4
    161c:	ad b7       	in	r26, 0x3d	; 61
    161e:	be b7       	in	r27, 0x3e	; 62
    1620:	12 96       	adiw	r26, 0x02	; 2
    1622:	9c 93       	st	X, r25
    1624:	8e 93       	st	-X, r24
    1626:	11 97       	sbiw	r26, 0x01	; 1
    1628:	0e 94 b6 04 	call	0x96c	; 0x96c <wifiprint>
    162c:	8f ef       	ldi	r24, 0xFF	; 255
    162e:	9f e3       	ldi	r25, 0x3F	; 63
    1630:	a2 e0       	ldi	r26, 0x02	; 2
    1632:	81 50       	subi	r24, 0x01	; 1
    1634:	90 40       	sbci	r25, 0x00	; 0
    1636:	a0 40       	sbci	r26, 0x00	; 0
    1638:	e1 f7       	brne	.-8      	; 0x1632 <wifiAutoConnectDisable+0x1e>
    163a:	00 c0       	rjmp	.+0      	; 0x163c <wifiAutoConnectDisable+0x28>
    163c:	00 00       	nop

	_delay_ms(50);
	WaitOk();
    163e:	0f 90       	pop	r0
    1640:	0f 90       	pop	r0
    1642:	0e 94 70 09 	call	0x12e0	; 0x12e0 <WaitOk>
}
    1646:	08 95       	ret

00001648 <wifiEchoDisable>:

void wifiEchoDisable()
{
	wifiprint("ATE0\r\n");
    1648:	0f 92       	push	r0
    164a:	0f 92       	push	r0
    164c:	89 ee       	ldi	r24, 0xE9	; 233
    164e:	94 e0       	ldi	r25, 0x04	; 4
    1650:	ad b7       	in	r26, 0x3d	; 61
    1652:	be b7       	in	r27, 0x3e	; 62
    1654:	12 96       	adiw	r26, 0x02	; 2
    1656:	9c 93       	st	X, r25
    1658:	8e 93       	st	-X, r24
    165a:	11 97       	sbiw	r26, 0x01	; 1
    165c:	0e 94 b6 04 	call	0x96c	; 0x96c <wifiprint>
    1660:	8f ef       	ldi	r24, 0xFF	; 255
    1662:	9f e7       	ldi	r25, 0x7F	; 127
    1664:	a4 e0       	ldi	r26, 0x04	; 4
    1666:	81 50       	subi	r24, 0x01	; 1
    1668:	90 40       	sbci	r25, 0x00	; 0
    166a:	a0 40       	sbci	r26, 0x00	; 0
    166c:	e1 f7       	brne	.-8      	; 0x1666 <wifiEchoDisable+0x1e>
    166e:	00 c0       	rjmp	.+0      	; 0x1670 <wifiEchoDisable+0x28>
    1670:	00 00       	nop
	_delay_ms(100);
	
	wificlearUartBuff();
    1672:	0f 90       	pop	r0
    1674:	0f 90       	pop	r0
    1676:	0e 94 03 0b 	call	0x1606	; 0x1606 <wificlearUartBuff>
	
}
    167a:	08 95       	ret

0000167c <FAN_Action>:
	FAN_Action(OFF);
}

void FAN_Action (unsigned int motion)
{
	if (motion == 1)			// turn on
    167c:	81 30       	cpi	r24, 0x01	; 1
    167e:	91 05       	cpc	r25, r1
    1680:	11 f4       	brne	.+4      	; 0x1686 <FAN_Action+0xa>
		FAN_PORT	|=	0x04;
    1682:	42 9a       	sbi	0x08, 2	; 8
    1684:	08 95       	ret
	else						// turn off
		FAN_PORT	&=	~(0x04);
    1686:	42 98       	cbi	0x08, 2	; 8
    1688:	08 95       	ret

0000168a <initFan>:
#include "fan.h"


void initFan(void)
{
	debugprint("Fan Initialize.\n");	
    168a:	80 ef       	ldi	r24, 0xF0	; 240
    168c:	94 e0       	ldi	r25, 0x04	; 4
    168e:	0e 94 ed 03 	call	0x7da	; 0x7da <debugprint>
	
	FAN_DDR		|=	0x0C;
    1692:	87 b1       	in	r24, 0x07	; 7
    1694:	8c 60       	ori	r24, 0x0C	; 12
    1696:	87 b9       	out	0x07, r24	; 7
	FAN_PORT	&=	~(0x0C);
    1698:	88 b1       	in	r24, 0x08	; 8
    169a:	83 7f       	andi	r24, 0xF3	; 243
    169c:	88 b9       	out	0x08, r24	; 8
	
	FAN_Action(OFF);
    169e:	80 e0       	ldi	r24, 0x00	; 0
    16a0:	90 e0       	ldi	r25, 0x00	; 0
    16a2:	0e 94 3e 0b 	call	0x167c	; 0x167c <FAN_Action>
}
    16a6:	08 95       	ret

000016a8 <pinMode>:
//	G (PORTG), H (PORTH), J (PORTJ), K (PORTK), L (PORTL),
// pin  = 0~7
// mode = 0(Input), 1(OutPut)
void pinMode(uint8_t port,uint8_t pin,uint8_t mode)
{
	if(port == A) {
    16a8:	88 23       	and	r24, r24
    16aa:	e9 f4       	brne	.+58     	; 0x16e6 <pinMode+0x3e>
		if(mode) {
    16ac:	44 23       	and	r20, r20
    16ae:	69 f0       	breq	.+26     	; 0x16ca <pinMode+0x22>
			sbit(DDRA,pin);	
    16b0:	21 b1       	in	r18, 0x01	; 1
    16b2:	81 e0       	ldi	r24, 0x01	; 1
    16b4:	90 e0       	ldi	r25, 0x00	; 0
    16b6:	ac 01       	movw	r20, r24
    16b8:	02 c0       	rjmp	.+4      	; 0x16be <pinMode+0x16>
    16ba:	44 0f       	add	r20, r20
    16bc:	55 1f       	adc	r21, r21
    16be:	6a 95       	dec	r22
    16c0:	e2 f7       	brpl	.-8      	; 0x16ba <pinMode+0x12>
    16c2:	ba 01       	movw	r22, r20
    16c4:	62 2b       	or	r22, r18
    16c6:	61 b9       	out	0x01, r22	; 1
    16c8:	08 95       	ret
		}
		else {
			cbit(DDRA,pin);
    16ca:	21 b1       	in	r18, 0x01	; 1
    16cc:	81 e0       	ldi	r24, 0x01	; 1
    16ce:	90 e0       	ldi	r25, 0x00	; 0
    16d0:	ac 01       	movw	r20, r24
    16d2:	02 c0       	rjmp	.+4      	; 0x16d8 <pinMode+0x30>
    16d4:	44 0f       	add	r20, r20
    16d6:	55 1f       	adc	r21, r21
    16d8:	6a 95       	dec	r22
    16da:	e2 f7       	brpl	.-8      	; 0x16d4 <pinMode+0x2c>
    16dc:	ba 01       	movw	r22, r20
    16de:	60 95       	com	r22
    16e0:	62 23       	and	r22, r18
    16e2:	61 b9       	out	0x01, r22	; 1
    16e4:	08 95       	ret
		}	
	}
	else if(port == B) {
    16e6:	81 30       	cpi	r24, 0x01	; 1
    16e8:	e9 f4       	brne	.+58     	; 0x1724 <pinMode+0x7c>
		if(mode) {
    16ea:	44 23       	and	r20, r20
    16ec:	69 f0       	breq	.+26     	; 0x1708 <pinMode+0x60>
			sbit(DDRB,pin);	
    16ee:	24 b1       	in	r18, 0x04	; 4
    16f0:	81 e0       	ldi	r24, 0x01	; 1
    16f2:	90 e0       	ldi	r25, 0x00	; 0
    16f4:	ac 01       	movw	r20, r24
    16f6:	02 c0       	rjmp	.+4      	; 0x16fc <pinMode+0x54>
    16f8:	44 0f       	add	r20, r20
    16fa:	55 1f       	adc	r21, r21
    16fc:	6a 95       	dec	r22
    16fe:	e2 f7       	brpl	.-8      	; 0x16f8 <pinMode+0x50>
    1700:	ba 01       	movw	r22, r20
    1702:	62 2b       	or	r22, r18
    1704:	64 b9       	out	0x04, r22	; 4
    1706:	08 95       	ret
		}
		else {
			cbit(DDRB,pin);
    1708:	24 b1       	in	r18, 0x04	; 4
    170a:	81 e0       	ldi	r24, 0x01	; 1
    170c:	90 e0       	ldi	r25, 0x00	; 0
    170e:	ac 01       	movw	r20, r24
    1710:	02 c0       	rjmp	.+4      	; 0x1716 <pinMode+0x6e>
    1712:	44 0f       	add	r20, r20
    1714:	55 1f       	adc	r21, r21
    1716:	6a 95       	dec	r22
    1718:	e2 f7       	brpl	.-8      	; 0x1712 <pinMode+0x6a>
    171a:	ba 01       	movw	r22, r20
    171c:	60 95       	com	r22
    171e:	62 23       	and	r22, r18
    1720:	64 b9       	out	0x04, r22	; 4
    1722:	08 95       	ret
		}	
	}
	else if(port == C) {
    1724:	82 30       	cpi	r24, 0x02	; 2
    1726:	e9 f4       	brne	.+58     	; 0x1762 <pinMode+0xba>
		if(mode) {
    1728:	44 23       	and	r20, r20
    172a:	69 f0       	breq	.+26     	; 0x1746 <pinMode+0x9e>
			sbit(DDRC,pin);	
    172c:	27 b1       	in	r18, 0x07	; 7
    172e:	81 e0       	ldi	r24, 0x01	; 1
    1730:	90 e0       	ldi	r25, 0x00	; 0
    1732:	ac 01       	movw	r20, r24
    1734:	02 c0       	rjmp	.+4      	; 0x173a <pinMode+0x92>
    1736:	44 0f       	add	r20, r20
    1738:	55 1f       	adc	r21, r21
    173a:	6a 95       	dec	r22
    173c:	e2 f7       	brpl	.-8      	; 0x1736 <pinMode+0x8e>
    173e:	ba 01       	movw	r22, r20
    1740:	62 2b       	or	r22, r18
    1742:	67 b9       	out	0x07, r22	; 7
    1744:	08 95       	ret
		}
		else {
			cbit(DDRC,pin);
    1746:	27 b1       	in	r18, 0x07	; 7
    1748:	81 e0       	ldi	r24, 0x01	; 1
    174a:	90 e0       	ldi	r25, 0x00	; 0
    174c:	ac 01       	movw	r20, r24
    174e:	02 c0       	rjmp	.+4      	; 0x1754 <pinMode+0xac>
    1750:	44 0f       	add	r20, r20
    1752:	55 1f       	adc	r21, r21
    1754:	6a 95       	dec	r22
    1756:	e2 f7       	brpl	.-8      	; 0x1750 <pinMode+0xa8>
    1758:	ba 01       	movw	r22, r20
    175a:	60 95       	com	r22
    175c:	62 23       	and	r22, r18
    175e:	67 b9       	out	0x07, r22	; 7
    1760:	08 95       	ret
		}
	}	
	else if(port == D) {
    1762:	83 30       	cpi	r24, 0x03	; 3
    1764:	e9 f4       	brne	.+58     	; 0x17a0 <pinMode+0xf8>
		if(mode) {
    1766:	44 23       	and	r20, r20
    1768:	69 f0       	breq	.+26     	; 0x1784 <pinMode+0xdc>
			sbit(DDRD,pin);	
    176a:	2a b1       	in	r18, 0x0a	; 10
    176c:	81 e0       	ldi	r24, 0x01	; 1
    176e:	90 e0       	ldi	r25, 0x00	; 0
    1770:	ac 01       	movw	r20, r24
    1772:	02 c0       	rjmp	.+4      	; 0x1778 <pinMode+0xd0>
    1774:	44 0f       	add	r20, r20
    1776:	55 1f       	adc	r21, r21
    1778:	6a 95       	dec	r22
    177a:	e2 f7       	brpl	.-8      	; 0x1774 <pinMode+0xcc>
    177c:	ba 01       	movw	r22, r20
    177e:	62 2b       	or	r22, r18
    1780:	6a b9       	out	0x0a, r22	; 10
    1782:	08 95       	ret
		}
		else {
			cbit(DDRD,pin);
    1784:	2a b1       	in	r18, 0x0a	; 10
    1786:	81 e0       	ldi	r24, 0x01	; 1
    1788:	90 e0       	ldi	r25, 0x00	; 0
    178a:	ac 01       	movw	r20, r24
    178c:	02 c0       	rjmp	.+4      	; 0x1792 <pinMode+0xea>
    178e:	44 0f       	add	r20, r20
    1790:	55 1f       	adc	r21, r21
    1792:	6a 95       	dec	r22
    1794:	e2 f7       	brpl	.-8      	; 0x178e <pinMode+0xe6>
    1796:	ba 01       	movw	r22, r20
    1798:	60 95       	com	r22
    179a:	62 23       	and	r22, r18
    179c:	6a b9       	out	0x0a, r22	; 10
    179e:	08 95       	ret
		}
	}
	else if(port == E) {
    17a0:	84 30       	cpi	r24, 0x04	; 4
    17a2:	e9 f4       	brne	.+58     	; 0x17de <pinMode+0x136>
		if(mode) {
    17a4:	44 23       	and	r20, r20
    17a6:	69 f0       	breq	.+26     	; 0x17c2 <pinMode+0x11a>
			sbit(DDRE,pin);	
    17a8:	2d b1       	in	r18, 0x0d	; 13
    17aa:	81 e0       	ldi	r24, 0x01	; 1
    17ac:	90 e0       	ldi	r25, 0x00	; 0
    17ae:	ac 01       	movw	r20, r24
    17b0:	02 c0       	rjmp	.+4      	; 0x17b6 <pinMode+0x10e>
    17b2:	44 0f       	add	r20, r20
    17b4:	55 1f       	adc	r21, r21
    17b6:	6a 95       	dec	r22
    17b8:	e2 f7       	brpl	.-8      	; 0x17b2 <pinMode+0x10a>
    17ba:	ba 01       	movw	r22, r20
    17bc:	62 2b       	or	r22, r18
    17be:	6d b9       	out	0x0d, r22	; 13
    17c0:	08 95       	ret
		}
		else {
			cbit(DDRE,pin);
    17c2:	2d b1       	in	r18, 0x0d	; 13
    17c4:	81 e0       	ldi	r24, 0x01	; 1
    17c6:	90 e0       	ldi	r25, 0x00	; 0
    17c8:	ac 01       	movw	r20, r24
    17ca:	02 c0       	rjmp	.+4      	; 0x17d0 <pinMode+0x128>
    17cc:	44 0f       	add	r20, r20
    17ce:	55 1f       	adc	r21, r21
    17d0:	6a 95       	dec	r22
    17d2:	e2 f7       	brpl	.-8      	; 0x17cc <pinMode+0x124>
    17d4:	ba 01       	movw	r22, r20
    17d6:	60 95       	com	r22
    17d8:	62 23       	and	r22, r18
    17da:	6d b9       	out	0x0d, r22	; 13
    17dc:	08 95       	ret
		}
	}
	else if(port == F) {
    17de:	85 30       	cpi	r24, 0x05	; 5
    17e0:	e9 f4       	brne	.+58     	; 0x181c <pinMode+0x174>
		if(mode) {
    17e2:	44 23       	and	r20, r20
    17e4:	69 f0       	breq	.+26     	; 0x1800 <pinMode+0x158>
			sbit(DDRF,pin);	
    17e6:	20 b3       	in	r18, 0x10	; 16
    17e8:	81 e0       	ldi	r24, 0x01	; 1
    17ea:	90 e0       	ldi	r25, 0x00	; 0
    17ec:	ac 01       	movw	r20, r24
    17ee:	02 c0       	rjmp	.+4      	; 0x17f4 <pinMode+0x14c>
    17f0:	44 0f       	add	r20, r20
    17f2:	55 1f       	adc	r21, r21
    17f4:	6a 95       	dec	r22
    17f6:	e2 f7       	brpl	.-8      	; 0x17f0 <pinMode+0x148>
    17f8:	ba 01       	movw	r22, r20
    17fa:	62 2b       	or	r22, r18
    17fc:	60 bb       	out	0x10, r22	; 16
    17fe:	08 95       	ret
		}
		else {
			cbit(DDRF,pin);
    1800:	20 b3       	in	r18, 0x10	; 16
    1802:	81 e0       	ldi	r24, 0x01	; 1
    1804:	90 e0       	ldi	r25, 0x00	; 0
    1806:	ac 01       	movw	r20, r24
    1808:	02 c0       	rjmp	.+4      	; 0x180e <pinMode+0x166>
    180a:	44 0f       	add	r20, r20
    180c:	55 1f       	adc	r21, r21
    180e:	6a 95       	dec	r22
    1810:	e2 f7       	brpl	.-8      	; 0x180a <pinMode+0x162>
    1812:	ba 01       	movw	r22, r20
    1814:	60 95       	com	r22
    1816:	62 23       	and	r22, r18
    1818:	60 bb       	out	0x10, r22	; 16
    181a:	08 95       	ret
		}
	}
	else if(port == G) {
    181c:	86 30       	cpi	r24, 0x06	; 6
    181e:	e9 f4       	brne	.+58     	; 0x185a <pinMode+0x1b2>
		if(mode) {
    1820:	44 23       	and	r20, r20
    1822:	69 f0       	breq	.+26     	; 0x183e <pinMode+0x196>
			sbit(DDRG,pin);	
    1824:	23 b3       	in	r18, 0x13	; 19
    1826:	81 e0       	ldi	r24, 0x01	; 1
    1828:	90 e0       	ldi	r25, 0x00	; 0
    182a:	ac 01       	movw	r20, r24
    182c:	02 c0       	rjmp	.+4      	; 0x1832 <pinMode+0x18a>
    182e:	44 0f       	add	r20, r20
    1830:	55 1f       	adc	r21, r21
    1832:	6a 95       	dec	r22
    1834:	e2 f7       	brpl	.-8      	; 0x182e <pinMode+0x186>
    1836:	ba 01       	movw	r22, r20
    1838:	62 2b       	or	r22, r18
    183a:	63 bb       	out	0x13, r22	; 19
    183c:	08 95       	ret
		}
		else {
			cbit(DDRG,pin);
    183e:	23 b3       	in	r18, 0x13	; 19
    1840:	81 e0       	ldi	r24, 0x01	; 1
    1842:	90 e0       	ldi	r25, 0x00	; 0
    1844:	ac 01       	movw	r20, r24
    1846:	02 c0       	rjmp	.+4      	; 0x184c <pinMode+0x1a4>
    1848:	44 0f       	add	r20, r20
    184a:	55 1f       	adc	r21, r21
    184c:	6a 95       	dec	r22
    184e:	e2 f7       	brpl	.-8      	; 0x1848 <pinMode+0x1a0>
    1850:	ba 01       	movw	r22, r20
    1852:	60 95       	com	r22
    1854:	62 23       	and	r22, r18
    1856:	63 bb       	out	0x13, r22	; 19
    1858:	08 95       	ret
		}
	}
	else if(port == H) {
    185a:	87 30       	cpi	r24, 0x07	; 7
    185c:	09 f5       	brne	.+66     	; 0x18a0 <pinMode+0x1f8>
		if(mode) {
    185e:	44 23       	and	r20, r20
    1860:	79 f0       	breq	.+30     	; 0x1880 <pinMode+0x1d8>
			sbit(DDRH,pin);	
    1862:	e1 e0       	ldi	r30, 0x01	; 1
    1864:	f1 e0       	ldi	r31, 0x01	; 1
    1866:	20 81       	ld	r18, Z
    1868:	81 e0       	ldi	r24, 0x01	; 1
    186a:	90 e0       	ldi	r25, 0x00	; 0
    186c:	ac 01       	movw	r20, r24
    186e:	02 c0       	rjmp	.+4      	; 0x1874 <pinMode+0x1cc>
    1870:	44 0f       	add	r20, r20
    1872:	55 1f       	adc	r21, r21
    1874:	6a 95       	dec	r22
    1876:	e2 f7       	brpl	.-8      	; 0x1870 <pinMode+0x1c8>
    1878:	ba 01       	movw	r22, r20
    187a:	62 2b       	or	r22, r18
    187c:	60 83       	st	Z, r22
    187e:	08 95       	ret
		}
		else {
			cbit(DDRH,pin);
    1880:	e1 e0       	ldi	r30, 0x01	; 1
    1882:	f1 e0       	ldi	r31, 0x01	; 1
    1884:	20 81       	ld	r18, Z
    1886:	81 e0       	ldi	r24, 0x01	; 1
    1888:	90 e0       	ldi	r25, 0x00	; 0
    188a:	ac 01       	movw	r20, r24
    188c:	02 c0       	rjmp	.+4      	; 0x1892 <pinMode+0x1ea>
    188e:	44 0f       	add	r20, r20
    1890:	55 1f       	adc	r21, r21
    1892:	6a 95       	dec	r22
    1894:	e2 f7       	brpl	.-8      	; 0x188e <pinMode+0x1e6>
    1896:	ba 01       	movw	r22, r20
    1898:	60 95       	com	r22
    189a:	62 23       	and	r22, r18
    189c:	60 83       	st	Z, r22
    189e:	08 95       	ret
		}
	}
	// PORTI is not present
	else if(port == J) {
    18a0:	89 30       	cpi	r24, 0x09	; 9
    18a2:	09 f5       	brne	.+66     	; 0x18e6 <pinMode+0x23e>
		if(mode) {
    18a4:	44 23       	and	r20, r20
    18a6:	79 f0       	breq	.+30     	; 0x18c6 <pinMode+0x21e>
			sbit(DDRJ,pin);	
    18a8:	e4 e0       	ldi	r30, 0x04	; 4
    18aa:	f1 e0       	ldi	r31, 0x01	; 1
    18ac:	20 81       	ld	r18, Z
    18ae:	81 e0       	ldi	r24, 0x01	; 1
    18b0:	90 e0       	ldi	r25, 0x00	; 0
    18b2:	ac 01       	movw	r20, r24
    18b4:	02 c0       	rjmp	.+4      	; 0x18ba <pinMode+0x212>
    18b6:	44 0f       	add	r20, r20
    18b8:	55 1f       	adc	r21, r21
    18ba:	6a 95       	dec	r22
    18bc:	e2 f7       	brpl	.-8      	; 0x18b6 <pinMode+0x20e>
    18be:	ba 01       	movw	r22, r20
    18c0:	62 2b       	or	r22, r18
    18c2:	60 83       	st	Z, r22
    18c4:	08 95       	ret
		}
		else {
			cbit(DDRJ,pin);
    18c6:	e4 e0       	ldi	r30, 0x04	; 4
    18c8:	f1 e0       	ldi	r31, 0x01	; 1
    18ca:	20 81       	ld	r18, Z
    18cc:	81 e0       	ldi	r24, 0x01	; 1
    18ce:	90 e0       	ldi	r25, 0x00	; 0
    18d0:	ac 01       	movw	r20, r24
    18d2:	02 c0       	rjmp	.+4      	; 0x18d8 <pinMode+0x230>
    18d4:	44 0f       	add	r20, r20
    18d6:	55 1f       	adc	r21, r21
    18d8:	6a 95       	dec	r22
    18da:	e2 f7       	brpl	.-8      	; 0x18d4 <pinMode+0x22c>
    18dc:	ba 01       	movw	r22, r20
    18de:	60 95       	com	r22
    18e0:	62 23       	and	r22, r18
    18e2:	60 83       	st	Z, r22
    18e4:	08 95       	ret
		}
	}
	else if(port == K) {
    18e6:	8a 30       	cpi	r24, 0x0A	; 10
    18e8:	09 f5       	brne	.+66     	; 0x192c <pinMode+0x284>
		if(mode) {
    18ea:	44 23       	and	r20, r20
    18ec:	79 f0       	breq	.+30     	; 0x190c <pinMode+0x264>
			sbit(DDRK,pin);
    18ee:	e7 e0       	ldi	r30, 0x07	; 7
    18f0:	f1 e0       	ldi	r31, 0x01	; 1
    18f2:	20 81       	ld	r18, Z
    18f4:	81 e0       	ldi	r24, 0x01	; 1
    18f6:	90 e0       	ldi	r25, 0x00	; 0
    18f8:	ac 01       	movw	r20, r24
    18fa:	02 c0       	rjmp	.+4      	; 0x1900 <pinMode+0x258>
    18fc:	44 0f       	add	r20, r20
    18fe:	55 1f       	adc	r21, r21
    1900:	6a 95       	dec	r22
    1902:	e2 f7       	brpl	.-8      	; 0x18fc <pinMode+0x254>
    1904:	ba 01       	movw	r22, r20
    1906:	62 2b       	or	r22, r18
    1908:	60 83       	st	Z, r22
    190a:	08 95       	ret
		}
		else {
			cbit(DDRK,pin);
    190c:	e7 e0       	ldi	r30, 0x07	; 7
    190e:	f1 e0       	ldi	r31, 0x01	; 1
    1910:	20 81       	ld	r18, Z
    1912:	81 e0       	ldi	r24, 0x01	; 1
    1914:	90 e0       	ldi	r25, 0x00	; 0
    1916:	ac 01       	movw	r20, r24
    1918:	02 c0       	rjmp	.+4      	; 0x191e <pinMode+0x276>
    191a:	44 0f       	add	r20, r20
    191c:	55 1f       	adc	r21, r21
    191e:	6a 95       	dec	r22
    1920:	e2 f7       	brpl	.-8      	; 0x191a <pinMode+0x272>
    1922:	ba 01       	movw	r22, r20
    1924:	60 95       	com	r22
    1926:	62 23       	and	r22, r18
    1928:	60 83       	st	Z, r22
    192a:	08 95       	ret
		}
	}
	else if(port == L) {
    192c:	8b 30       	cpi	r24, 0x0B	; 11
    192e:	01 f5       	brne	.+64     	; 0x1970 <pinMode+0x2c8>
		if(mode) {
    1930:	44 23       	and	r20, r20
    1932:	79 f0       	breq	.+30     	; 0x1952 <pinMode+0x2aa>
			sbit(DDRL,pin);
    1934:	ea e0       	ldi	r30, 0x0A	; 10
    1936:	f1 e0       	ldi	r31, 0x01	; 1
    1938:	20 81       	ld	r18, Z
    193a:	81 e0       	ldi	r24, 0x01	; 1
    193c:	90 e0       	ldi	r25, 0x00	; 0
    193e:	ac 01       	movw	r20, r24
    1940:	02 c0       	rjmp	.+4      	; 0x1946 <pinMode+0x29e>
    1942:	44 0f       	add	r20, r20
    1944:	55 1f       	adc	r21, r21
    1946:	6a 95       	dec	r22
    1948:	e2 f7       	brpl	.-8      	; 0x1942 <pinMode+0x29a>
    194a:	ba 01       	movw	r22, r20
    194c:	62 2b       	or	r22, r18
    194e:	60 83       	st	Z, r22
    1950:	08 95       	ret
		}
		else {
			cbit(DDRL,pin);
    1952:	ea e0       	ldi	r30, 0x0A	; 10
    1954:	f1 e0       	ldi	r31, 0x01	; 1
    1956:	20 81       	ld	r18, Z
    1958:	81 e0       	ldi	r24, 0x01	; 1
    195a:	90 e0       	ldi	r25, 0x00	; 0
    195c:	ac 01       	movw	r20, r24
    195e:	02 c0       	rjmp	.+4      	; 0x1964 <pinMode+0x2bc>
    1960:	44 0f       	add	r20, r20
    1962:	55 1f       	adc	r21, r21
    1964:	6a 95       	dec	r22
    1966:	e2 f7       	brpl	.-8      	; 0x1960 <pinMode+0x2b8>
    1968:	ba 01       	movw	r22, r20
    196a:	60 95       	com	r22
    196c:	62 23       	and	r22, r18
    196e:	60 83       	st	Z, r22
    1970:	08 95       	ret

00001972 <digitalWrite>:
//	G (PORTG), H (PORTH), J (PORTJ), K (PORTK), L (PORTL),
// pin  = 0~7
// signal = 0(LOW), 1(HIGH)
void digitalWrite(uint8_t port, uint8_t pin, uint8_t signal)
{
	if(port == A) {
    1972:	88 23       	and	r24, r24
    1974:	e9 f4       	brne	.+58     	; 0x19b0 <digitalWrite+0x3e>
		if(signal) {
    1976:	44 23       	and	r20, r20
    1978:	69 f0       	breq	.+26     	; 0x1994 <digitalWrite+0x22>
			sbit(PORTA,pin);
    197a:	22 b1       	in	r18, 0x02	; 2
    197c:	81 e0       	ldi	r24, 0x01	; 1
    197e:	90 e0       	ldi	r25, 0x00	; 0
    1980:	ac 01       	movw	r20, r24
    1982:	02 c0       	rjmp	.+4      	; 0x1988 <digitalWrite+0x16>
    1984:	44 0f       	add	r20, r20
    1986:	55 1f       	adc	r21, r21
    1988:	6a 95       	dec	r22
    198a:	e2 f7       	brpl	.-8      	; 0x1984 <digitalWrite+0x12>
    198c:	ba 01       	movw	r22, r20
    198e:	62 2b       	or	r22, r18
    1990:	62 b9       	out	0x02, r22	; 2
    1992:	08 95       	ret
		}
		else {
			cbit(PORTA,pin);
    1994:	22 b1       	in	r18, 0x02	; 2
    1996:	81 e0       	ldi	r24, 0x01	; 1
    1998:	90 e0       	ldi	r25, 0x00	; 0
    199a:	ac 01       	movw	r20, r24
    199c:	02 c0       	rjmp	.+4      	; 0x19a2 <digitalWrite+0x30>
    199e:	44 0f       	add	r20, r20
    19a0:	55 1f       	adc	r21, r21
    19a2:	6a 95       	dec	r22
    19a4:	e2 f7       	brpl	.-8      	; 0x199e <digitalWrite+0x2c>
    19a6:	ba 01       	movw	r22, r20
    19a8:	60 95       	com	r22
    19aa:	62 23       	and	r22, r18
    19ac:	62 b9       	out	0x02, r22	; 2
    19ae:	08 95       	ret
		}
	}
	else if(port == B) {
    19b0:	81 30       	cpi	r24, 0x01	; 1
    19b2:	e9 f4       	brne	.+58     	; 0x19ee <digitalWrite+0x7c>
		if(signal) {
    19b4:	44 23       	and	r20, r20
    19b6:	69 f0       	breq	.+26     	; 0x19d2 <digitalWrite+0x60>
			sbit(PORTB,pin);
    19b8:	25 b1       	in	r18, 0x05	; 5
    19ba:	81 e0       	ldi	r24, 0x01	; 1
    19bc:	90 e0       	ldi	r25, 0x00	; 0
    19be:	ac 01       	movw	r20, r24
    19c0:	02 c0       	rjmp	.+4      	; 0x19c6 <digitalWrite+0x54>
    19c2:	44 0f       	add	r20, r20
    19c4:	55 1f       	adc	r21, r21
    19c6:	6a 95       	dec	r22
    19c8:	e2 f7       	brpl	.-8      	; 0x19c2 <digitalWrite+0x50>
    19ca:	ba 01       	movw	r22, r20
    19cc:	62 2b       	or	r22, r18
    19ce:	65 b9       	out	0x05, r22	; 5
    19d0:	08 95       	ret
		}
		else {
			cbit(PORTB,pin);
    19d2:	25 b1       	in	r18, 0x05	; 5
    19d4:	81 e0       	ldi	r24, 0x01	; 1
    19d6:	90 e0       	ldi	r25, 0x00	; 0
    19d8:	ac 01       	movw	r20, r24
    19da:	02 c0       	rjmp	.+4      	; 0x19e0 <digitalWrite+0x6e>
    19dc:	44 0f       	add	r20, r20
    19de:	55 1f       	adc	r21, r21
    19e0:	6a 95       	dec	r22
    19e2:	e2 f7       	brpl	.-8      	; 0x19dc <digitalWrite+0x6a>
    19e4:	ba 01       	movw	r22, r20
    19e6:	60 95       	com	r22
    19e8:	62 23       	and	r22, r18
    19ea:	65 b9       	out	0x05, r22	; 5
    19ec:	08 95       	ret
		}
	}
	else if(port == C) {
    19ee:	82 30       	cpi	r24, 0x02	; 2
    19f0:	e9 f4       	brne	.+58     	; 0x1a2c <digitalWrite+0xba>
		if(signal) {
    19f2:	44 23       	and	r20, r20
    19f4:	69 f0       	breq	.+26     	; 0x1a10 <digitalWrite+0x9e>
			sbit(PORTC,pin);
    19f6:	28 b1       	in	r18, 0x08	; 8
    19f8:	81 e0       	ldi	r24, 0x01	; 1
    19fa:	90 e0       	ldi	r25, 0x00	; 0
    19fc:	ac 01       	movw	r20, r24
    19fe:	02 c0       	rjmp	.+4      	; 0x1a04 <digitalWrite+0x92>
    1a00:	44 0f       	add	r20, r20
    1a02:	55 1f       	adc	r21, r21
    1a04:	6a 95       	dec	r22
    1a06:	e2 f7       	brpl	.-8      	; 0x1a00 <digitalWrite+0x8e>
    1a08:	ba 01       	movw	r22, r20
    1a0a:	62 2b       	or	r22, r18
    1a0c:	68 b9       	out	0x08, r22	; 8
    1a0e:	08 95       	ret
		}
		else {
			cbit(PORTC,pin);
    1a10:	28 b1       	in	r18, 0x08	; 8
    1a12:	81 e0       	ldi	r24, 0x01	; 1
    1a14:	90 e0       	ldi	r25, 0x00	; 0
    1a16:	ac 01       	movw	r20, r24
    1a18:	02 c0       	rjmp	.+4      	; 0x1a1e <digitalWrite+0xac>
    1a1a:	44 0f       	add	r20, r20
    1a1c:	55 1f       	adc	r21, r21
    1a1e:	6a 95       	dec	r22
    1a20:	e2 f7       	brpl	.-8      	; 0x1a1a <digitalWrite+0xa8>
    1a22:	ba 01       	movw	r22, r20
    1a24:	60 95       	com	r22
    1a26:	62 23       	and	r22, r18
    1a28:	68 b9       	out	0x08, r22	; 8
    1a2a:	08 95       	ret
		}
	}
	else if(port == D) {
    1a2c:	83 30       	cpi	r24, 0x03	; 3
    1a2e:	e9 f4       	brne	.+58     	; 0x1a6a <digitalWrite+0xf8>
		if(signal) {
    1a30:	44 23       	and	r20, r20
    1a32:	69 f0       	breq	.+26     	; 0x1a4e <digitalWrite+0xdc>
			sbit(PORTD,pin);
    1a34:	2b b1       	in	r18, 0x0b	; 11
    1a36:	81 e0       	ldi	r24, 0x01	; 1
    1a38:	90 e0       	ldi	r25, 0x00	; 0
    1a3a:	ac 01       	movw	r20, r24
    1a3c:	02 c0       	rjmp	.+4      	; 0x1a42 <digitalWrite+0xd0>
    1a3e:	44 0f       	add	r20, r20
    1a40:	55 1f       	adc	r21, r21
    1a42:	6a 95       	dec	r22
    1a44:	e2 f7       	brpl	.-8      	; 0x1a3e <digitalWrite+0xcc>
    1a46:	ba 01       	movw	r22, r20
    1a48:	62 2b       	or	r22, r18
    1a4a:	6b b9       	out	0x0b, r22	; 11
    1a4c:	08 95       	ret
		}
		else {
			cbit(PORTD,pin);
    1a4e:	2b b1       	in	r18, 0x0b	; 11
    1a50:	81 e0       	ldi	r24, 0x01	; 1
    1a52:	90 e0       	ldi	r25, 0x00	; 0
    1a54:	ac 01       	movw	r20, r24
    1a56:	02 c0       	rjmp	.+4      	; 0x1a5c <digitalWrite+0xea>
    1a58:	44 0f       	add	r20, r20
    1a5a:	55 1f       	adc	r21, r21
    1a5c:	6a 95       	dec	r22
    1a5e:	e2 f7       	brpl	.-8      	; 0x1a58 <digitalWrite+0xe6>
    1a60:	ba 01       	movw	r22, r20
    1a62:	60 95       	com	r22
    1a64:	62 23       	and	r22, r18
    1a66:	6b b9       	out	0x0b, r22	; 11
    1a68:	08 95       	ret
		}
	}
	else if(port == E) {
    1a6a:	84 30       	cpi	r24, 0x04	; 4
    1a6c:	e9 f4       	brne	.+58     	; 0x1aa8 <digitalWrite+0x136>
		if(signal) {
    1a6e:	44 23       	and	r20, r20
    1a70:	69 f0       	breq	.+26     	; 0x1a8c <digitalWrite+0x11a>
			sbit(PORTE,pin);
    1a72:	2e b1       	in	r18, 0x0e	; 14
    1a74:	81 e0       	ldi	r24, 0x01	; 1
    1a76:	90 e0       	ldi	r25, 0x00	; 0
    1a78:	ac 01       	movw	r20, r24
    1a7a:	02 c0       	rjmp	.+4      	; 0x1a80 <digitalWrite+0x10e>
    1a7c:	44 0f       	add	r20, r20
    1a7e:	55 1f       	adc	r21, r21
    1a80:	6a 95       	dec	r22
    1a82:	e2 f7       	brpl	.-8      	; 0x1a7c <digitalWrite+0x10a>
    1a84:	ba 01       	movw	r22, r20
    1a86:	62 2b       	or	r22, r18
    1a88:	6e b9       	out	0x0e, r22	; 14
    1a8a:	08 95       	ret
		}
		else {
			cbit(PORTE,pin);
    1a8c:	2e b1       	in	r18, 0x0e	; 14
    1a8e:	81 e0       	ldi	r24, 0x01	; 1
    1a90:	90 e0       	ldi	r25, 0x00	; 0
    1a92:	ac 01       	movw	r20, r24
    1a94:	02 c0       	rjmp	.+4      	; 0x1a9a <digitalWrite+0x128>
    1a96:	44 0f       	add	r20, r20
    1a98:	55 1f       	adc	r21, r21
    1a9a:	6a 95       	dec	r22
    1a9c:	e2 f7       	brpl	.-8      	; 0x1a96 <digitalWrite+0x124>
    1a9e:	ba 01       	movw	r22, r20
    1aa0:	60 95       	com	r22
    1aa2:	62 23       	and	r22, r18
    1aa4:	6e b9       	out	0x0e, r22	; 14
    1aa6:	08 95       	ret
		}
	}
	else if(port == F) {
    1aa8:	85 30       	cpi	r24, 0x05	; 5
    1aaa:	e9 f4       	brne	.+58     	; 0x1ae6 <digitalWrite+0x174>
		if(signal) {
    1aac:	44 23       	and	r20, r20
    1aae:	69 f0       	breq	.+26     	; 0x1aca <digitalWrite+0x158>
			sbit(PORTF,pin);
    1ab0:	21 b3       	in	r18, 0x11	; 17
    1ab2:	81 e0       	ldi	r24, 0x01	; 1
    1ab4:	90 e0       	ldi	r25, 0x00	; 0
    1ab6:	ac 01       	movw	r20, r24
    1ab8:	02 c0       	rjmp	.+4      	; 0x1abe <digitalWrite+0x14c>
    1aba:	44 0f       	add	r20, r20
    1abc:	55 1f       	adc	r21, r21
    1abe:	6a 95       	dec	r22
    1ac0:	e2 f7       	brpl	.-8      	; 0x1aba <digitalWrite+0x148>
    1ac2:	ba 01       	movw	r22, r20
    1ac4:	62 2b       	or	r22, r18
    1ac6:	61 bb       	out	0x11, r22	; 17
    1ac8:	08 95       	ret
		}
		else {
			cbit(PORTF,pin);
    1aca:	21 b3       	in	r18, 0x11	; 17
    1acc:	81 e0       	ldi	r24, 0x01	; 1
    1ace:	90 e0       	ldi	r25, 0x00	; 0
    1ad0:	ac 01       	movw	r20, r24
    1ad2:	02 c0       	rjmp	.+4      	; 0x1ad8 <digitalWrite+0x166>
    1ad4:	44 0f       	add	r20, r20
    1ad6:	55 1f       	adc	r21, r21
    1ad8:	6a 95       	dec	r22
    1ada:	e2 f7       	brpl	.-8      	; 0x1ad4 <digitalWrite+0x162>
    1adc:	ba 01       	movw	r22, r20
    1ade:	60 95       	com	r22
    1ae0:	62 23       	and	r22, r18
    1ae2:	61 bb       	out	0x11, r22	; 17
    1ae4:	08 95       	ret
		}
	}
	else if(port == G) {
    1ae6:	86 30       	cpi	r24, 0x06	; 6
    1ae8:	e9 f4       	brne	.+58     	; 0x1b24 <digitalWrite+0x1b2>
		if(signal) {
    1aea:	44 23       	and	r20, r20
    1aec:	69 f0       	breq	.+26     	; 0x1b08 <digitalWrite+0x196>
			sbit(PORTG,pin);
    1aee:	24 b3       	in	r18, 0x14	; 20
    1af0:	81 e0       	ldi	r24, 0x01	; 1
    1af2:	90 e0       	ldi	r25, 0x00	; 0
    1af4:	ac 01       	movw	r20, r24
    1af6:	02 c0       	rjmp	.+4      	; 0x1afc <digitalWrite+0x18a>
    1af8:	44 0f       	add	r20, r20
    1afa:	55 1f       	adc	r21, r21
    1afc:	6a 95       	dec	r22
    1afe:	e2 f7       	brpl	.-8      	; 0x1af8 <digitalWrite+0x186>
    1b00:	ba 01       	movw	r22, r20
    1b02:	62 2b       	or	r22, r18
    1b04:	64 bb       	out	0x14, r22	; 20
    1b06:	08 95       	ret
		}
		else {
			cbit(PORTG,pin);
    1b08:	24 b3       	in	r18, 0x14	; 20
    1b0a:	81 e0       	ldi	r24, 0x01	; 1
    1b0c:	90 e0       	ldi	r25, 0x00	; 0
    1b0e:	ac 01       	movw	r20, r24
    1b10:	02 c0       	rjmp	.+4      	; 0x1b16 <digitalWrite+0x1a4>
    1b12:	44 0f       	add	r20, r20
    1b14:	55 1f       	adc	r21, r21
    1b16:	6a 95       	dec	r22
    1b18:	e2 f7       	brpl	.-8      	; 0x1b12 <digitalWrite+0x1a0>
    1b1a:	ba 01       	movw	r22, r20
    1b1c:	60 95       	com	r22
    1b1e:	62 23       	and	r22, r18
    1b20:	64 bb       	out	0x14, r22	; 20
    1b22:	08 95       	ret
		}
	}
	else if(port == H) {
    1b24:	87 30       	cpi	r24, 0x07	; 7
    1b26:	09 f5       	brne	.+66     	; 0x1b6a <digitalWrite+0x1f8>
		if(signal) {
    1b28:	44 23       	and	r20, r20
    1b2a:	79 f0       	breq	.+30     	; 0x1b4a <digitalWrite+0x1d8>
			sbit(PORTH,pin);
    1b2c:	e2 e0       	ldi	r30, 0x02	; 2
    1b2e:	f1 e0       	ldi	r31, 0x01	; 1
    1b30:	20 81       	ld	r18, Z
    1b32:	81 e0       	ldi	r24, 0x01	; 1
    1b34:	90 e0       	ldi	r25, 0x00	; 0
    1b36:	ac 01       	movw	r20, r24
    1b38:	02 c0       	rjmp	.+4      	; 0x1b3e <digitalWrite+0x1cc>
    1b3a:	44 0f       	add	r20, r20
    1b3c:	55 1f       	adc	r21, r21
    1b3e:	6a 95       	dec	r22
    1b40:	e2 f7       	brpl	.-8      	; 0x1b3a <digitalWrite+0x1c8>
    1b42:	ba 01       	movw	r22, r20
    1b44:	62 2b       	or	r22, r18
    1b46:	60 83       	st	Z, r22
    1b48:	08 95       	ret
		}
		else {
			cbit(PORTH,pin);
    1b4a:	e2 e0       	ldi	r30, 0x02	; 2
    1b4c:	f1 e0       	ldi	r31, 0x01	; 1
    1b4e:	20 81       	ld	r18, Z
    1b50:	81 e0       	ldi	r24, 0x01	; 1
    1b52:	90 e0       	ldi	r25, 0x00	; 0
    1b54:	ac 01       	movw	r20, r24
    1b56:	02 c0       	rjmp	.+4      	; 0x1b5c <digitalWrite+0x1ea>
    1b58:	44 0f       	add	r20, r20
    1b5a:	55 1f       	adc	r21, r21
    1b5c:	6a 95       	dec	r22
    1b5e:	e2 f7       	brpl	.-8      	; 0x1b58 <digitalWrite+0x1e6>
    1b60:	ba 01       	movw	r22, r20
    1b62:	60 95       	com	r22
    1b64:	62 23       	and	r22, r18
    1b66:	60 83       	st	Z, r22
    1b68:	08 95       	ret
		}
	}
	// PORTI is not present
	else if(port == J) {
    1b6a:	89 30       	cpi	r24, 0x09	; 9
    1b6c:	09 f5       	brne	.+66     	; 0x1bb0 <digitalWrite+0x23e>
		if(signal) {
    1b6e:	44 23       	and	r20, r20
    1b70:	79 f0       	breq	.+30     	; 0x1b90 <digitalWrite+0x21e>
			sbit(PORTJ,pin);
    1b72:	e5 e0       	ldi	r30, 0x05	; 5
    1b74:	f1 e0       	ldi	r31, 0x01	; 1
    1b76:	20 81       	ld	r18, Z
    1b78:	81 e0       	ldi	r24, 0x01	; 1
    1b7a:	90 e0       	ldi	r25, 0x00	; 0
    1b7c:	ac 01       	movw	r20, r24
    1b7e:	02 c0       	rjmp	.+4      	; 0x1b84 <digitalWrite+0x212>
    1b80:	44 0f       	add	r20, r20
    1b82:	55 1f       	adc	r21, r21
    1b84:	6a 95       	dec	r22
    1b86:	e2 f7       	brpl	.-8      	; 0x1b80 <digitalWrite+0x20e>
    1b88:	ba 01       	movw	r22, r20
    1b8a:	62 2b       	or	r22, r18
    1b8c:	60 83       	st	Z, r22
    1b8e:	08 95       	ret
		}
		else {
			cbit(PORTJ,pin);
    1b90:	e5 e0       	ldi	r30, 0x05	; 5
    1b92:	f1 e0       	ldi	r31, 0x01	; 1
    1b94:	20 81       	ld	r18, Z
    1b96:	81 e0       	ldi	r24, 0x01	; 1
    1b98:	90 e0       	ldi	r25, 0x00	; 0
    1b9a:	ac 01       	movw	r20, r24
    1b9c:	02 c0       	rjmp	.+4      	; 0x1ba2 <digitalWrite+0x230>
    1b9e:	44 0f       	add	r20, r20
    1ba0:	55 1f       	adc	r21, r21
    1ba2:	6a 95       	dec	r22
    1ba4:	e2 f7       	brpl	.-8      	; 0x1b9e <digitalWrite+0x22c>
    1ba6:	ba 01       	movw	r22, r20
    1ba8:	60 95       	com	r22
    1baa:	62 23       	and	r22, r18
    1bac:	60 83       	st	Z, r22
    1bae:	08 95       	ret
		}
	}
	else if(port == K) {
    1bb0:	8a 30       	cpi	r24, 0x0A	; 10
    1bb2:	09 f5       	brne	.+66     	; 0x1bf6 <digitalWrite+0x284>
		if(signal) {
    1bb4:	44 23       	and	r20, r20
    1bb6:	79 f0       	breq	.+30     	; 0x1bd6 <digitalWrite+0x264>
			sbit(PORTK,pin);
    1bb8:	e8 e0       	ldi	r30, 0x08	; 8
    1bba:	f1 e0       	ldi	r31, 0x01	; 1
    1bbc:	20 81       	ld	r18, Z
    1bbe:	81 e0       	ldi	r24, 0x01	; 1
    1bc0:	90 e0       	ldi	r25, 0x00	; 0
    1bc2:	ac 01       	movw	r20, r24
    1bc4:	02 c0       	rjmp	.+4      	; 0x1bca <digitalWrite+0x258>
    1bc6:	44 0f       	add	r20, r20
    1bc8:	55 1f       	adc	r21, r21
    1bca:	6a 95       	dec	r22
    1bcc:	e2 f7       	brpl	.-8      	; 0x1bc6 <digitalWrite+0x254>
    1bce:	ba 01       	movw	r22, r20
    1bd0:	62 2b       	or	r22, r18
    1bd2:	60 83       	st	Z, r22
    1bd4:	08 95       	ret
		}
		else {
			cbit(PORTK,pin);
    1bd6:	e8 e0       	ldi	r30, 0x08	; 8
    1bd8:	f1 e0       	ldi	r31, 0x01	; 1
    1bda:	20 81       	ld	r18, Z
    1bdc:	81 e0       	ldi	r24, 0x01	; 1
    1bde:	90 e0       	ldi	r25, 0x00	; 0
    1be0:	ac 01       	movw	r20, r24
    1be2:	02 c0       	rjmp	.+4      	; 0x1be8 <digitalWrite+0x276>
    1be4:	44 0f       	add	r20, r20
    1be6:	55 1f       	adc	r21, r21
    1be8:	6a 95       	dec	r22
    1bea:	e2 f7       	brpl	.-8      	; 0x1be4 <digitalWrite+0x272>
    1bec:	ba 01       	movw	r22, r20
    1bee:	60 95       	com	r22
    1bf0:	62 23       	and	r22, r18
    1bf2:	60 83       	st	Z, r22
    1bf4:	08 95       	ret
		}
	}
	else if(port == L) {
    1bf6:	8b 30       	cpi	r24, 0x0B	; 11
    1bf8:	01 f5       	brne	.+64     	; 0x1c3a <digitalWrite+0x2c8>
		if(signal) {
    1bfa:	44 23       	and	r20, r20
    1bfc:	79 f0       	breq	.+30     	; 0x1c1c <digitalWrite+0x2aa>
			sbit(PORTL,pin);
    1bfe:	eb e0       	ldi	r30, 0x0B	; 11
    1c00:	f1 e0       	ldi	r31, 0x01	; 1
    1c02:	20 81       	ld	r18, Z
    1c04:	81 e0       	ldi	r24, 0x01	; 1
    1c06:	90 e0       	ldi	r25, 0x00	; 0
    1c08:	ac 01       	movw	r20, r24
    1c0a:	02 c0       	rjmp	.+4      	; 0x1c10 <digitalWrite+0x29e>
    1c0c:	44 0f       	add	r20, r20
    1c0e:	55 1f       	adc	r21, r21
    1c10:	6a 95       	dec	r22
    1c12:	e2 f7       	brpl	.-8      	; 0x1c0c <digitalWrite+0x29a>
    1c14:	ba 01       	movw	r22, r20
    1c16:	62 2b       	or	r22, r18
    1c18:	60 83       	st	Z, r22
    1c1a:	08 95       	ret
		}
		else {
			cbit(PORTL,pin);
    1c1c:	eb e0       	ldi	r30, 0x0B	; 11
    1c1e:	f1 e0       	ldi	r31, 0x01	; 1
    1c20:	20 81       	ld	r18, Z
    1c22:	81 e0       	ldi	r24, 0x01	; 1
    1c24:	90 e0       	ldi	r25, 0x00	; 0
    1c26:	ac 01       	movw	r20, r24
    1c28:	02 c0       	rjmp	.+4      	; 0x1c2e <digitalWrite+0x2bc>
    1c2a:	44 0f       	add	r20, r20
    1c2c:	55 1f       	adc	r21, r21
    1c2e:	6a 95       	dec	r22
    1c30:	e2 f7       	brpl	.-8      	; 0x1c2a <digitalWrite+0x2b8>
    1c32:	ba 01       	movw	r22, r20
    1c34:	60 95       	com	r22
    1c36:	62 23       	and	r22, r18
    1c38:	60 83       	st	Z, r22
    1c3a:	08 95       	ret

00001c3c <digitalRead>:
//	G (PORTG), H (PORTH), J (PORTJ), K (PORTK), L (PORTL),
// pin  = 0~7
int digitalRead(uint8_t port, uint8_t pin)
{
	unsigned char ucReadValue;
	if(port == A)
    1c3c:	88 23       	and	r24, r24
    1c3e:	59 f4       	brne	.+22     	; 0x1c56 <digitalRead+0x1a>
	{
		ucReadValue = (PINA>>pin)&0x01;
    1c40:	20 b1       	in	r18, 0x00	; 0
    1c42:	30 e0       	ldi	r19, 0x00	; 0
    1c44:	c9 01       	movw	r24, r18
    1c46:	02 c0       	rjmp	.+4      	; 0x1c4c <digitalRead+0x10>
    1c48:	95 95       	asr	r25
    1c4a:	87 95       	ror	r24
    1c4c:	6a 95       	dec	r22
    1c4e:	e2 f7       	brpl	.-8      	; 0x1c48 <digitalRead+0xc>
    1c50:	98 2f       	mov	r25, r24
    1c52:	91 70       	andi	r25, 0x01	; 1
    1c54:	7b c0       	rjmp	.+246    	; 0x1d4c <digitalRead+0x110>
	}
	else if(port == B)
    1c56:	81 30       	cpi	r24, 0x01	; 1
    1c58:	59 f4       	brne	.+22     	; 0x1c70 <digitalRead+0x34>
	{
		ucReadValue = (PINB>>pin)&0x01;
    1c5a:	23 b1       	in	r18, 0x03	; 3
    1c5c:	30 e0       	ldi	r19, 0x00	; 0
    1c5e:	c9 01       	movw	r24, r18
    1c60:	02 c0       	rjmp	.+4      	; 0x1c66 <digitalRead+0x2a>
    1c62:	95 95       	asr	r25
    1c64:	87 95       	ror	r24
    1c66:	6a 95       	dec	r22
    1c68:	e2 f7       	brpl	.-8      	; 0x1c62 <digitalRead+0x26>
    1c6a:	98 2f       	mov	r25, r24
    1c6c:	91 70       	andi	r25, 0x01	; 1
    1c6e:	6e c0       	rjmp	.+220    	; 0x1d4c <digitalRead+0x110>
	}
	else if(port == C)
    1c70:	82 30       	cpi	r24, 0x02	; 2
    1c72:	59 f4       	brne	.+22     	; 0x1c8a <digitalRead+0x4e>
	{
		ucReadValue = (PINC>>pin)&0x01;
    1c74:	26 b1       	in	r18, 0x06	; 6
    1c76:	30 e0       	ldi	r19, 0x00	; 0
    1c78:	c9 01       	movw	r24, r18
    1c7a:	02 c0       	rjmp	.+4      	; 0x1c80 <digitalRead+0x44>
    1c7c:	95 95       	asr	r25
    1c7e:	87 95       	ror	r24
    1c80:	6a 95       	dec	r22
    1c82:	e2 f7       	brpl	.-8      	; 0x1c7c <digitalRead+0x40>
    1c84:	98 2f       	mov	r25, r24
    1c86:	91 70       	andi	r25, 0x01	; 1
    1c88:	61 c0       	rjmp	.+194    	; 0x1d4c <digitalRead+0x110>
	}
	else if(port == D)
    1c8a:	83 30       	cpi	r24, 0x03	; 3
    1c8c:	39 f4       	brne	.+14     	; 0x1c9c <digitalRead+0x60>
	{
		ucReadValue = (PIND>pin)&0x01;
    1c8e:	89 b1       	in	r24, 0x09	; 9
    1c90:	91 e0       	ldi	r25, 0x01	; 1
    1c92:	68 17       	cp	r22, r24
    1c94:	08 f4       	brcc	.+2      	; 0x1c98 <digitalRead+0x5c>
    1c96:	5a c0       	rjmp	.+180    	; 0x1d4c <digitalRead+0x110>
    1c98:	90 e0       	ldi	r25, 0x00	; 0
    1c9a:	58 c0       	rjmp	.+176    	; 0x1d4c <digitalRead+0x110>
	}
	else if(port == E)
    1c9c:	84 30       	cpi	r24, 0x04	; 4
    1c9e:	59 f4       	brne	.+22     	; 0x1cb6 <digitalRead+0x7a>
	{
		ucReadValue = (PINE>>pin)&0x01;
    1ca0:	2c b1       	in	r18, 0x0c	; 12
    1ca2:	30 e0       	ldi	r19, 0x00	; 0
    1ca4:	c9 01       	movw	r24, r18
    1ca6:	02 c0       	rjmp	.+4      	; 0x1cac <digitalRead+0x70>
    1ca8:	95 95       	asr	r25
    1caa:	87 95       	ror	r24
    1cac:	6a 95       	dec	r22
    1cae:	e2 f7       	brpl	.-8      	; 0x1ca8 <digitalRead+0x6c>
    1cb0:	98 2f       	mov	r25, r24
    1cb2:	91 70       	andi	r25, 0x01	; 1
    1cb4:	4b c0       	rjmp	.+150    	; 0x1d4c <digitalRead+0x110>
	}
	else if(port == F)
    1cb6:	85 30       	cpi	r24, 0x05	; 5
    1cb8:	51 f4       	brne	.+20     	; 0x1cce <digitalRead+0x92>
	{
		ucReadValue = (PINF>>pin)&0x01;
    1cba:	8f b1       	in	r24, 0x0f	; 15
    1cbc:	90 e0       	ldi	r25, 0x00	; 0
    1cbe:	02 c0       	rjmp	.+4      	; 0x1cc4 <digitalRead+0x88>
    1cc0:	95 95       	asr	r25
    1cc2:	87 95       	ror	r24
    1cc4:	6a 95       	dec	r22
    1cc6:	e2 f7       	brpl	.-8      	; 0x1cc0 <digitalRead+0x84>
    1cc8:	98 2f       	mov	r25, r24
    1cca:	91 70       	andi	r25, 0x01	; 1
    1ccc:	3f c0       	rjmp	.+126    	; 0x1d4c <digitalRead+0x110>
	}
	else if(port == G)
    1cce:	86 30       	cpi	r24, 0x06	; 6
    1cd0:	51 f4       	brne	.+20     	; 0x1ce6 <digitalRead+0xaa>
	{
		ucReadValue = (PING>>pin)&0x01;
    1cd2:	82 b3       	in	r24, 0x12	; 18
    1cd4:	90 e0       	ldi	r25, 0x00	; 0
    1cd6:	02 c0       	rjmp	.+4      	; 0x1cdc <digitalRead+0xa0>
    1cd8:	95 95       	asr	r25
    1cda:	87 95       	ror	r24
    1cdc:	6a 95       	dec	r22
    1cde:	e2 f7       	brpl	.-8      	; 0x1cd8 <digitalRead+0x9c>
    1ce0:	98 2f       	mov	r25, r24
    1ce2:	91 70       	andi	r25, 0x01	; 1
    1ce4:	33 c0       	rjmp	.+102    	; 0x1d4c <digitalRead+0x110>
	}
	else if(port == H)
    1ce6:	87 30       	cpi	r24, 0x07	; 7
    1ce8:	59 f4       	brne	.+22     	; 0x1d00 <digitalRead+0xc4>
	{
		ucReadValue = (PINH>>pin)&0x01;
    1cea:	80 91 00 01 	lds	r24, 0x0100
    1cee:	90 e0       	ldi	r25, 0x00	; 0
    1cf0:	02 c0       	rjmp	.+4      	; 0x1cf6 <digitalRead+0xba>
    1cf2:	95 95       	asr	r25
    1cf4:	87 95       	ror	r24
    1cf6:	6a 95       	dec	r22
    1cf8:	e2 f7       	brpl	.-8      	; 0x1cf2 <digitalRead+0xb6>
    1cfa:	98 2f       	mov	r25, r24
    1cfc:	91 70       	andi	r25, 0x01	; 1
    1cfe:	26 c0       	rjmp	.+76     	; 0x1d4c <digitalRead+0x110>
	}
	// PORTI is not present
	else if(port == J)
    1d00:	89 30       	cpi	r24, 0x09	; 9
    1d02:	59 f4       	brne	.+22     	; 0x1d1a <digitalRead+0xde>
	{
		ucReadValue = (PINJ>>pin)&0x01;
    1d04:	80 91 03 01 	lds	r24, 0x0103
    1d08:	90 e0       	ldi	r25, 0x00	; 0
    1d0a:	02 c0       	rjmp	.+4      	; 0x1d10 <digitalRead+0xd4>
    1d0c:	95 95       	asr	r25
    1d0e:	87 95       	ror	r24
    1d10:	6a 95       	dec	r22
    1d12:	e2 f7       	brpl	.-8      	; 0x1d0c <digitalRead+0xd0>
    1d14:	98 2f       	mov	r25, r24
    1d16:	91 70       	andi	r25, 0x01	; 1
    1d18:	19 c0       	rjmp	.+50     	; 0x1d4c <digitalRead+0x110>
	}
	else if(port == K)
    1d1a:	8a 30       	cpi	r24, 0x0A	; 10
    1d1c:	59 f4       	brne	.+22     	; 0x1d34 <digitalRead+0xf8>
	{
		ucReadValue = (PINK>>pin)&0x01;
    1d1e:	80 91 06 01 	lds	r24, 0x0106
    1d22:	90 e0       	ldi	r25, 0x00	; 0
    1d24:	02 c0       	rjmp	.+4      	; 0x1d2a <digitalRead+0xee>
    1d26:	95 95       	asr	r25
    1d28:	87 95       	ror	r24
    1d2a:	6a 95       	dec	r22
    1d2c:	e2 f7       	brpl	.-8      	; 0x1d26 <digitalRead+0xea>
    1d2e:	98 2f       	mov	r25, r24
    1d30:	91 70       	andi	r25, 0x01	; 1
    1d32:	0c c0       	rjmp	.+24     	; 0x1d4c <digitalRead+0x110>
	}
	else if(port == L)
    1d34:	8b 30       	cpi	r24, 0x0B	; 11
    1d36:	51 f4       	brne	.+20     	; 0x1d4c <digitalRead+0x110>
	{
		ucReadValue = (PINL>>pin)&0x01;
    1d38:	80 91 09 01 	lds	r24, 0x0109
    1d3c:	90 e0       	ldi	r25, 0x00	; 0
    1d3e:	02 c0       	rjmp	.+4      	; 0x1d44 <digitalRead+0x108>
    1d40:	95 95       	asr	r25
    1d42:	87 95       	ror	r24
    1d44:	6a 95       	dec	r22
    1d46:	e2 f7       	brpl	.-8      	; 0x1d40 <digitalRead+0x104>
    1d48:	98 2f       	mov	r25, r24
    1d4a:	91 70       	andi	r25, 0x01	; 1
	}
	
	return ucReadValue;
}
    1d4c:	89 2f       	mov	r24, r25
    1d4e:	90 e0       	ldi	r25, 0x00	; 0
    1d50:	08 95       	ret

00001d52 <createPktHandle>:
volatile StProtoPkt stPktArr[MAX_HANDLE_NUM];
volatile uint32_t  currentHandlesize = 0; 

handler_id createPktHandle(uint32_t domainId,uint32_t cont_id, uint32_t obj_id, char* strObjDes, unsigned char obj_type,unsigned char entity_num, unsigned char entity_id_1, char* entity_sort_1,
				unsigned char entity_id_2, char* entity_sort_2)
{
    1d52:	2f 92       	push	r2
    1d54:	3f 92       	push	r3
    1d56:	4f 92       	push	r4
    1d58:	5f 92       	push	r5
    1d5a:	6f 92       	push	r6
    1d5c:	7f 92       	push	r7
    1d5e:	8f 92       	push	r8
    1d60:	af 92       	push	r10
    1d62:	cf 92       	push	r12
    1d64:	df 92       	push	r13
    1d66:	ef 92       	push	r14
    1d68:	ff 92       	push	r15
    1d6a:	0f 93       	push	r16
    1d6c:	1f 93       	push	r17
    1d6e:	cf 93       	push	r28
    1d70:	df 93       	push	r29
    1d72:	00 d0       	rcall	.+0      	; 0x1d74 <createPktHandle+0x22>
    1d74:	0f 92       	push	r0
    1d76:	cd b7       	in	r28, 0x3d	; 61
    1d78:	de b7       	in	r29, 0x3e	; 62
    1d7a:	2b 01       	movw	r4, r22
    1d7c:	3c 01       	movw	r6, r24
    1d7e:	ba 01       	movw	r22, r20
    1d80:	a9 01       	movw	r20, r18
	if ( currentHandlesize >= MAX_HANDLE_NUM)
    1d82:	80 91 11 05 	lds	r24, 0x0511
    1d86:	90 91 12 05 	lds	r25, 0x0512
    1d8a:	a0 91 13 05 	lds	r26, 0x0513
    1d8e:	b0 91 14 05 	lds	r27, 0x0514
    1d92:	88 30       	cpi	r24, 0x08	; 8
    1d94:	91 05       	cpc	r25, r1
    1d96:	a1 05       	cpc	r26, r1
    1d98:	b1 05       	cpc	r27, r1
    1d9a:	08 f0       	brcs	.+2      	; 0x1d9e <createPktHandle+0x4c>
    1d9c:	a2 c1       	rjmp	.+836    	; 0x20e2 <createPktHandle+0x390>
		return -1;
	
	uint32_t temId = 	currentHandlesize;
    1d9e:	80 91 11 05 	lds	r24, 0x0511
    1da2:	90 91 12 05 	lds	r25, 0x0512
    1da6:	a0 91 13 05 	lds	r26, 0x0513
    1daa:	b0 91 14 05 	lds	r27, 0x0514
    1dae:	89 83       	std	Y+1, r24	; 0x01
    1db0:	9a 83       	std	Y+2, r25	; 0x02
    1db2:	ab 83       	std	Y+3, r26	; 0x03
    1db4:	bc 83       	std	Y+4, r27	; 0x04
	
	stPktArr[temId].STX[0] = 0xfd;
    1db6:	89 81       	ldd	r24, Y+1	; 0x01
    1db8:	9a 81       	ldd	r25, Y+2	; 0x02
    1dba:	0f 2e       	mov	r0, r31
    1dbc:	fa e4       	ldi	r31, 0x4A	; 74
    1dbe:	2f 2e       	mov	r2, r31
    1dc0:	33 24       	eor	r3, r3
    1dc2:	f0 2d       	mov	r31, r0
    1dc4:	82 9d       	mul	r24, r2
    1dc6:	90 01       	movw	r18, r0
    1dc8:	83 9d       	mul	r24, r3
    1dca:	30 0d       	add	r19, r0
    1dcc:	92 9d       	mul	r25, r2
    1dce:	30 0d       	add	r19, r0
    1dd0:	11 24       	eor	r1, r1
    1dd2:	f9 01       	movw	r30, r18
    1dd4:	ed 59       	subi	r30, 0x9D	; 157
    1dd6:	f4 4f       	sbci	r31, 0xF4	; 244
    1dd8:	8d ef       	ldi	r24, 0xFD	; 253
    1dda:	80 83       	st	Z, r24
	stPktArr[temId].STX[1] = 0xfe;
    1ddc:	8e ef       	ldi	r24, 0xFE	; 254
    1dde:	81 83       	std	Z+1, r24	; 0x01
	
	stPktArr[temId].cmd = CMD_OBJ_UPDATE;
    1de0:	80 e1       	ldi	r24, 0x10	; 16
    1de2:	86 83       	std	Z+6, r24	; 0x06
	stPktArr[temId].pkt_len = 0x43;
    1de4:	83 e4       	ldi	r24, 0x43	; 67
    1de6:	90 e0       	ldi	r25, 0x00	; 0
    1de8:	a0 e0       	ldi	r26, 0x00	; 0
    1dea:	b0 e0       	ldi	r27, 0x00	; 0
    1dec:	82 83       	std	Z+2, r24	; 0x02
    1dee:	93 83       	std	Z+3, r25	; 0x03
    1df0:	a4 83       	std	Z+4, r26	; 0x04
    1df2:	b5 83       	std	Z+5, r27	; 0x05
	stPktArr[temId].domain_id = domainId;
    1df4:	47 a2       	lds	r20, 0x97
    1df6:	50 a6       	lds	r21, 0xb0
    1df8:	61 a6       	lds	r22, 0xb1
    1dfa:	72 a6       	lds	r23, 0xb2
	
	stPktArr[temId].cont_id = cont_id;
    1dfc:	43 87       	std	Z+11, r20	; 0x0b
    1dfe:	54 87       	std	Z+12, r21	; 0x0c
    1e00:	65 87       	std	Z+13, r22	; 0x0d
    1e02:	76 87       	std	Z+14, r23	; 0x0e

	stPktArr[temId].obj_id = obj_id;
    1e04:	e7 82       	std	Z+7, r14	; 0x07
    1e06:	f0 86       	std	Z+8, r15	; 0x08
    1e08:	01 87       	std	Z+9, r16	; 0x09
    1e0a:	12 87       	std	Z+10, r17	; 0x0a
	strcpy((char*)stPktArr[temId].domain_pwd,"reg1111");
    1e0c:	f9 01       	movw	r30, r18
    1e0e:	e2 57       	subi	r30, 0x72	; 114
    1e10:	f4 4f       	sbci	r31, 0xF4	; 244
    1e12:	a1 e0       	ldi	r26, 0x01	; 1
    1e14:	b5 e0       	ldi	r27, 0x05	; 5
    1e16:	88 e0       	ldi	r24, 0x08	; 8
    1e18:	0d 90       	ld	r0, X+
    1e1a:	01 92       	st	Z+, r0
    1e1c:	81 50       	subi	r24, 0x01	; 1
    1e1e:	e1 f7       	brne	.-8      	; 0x1e18 <createPktHandle+0xc6>

	uint32_t objDesLen = (uint32_t)strlen(strObjDes);
    1e20:	ec 2d       	mov	r30, r12
    1e22:	fd 2d       	mov	r31, r13
    1e24:	df 01       	movw	r26, r30
    1e26:	0d 90       	ld	r0, X+
    1e28:	00 20       	and	r0, r0
    1e2a:	e9 f7       	brne	.-6      	; 0x1e26 <createPktHandle+0xd4>
    1e2c:	11 97       	sbiw	r26, 0x01	; 1
    1e2e:	ad 01       	movw	r20, r26
    1e30:	4e 1b       	sub	r20, r30
    1e32:	5f 0b       	sbc	r21, r31
	
	memset((void*)stPktArr[temId].strObjDes,0,OBJ_DES_MAX_LEN); // set 0 init
    1e34:	8a e4       	ldi	r24, 0x4A	; 74
    1e36:	90 e0       	ldi	r25, 0x00	; 0
    1e38:	e9 81       	ldd	r30, Y+1	; 0x01
    1e3a:	fa 81       	ldd	r31, Y+2	; 0x02
    1e3c:	e8 9f       	mul	r30, r24
    1e3e:	90 01       	movw	r18, r0
    1e40:	e9 9f       	mul	r30, r25
    1e42:	30 0d       	add	r19, r0
    1e44:	f8 9f       	mul	r31, r24
    1e46:	30 0d       	add	r19, r0
    1e48:	11 24       	eor	r1, r1
    1e4a:	2a 58       	subi	r18, 0x8A	; 138
    1e4c:	34 4f       	sbci	r19, 0xF4	; 244
    1e4e:	84 e1       	ldi	r24, 0x14	; 20
    1e50:	d9 01       	movw	r26, r18
    1e52:	1d 92       	st	X+, r1
    1e54:	8a 95       	dec	r24
    1e56:	e9 f7       	brne	.-6      	; 0x1e52 <createPktHandle+0x100>
	if ( objDesLen >= OBJ_DES_MAX_LEN)
    1e58:	44 31       	cpi	r20, 0x14	; 20
    1e5a:	51 05       	cpc	r21, r1
    1e5c:	b0 f0       	brcs	.+44     	; 0x1e8a <createPktHandle+0x138>
	{
		memcpy((void*)stPktArr[temId].strObjDes,(void*)strObjDes,OBJ_DES_MAX_LEN);
    1e5e:	89 81       	ldd	r24, Y+1	; 0x01
    1e60:	9a 81       	ldd	r25, Y+2	; 0x02
    1e62:	2a e4       	ldi	r18, 0x4A	; 74
    1e64:	30 e0       	ldi	r19, 0x00	; 0
    1e66:	82 9f       	mul	r24, r18
    1e68:	a0 01       	movw	r20, r0
    1e6a:	83 9f       	mul	r24, r19
    1e6c:	50 0d       	add	r21, r0
    1e6e:	92 9f       	mul	r25, r18
    1e70:	50 0d       	add	r21, r0
    1e72:	11 24       	eor	r1, r1
    1e74:	fa 01       	movw	r30, r20
    1e76:	ea 58       	subi	r30, 0x8A	; 138
    1e78:	f4 4f       	sbci	r31, 0xF4	; 244
    1e7a:	ac 2d       	mov	r26, r12
    1e7c:	bd 2d       	mov	r27, r13
    1e7e:	84 e1       	ldi	r24, 0x14	; 20
    1e80:	0d 90       	ld	r0, X+
    1e82:	01 92       	st	Z+, r0
    1e84:	81 50       	subi	r24, 0x01	; 1
    1e86:	e1 f7       	brne	.-8      	; 0x1e80 <createPktHandle+0x12e>
    1e88:	12 c0       	rjmp	.+36     	; 0x1eae <createPktHandle+0x15c>
	}
	else
	{
		memcpy((void*)stPktArr[temId].strObjDes,(void*)strObjDes,objDesLen);
    1e8a:	8a e4       	ldi	r24, 0x4A	; 74
    1e8c:	90 e0       	ldi	r25, 0x00	; 0
    1e8e:	e9 81       	ldd	r30, Y+1	; 0x01
    1e90:	fa 81       	ldd	r31, Y+2	; 0x02
    1e92:	e8 9f       	mul	r30, r24
    1e94:	90 01       	movw	r18, r0
    1e96:	e9 9f       	mul	r30, r25
    1e98:	30 0d       	add	r19, r0
    1e9a:	f8 9f       	mul	r31, r24
    1e9c:	30 0d       	add	r19, r0
    1e9e:	11 24       	eor	r1, r1
    1ea0:	c9 01       	movw	r24, r18
    1ea2:	8a 58       	subi	r24, 0x8A	; 138
    1ea4:	94 4f       	sbci	r25, 0xF4	; 244
    1ea6:	6c 2d       	mov	r22, r12
    1ea8:	7d 2d       	mov	r23, r13
    1eaa:	0e 94 15 16 	call	0x2c2a	; 0x2c2a <memcpy>
	}

	stPktArr[temId].obj_type = obj_type;
    1eae:	89 81       	ldd	r24, Y+1	; 0x01
    1eb0:	9a 81       	ldd	r25, Y+2	; 0x02
    1eb2:	2a e4       	ldi	r18, 0x4A	; 74
    1eb4:	30 e0       	ldi	r19, 0x00	; 0
    1eb6:	82 9f       	mul	r24, r18
    1eb8:	a0 01       	movw	r20, r0
    1eba:	83 9f       	mul	r24, r19
    1ebc:	50 0d       	add	r21, r0
    1ebe:	92 9f       	mul	r25, r18
    1ec0:	50 0d       	add	r21, r0
    1ec2:	11 24       	eor	r1, r1
    1ec4:	4d 59       	subi	r20, 0x9D	; 157
    1ec6:	54 4f       	sbci	r21, 0xF4	; 244
    1ec8:	da 01       	movw	r26, r20
    1eca:	d5 96       	adiw	r26, 0x35	; 53
    1ecc:	ac 92       	st	X, r10
	
	if (entity_num > 2 ) 
    1ece:	b2 e0       	ldi	r27, 0x02	; 2
    1ed0:	b8 15       	cp	r27, r8
    1ed2:	68 f4       	brcc	.+26     	; 0x1eee <createPktHandle+0x19c>
		stPktArr[temId].entity_num = 2;
    1ed4:	82 9f       	mul	r24, r18
    1ed6:	a0 01       	movw	r20, r0
    1ed8:	83 9f       	mul	r24, r19
    1eda:	50 0d       	add	r21, r0
    1edc:	92 9f       	mul	r25, r18
    1ede:	50 0d       	add	r21, r0
    1ee0:	11 24       	eor	r1, r1
    1ee2:	4d 59       	subi	r20, 0x9D	; 157
    1ee4:	54 4f       	sbci	r21, 0xF4	; 244
    1ee6:	82 e0       	ldi	r24, 0x02	; 2
    1ee8:	fa 01       	movw	r30, r20
    1eea:	86 ab       	sts	0x56, r24
    1eec:	11 c0       	rjmp	.+34     	; 0x1f10 <createPktHandle+0x1be>
	else
		stPktArr[temId].entity_num = entity_num;
    1eee:	89 81       	ldd	r24, Y+1	; 0x01
    1ef0:	9a 81       	ldd	r25, Y+2	; 0x02
    1ef2:	2a e4       	ldi	r18, 0x4A	; 74
    1ef4:	30 e0       	ldi	r19, 0x00	; 0
    1ef6:	82 9f       	mul	r24, r18
    1ef8:	a0 01       	movw	r20, r0
    1efa:	83 9f       	mul	r24, r19
    1efc:	50 0d       	add	r21, r0
    1efe:	92 9f       	mul	r25, r18
    1f00:	50 0d       	add	r21, r0
    1f02:	11 24       	eor	r1, r1
    1f04:	4d 59       	subi	r20, 0x9D	; 157
    1f06:	54 4f       	sbci	r21, 0xF4	; 244
    1f08:	da 01       	movw	r26, r20
    1f0a:	d6 96       	adiw	r26, 0x36	; 54
    1f0c:	8c 92       	st	X, r8
    1f0e:	d6 97       	sbiw	r26, 0x36	; 54
	
	#if 1 // for test --------------------------------------------------------------------
//	stPktArr[temId].based_id = 0x00345678;
	stPktArr[temId].based_id = 0x00000000;
    1f10:	89 81       	ldd	r24, Y+1	; 0x01
    1f12:	9a 81       	ldd	r25, Y+2	; 0x02
    1f14:	2a e4       	ldi	r18, 0x4A	; 74
    1f16:	30 e0       	ldi	r19, 0x00	; 0
    1f18:	82 9f       	mul	r24, r18
    1f1a:	a0 01       	movw	r20, r0
    1f1c:	83 9f       	mul	r24, r19
    1f1e:	50 0d       	add	r21, r0
    1f20:	92 9f       	mul	r25, r18
    1f22:	50 0d       	add	r21, r0
    1f24:	11 24       	eor	r1, r1
    1f26:	4d 59       	subi	r20, 0x9D	; 157
    1f28:	54 4f       	sbci	r21, 0xF4	; 244
    1f2a:	fa 01       	movw	r30, r20
    1f2c:	17 86       	std	Z+15, r1	; 0x0f
    1f2e:	10 8a       	std	Z+16, r1	; 0x10
    1f30:	11 8a       	std	Z+17, r1	; 0x11
    1f32:	12 8a       	std	Z+18, r1	; 0x12
	#endif
	
	if ( entity_num > 0)
    1f34:	88 20       	and	r8, r8
    1f36:	09 f4       	brne	.+2      	; 0x1f3a <createPktHandle+0x1e8>
    1f38:	b0 c0       	rjmp	.+352    	; 0x209a <createPktHandle+0x348>
	{
		stPktArr[temId].stEntity[0].entity_id = entity_id_1;
    1f3a:	4a e4       	ldi	r20, 0x4A	; 74
    1f3c:	50 e0       	ldi	r21, 0x00	; 0
    1f3e:	88 8d       	ldd	r24, Y+24	; 0x18
    1f40:	87 ab       	sts	0x57, r24
		memset((void*)stPktArr[temId].stEntity[0].entity_sort,0,MAX_SORT_NUM); // set 0 init
    1f42:	69 81       	ldd	r22, Y+1	; 0x01
    1f44:	7a 81       	ldd	r23, Y+2	; 0x02
    1f46:	64 9f       	mul	r22, r20
    1f48:	f0 01       	movw	r30, r0
    1f4a:	65 9f       	mul	r22, r21
    1f4c:	f0 0d       	add	r31, r0
    1f4e:	74 9f       	mul	r23, r20
    1f50:	f0 0d       	add	r31, r0
    1f52:	11 24       	eor	r1, r1
    1f54:	e5 56       	subi	r30, 0x65	; 101
    1f56:	f4 4f       	sbci	r31, 0xF4	; 244
    1f58:	10 82       	st	Z, r1
    1f5a:	11 82       	std	Z+1, r1	; 0x01
    1f5c:	12 82       	std	Z+2, r1	; 0x02
    1f5e:	13 82       	std	Z+3, r1	; 0x03
		if (strlen(entity_sort_1) >=  MAX_SORT_NUM)
    1f60:	e9 8d       	ldd	r30, Y+25	; 0x19
    1f62:	fa 8d       	ldd	r31, Y+26	; 0x1a
    1f64:	df 01       	movw	r26, r30
    1f66:	0d 90       	ld	r0, X+
    1f68:	00 20       	and	r0, r0
    1f6a:	e9 f7       	brne	.-6      	; 0x1f66 <createPktHandle+0x214>
    1f6c:	11 97       	sbiw	r26, 0x01	; 1
    1f6e:	ae 1b       	sub	r26, r30
    1f70:	bf 0b       	sbc	r27, r31
    1f72:	a4 30       	cpi	r26, 0x04	; 4
    1f74:	b1 05       	cpc	r27, r1
    1f76:	c8 f0       	brcs	.+50     	; 0x1faa <createPktHandle+0x258>
			memcpy((void*)stPktArr[temId].stEntity[0].entity_sort,(void*)entity_sort_1, MAX_SORT_NUM);
    1f78:	89 81       	ldd	r24, Y+1	; 0x01
    1f7a:	9a 81       	ldd	r25, Y+2	; 0x02
    1f7c:	2a e4       	ldi	r18, 0x4A	; 74
    1f7e:	30 e0       	ldi	r19, 0x00	; 0
    1f80:	82 9f       	mul	r24, r18
    1f82:	a0 01       	movw	r20, r0
    1f84:	83 9f       	mul	r24, r19
    1f86:	50 0d       	add	r21, r0
    1f88:	92 9f       	mul	r25, r18
    1f8a:	50 0d       	add	r21, r0
    1f8c:	11 24       	eor	r1, r1
    1f8e:	4d 59       	subi	r20, 0x9D	; 157
    1f90:	54 4f       	sbci	r21, 0xF4	; 244
    1f92:	e9 8d       	ldd	r30, Y+25	; 0x19
    1f94:	fa 8d       	ldd	r31, Y+26	; 0x1a
    1f96:	80 81       	ld	r24, Z
    1f98:	91 81       	ldd	r25, Z+1	; 0x01
    1f9a:	a2 81       	ldd	r26, Z+2	; 0x02
    1f9c:	b3 81       	ldd	r27, Z+3	; 0x03
    1f9e:	fa 01       	movw	r30, r20
    1fa0:	80 af       	sts	0x70, r24
    1fa2:	91 af       	sts	0x71, r25
    1fa4:	a2 af       	sts	0x72, r26
    1fa6:	b3 af       	sts	0x73, r27
    1fa8:	14 c0       	rjmp	.+40     	; 0x1fd2 <createPktHandle+0x280>
		else
			memcpy((void*)stPktArr[temId].stEntity[0].entity_sort,(void*)entity_sort_1, strlen(entity_sort_1));
    1faa:	8a e4       	ldi	r24, 0x4A	; 74
    1fac:	90 e0       	ldi	r25, 0x00	; 0
    1fae:	49 81       	ldd	r20, Y+1	; 0x01
    1fb0:	5a 81       	ldd	r21, Y+2	; 0x02
    1fb2:	48 9f       	mul	r20, r24
    1fb4:	90 01       	movw	r18, r0
    1fb6:	49 9f       	mul	r20, r25
    1fb8:	30 0d       	add	r19, r0
    1fba:	58 9f       	mul	r21, r24
    1fbc:	30 0d       	add	r19, r0
    1fbe:	11 24       	eor	r1, r1
    1fc0:	c9 01       	movw	r24, r18
    1fc2:	85 56       	subi	r24, 0x65	; 101
    1fc4:	94 4f       	sbci	r25, 0xF4	; 244
    1fc6:	69 8d       	ldd	r22, Y+25	; 0x19
    1fc8:	7a 8d       	ldd	r23, Y+26	; 0x1a
    1fca:	4a 2f       	mov	r20, r26
    1fcc:	5b 2f       	mov	r21, r27
    1fce:	0e 94 15 16 	call	0x2c2a	; 0x2c2a <memcpy>
			
		
	}
	if ( entity_num > 1)
    1fd2:	51 e0       	ldi	r21, 0x01	; 1
    1fd4:	58 15       	cp	r21, r8
    1fd6:	08 f0       	brcs	.+2      	; 0x1fda <createPktHandle+0x288>
    1fd8:	60 c0       	rjmp	.+192    	; 0x209a <createPktHandle+0x348>
	{
		stPktArr[temId].stEntity[1].entity_id = entity_id_2;
    1fda:	89 81       	ldd	r24, Y+1	; 0x01
    1fdc:	9a 81       	ldd	r25, Y+2	; 0x02
    1fde:	4a e4       	ldi	r20, 0x4A	; 74
    1fe0:	50 e0       	ldi	r21, 0x00	; 0
    1fe2:	84 9f       	mul	r24, r20
    1fe4:	90 01       	movw	r18, r0
    1fe6:	85 9f       	mul	r24, r21
    1fe8:	30 0d       	add	r19, r0
    1fea:	94 9f       	mul	r25, r20
    1fec:	30 0d       	add	r19, r0
    1fee:	11 24       	eor	r1, r1
    1ff0:	2d 55       	subi	r18, 0x5D	; 93
    1ff2:	34 4f       	sbci	r19, 0xF4	; 244
    1ff4:	8b 8d       	ldd	r24, Y+27	; 0x1b
    1ff6:	d9 01       	movw	r26, r18
    1ff8:	8c 93       	st	X, r24
		memset((void*)stPktArr[temId].stEntity[1].entity_sort,0,MAX_SORT_NUM); // set 0 init
    1ffa:	69 81       	ldd	r22, Y+1	; 0x01
    1ffc:	7a 81       	ldd	r23, Y+2	; 0x02
    1ffe:	64 9f       	mul	r22, r20
    2000:	f0 01       	movw	r30, r0
    2002:	65 9f       	mul	r22, r21
    2004:	f0 0d       	add	r31, r0
    2006:	74 9f       	mul	r23, r20
    2008:	f0 0d       	add	r31, r0
    200a:	11 24       	eor	r1, r1
    200c:	ec 55       	subi	r30, 0x5C	; 92
    200e:	f4 4f       	sbci	r31, 0xF4	; 244
    2010:	10 82       	st	Z, r1
    2012:	11 82       	std	Z+1, r1	; 0x01
    2014:	12 82       	std	Z+2, r1	; 0x02
    2016:	13 82       	std	Z+3, r1	; 0x03
		if (strlen(entity_sort_1) >=  MAX_SORT_NUM)
    2018:	e9 8d       	ldd	r30, Y+25	; 0x19
    201a:	fa 8d       	ldd	r31, Y+26	; 0x1a
    201c:	df 01       	movw	r26, r30
    201e:	0d 90       	ld	r0, X+
    2020:	00 20       	and	r0, r0
    2022:	e9 f7       	brne	.-6      	; 0x201e <createPktHandle+0x2cc>
    2024:	11 97       	sbiw	r26, 0x01	; 1
    2026:	ae 1b       	sub	r26, r30
    2028:	bf 0b       	sbc	r27, r31
    202a:	a4 30       	cpi	r26, 0x04	; 4
    202c:	b1 05       	cpc	r27, r1
    202e:	c8 f0       	brcs	.+50     	; 0x2062 <createPktHandle+0x310>
			memcpy((void*)stPktArr[temId].stEntity[1].entity_sort,(void*)entity_sort_2,MAX_SORT_NUM);
    2030:	29 81       	ldd	r18, Y+1	; 0x01
    2032:	3a 81       	ldd	r19, Y+2	; 0x02
    2034:	8a e4       	ldi	r24, 0x4A	; 74
    2036:	90 e0       	ldi	r25, 0x00	; 0
    2038:	28 9f       	mul	r18, r24
    203a:	a0 01       	movw	r20, r0
    203c:	29 9f       	mul	r18, r25
    203e:	50 0d       	add	r21, r0
    2040:	38 9f       	mul	r19, r24
    2042:	50 0d       	add	r21, r0
    2044:	11 24       	eor	r1, r1
    2046:	4c 55       	subi	r20, 0x5C	; 92
    2048:	54 4f       	sbci	r21, 0xF4	; 244
    204a:	ec 8d       	ldd	r30, Y+28	; 0x1c
    204c:	fd 8d       	ldd	r31, Y+29	; 0x1d
    204e:	80 81       	ld	r24, Z
    2050:	91 81       	ldd	r25, Z+1	; 0x01
    2052:	a2 81       	ldd	r26, Z+2	; 0x02
    2054:	b3 81       	ldd	r27, Z+3	; 0x03
    2056:	fa 01       	movw	r30, r20
    2058:	80 83       	st	Z, r24
    205a:	91 83       	std	Z+1, r25	; 0x01
    205c:	a2 83       	std	Z+2, r26	; 0x02
    205e:	b3 83       	std	Z+3, r27	; 0x03
    2060:	1c c0       	rjmp	.+56     	; 0x209a <createPktHandle+0x348>
		else
			memcpy((void*)stPktArr[temId].stEntity[1].entity_sort,(void*)entity_sort_2, strlen(entity_sort_2));		
    2062:	2a e4       	ldi	r18, 0x4A	; 74
    2064:	30 e0       	ldi	r19, 0x00	; 0
    2066:	49 81       	ldd	r20, Y+1	; 0x01
    2068:	5a 81       	ldd	r21, Y+2	; 0x02
    206a:	42 9f       	mul	r20, r18
    206c:	c0 01       	movw	r24, r0
    206e:	43 9f       	mul	r20, r19
    2070:	90 0d       	add	r25, r0
    2072:	52 9f       	mul	r21, r18
    2074:	90 0d       	add	r25, r0
    2076:	11 24       	eor	r1, r1
    2078:	8c 55       	subi	r24, 0x5C	; 92
    207a:	94 4f       	sbci	r25, 0xF4	; 244
    207c:	ec 8d       	ldd	r30, Y+28	; 0x1c
    207e:	fd 8d       	ldd	r31, Y+29	; 0x1d
    2080:	df 01       	movw	r26, r30
    2082:	0d 90       	ld	r0, X+
    2084:	00 20       	and	r0, r0
    2086:	e9 f7       	brne	.-6      	; 0x2082 <createPktHandle+0x330>
    2088:	ad 01       	movw	r20, r26
    208a:	41 50       	subi	r20, 0x01	; 1
    208c:	50 40       	sbci	r21, 0x00	; 0
    208e:	4e 1b       	sub	r20, r30
    2090:	5f 0b       	sbc	r21, r31
    2092:	6e 2f       	mov	r22, r30
    2094:	7f 2f       	mov	r23, r31
    2096:	0e 94 15 16 	call	0x2c2a	; 0x2c2a <memcpy>
	}
	stPktArr[temId].ETX = 0xff;
    209a:	49 81       	ldd	r20, Y+1	; 0x01
    209c:	5a 81       	ldd	r21, Y+2	; 0x02
    209e:	2a e4       	ldi	r18, 0x4A	; 74
    20a0:	30 e0       	ldi	r19, 0x00	; 0
    20a2:	42 9f       	mul	r20, r18
    20a4:	c0 01       	movw	r24, r0
    20a6:	43 9f       	mul	r20, r19
    20a8:	90 0d       	add	r25, r0
    20aa:	52 9f       	mul	r21, r18
    20ac:	90 0d       	add	r25, r0
    20ae:	11 24       	eor	r1, r1
    20b0:	84 55       	subi	r24, 0x54	; 84
    20b2:	94 4f       	sbci	r25, 0xF4	; 244
    20b4:	2f ef       	ldi	r18, 0xFF	; 255
    20b6:	fc 01       	movw	r30, r24
    20b8:	20 83       	st	Z, r18
	currentHandlesize++;
    20ba:	80 91 11 05 	lds	r24, 0x0511
    20be:	90 91 12 05 	lds	r25, 0x0512
    20c2:	a0 91 13 05 	lds	r26, 0x0513
    20c6:	b0 91 14 05 	lds	r27, 0x0514
    20ca:	01 96       	adiw	r24, 0x01	; 1
    20cc:	a1 1d       	adc	r26, r1
    20ce:	b1 1d       	adc	r27, r1
    20d0:	80 93 11 05 	sts	0x0511, r24
    20d4:	90 93 12 05 	sts	0x0512, r25
    20d8:	a0 93 13 05 	sts	0x0513, r26
    20dc:	b0 93 14 05 	sts	0x0514, r27
	return temId;	
    20e0:	07 c0       	rjmp	.+14     	; 0x20f0 <createPktHandle+0x39e>

handler_id createPktHandle(uint32_t domainId,uint32_t cont_id, uint32_t obj_id, char* strObjDes, unsigned char obj_type,unsigned char entity_num, unsigned char entity_id_1, char* entity_sort_1,
				unsigned char entity_id_2, char* entity_sort_2)
{
	if ( currentHandlesize >= MAX_HANDLE_NUM)
		return -1;
    20e2:	4f ef       	ldi	r20, 0xFF	; 255
    20e4:	5f ef       	ldi	r21, 0xFF	; 255
    20e6:	ba 01       	movw	r22, r20
    20e8:	49 83       	std	Y+1, r20	; 0x01
    20ea:	5a 83       	std	Y+2, r21	; 0x02
    20ec:	6b 83       	std	Y+3, r22	; 0x03
    20ee:	7c 83       	std	Y+4, r23	; 0x04
			memcpy((void*)stPktArr[temId].stEntity[1].entity_sort,(void*)entity_sort_2, strlen(entity_sort_2));		
	}
	stPktArr[temId].ETX = 0xff;
	currentHandlesize++;
	return temId;	
}
    20f0:	69 81       	ldd	r22, Y+1	; 0x01
    20f2:	7a 81       	ldd	r23, Y+2	; 0x02
    20f4:	8b 81       	ldd	r24, Y+3	; 0x03
    20f6:	9c 81       	ldd	r25, Y+4	; 0x04
    20f8:	0f 90       	pop	r0
    20fa:	0f 90       	pop	r0
    20fc:	0f 90       	pop	r0
    20fe:	0f 90       	pop	r0
    2100:	df 91       	pop	r29
    2102:	cf 91       	pop	r28
    2104:	1f 91       	pop	r17
    2106:	0f 91       	pop	r16
    2108:	ff 90       	pop	r15
    210a:	ef 90       	pop	r14
    210c:	df 90       	pop	r13
    210e:	cf 90       	pop	r12
    2110:	af 90       	pop	r10
    2112:	8f 90       	pop	r8
    2114:	7f 90       	pop	r7
    2116:	6f 90       	pop	r6
    2118:	5f 90       	pop	r5
    211a:	4f 90       	pop	r4
    211c:	3f 90       	pop	r3
    211e:	2f 90       	pop	r2
    2120:	08 95       	ret

00002122 <makePkt>:

unsigned char* makePkt(handler_id handleId, uint32_t* resultLen,uint32_t entity_value_1,uint32_t entity_value_2)
{
    2122:	8f 92       	push	r8
    2124:	9f 92       	push	r9
    2126:	af 92       	push	r10
    2128:	bf 92       	push	r11
    212a:	cf 92       	push	r12
    212c:	df 92       	push	r13
    212e:	ef 92       	push	r14
    2130:	ff 92       	push	r15
    2132:	0f 93       	push	r16
    2134:	1f 93       	push	r17
    2136:	cf 93       	push	r28
    2138:	df 93       	push	r29
    213a:	dc 01       	movw	r26, r24
    213c:	cb 01       	movw	r24, r22
    213e:	ea 01       	movw	r28, r20
    2140:	48 01       	movw	r8, r16
    2142:	59 01       	movw	r10, r18
	if (handleId >= currentHandlesize )
    2144:	40 91 11 05 	lds	r20, 0x0511
    2148:	50 91 12 05 	lds	r21, 0x0512
    214c:	60 91 13 05 	lds	r22, 0x0513
    2150:	70 91 14 05 	lds	r23, 0x0514
    2154:	84 17       	cp	r24, r20
    2156:	95 07       	cpc	r25, r21
    2158:	a6 07       	cpc	r26, r22
    215a:	b7 07       	cpc	r27, r23
    215c:	10 f5       	brcc	.+68     	; 0x21a2 <makePkt+0x80>
	{
		return NULL;
	}
	
	stPktArr[handleId].stEntity[0].entity_value = entity_value_1;
    215e:	2a e4       	ldi	r18, 0x4A	; 74
    2160:	30 e0       	ldi	r19, 0x00	; 0
    2162:	82 9f       	mul	r24, r18
    2164:	a0 01       	movw	r20, r0
    2166:	83 9f       	mul	r24, r19
    2168:	50 0d       	add	r21, r0
    216a:	92 9f       	mul	r25, r18
    216c:	50 0d       	add	r21, r0
    216e:	11 24       	eor	r1, r1
    2170:	fa 01       	movw	r30, r20
    2172:	ed 59       	subi	r30, 0x9D	; 157
    2174:	f4 4f       	sbci	r31, 0xF4	; 244
    2176:	84 ae       	sts	0xb4, r24
    2178:	95 ae       	sts	0xb5, r25
    217a:	a6 ae       	sts	0xb6, r26
    217c:	b7 ae       	sts	0xb7, r27
	stPktArr[handleId].stEntity[1].entity_value = entity_value_2;
    217e:	eb 5b       	subi	r30, 0xBB	; 187
    2180:	ff 4f       	sbci	r31, 0xFF	; 255
    2182:	c0 82       	st	Z, r12
    2184:	d1 82       	std	Z+1, r13	; 0x01
    2186:	e2 82       	std	Z+2, r14	; 0x02
    2188:	f3 82       	std	Z+3, r15	; 0x03
	
	*resultLen = sizeof(StProtoPkt);
    218a:	8a e4       	ldi	r24, 0x4A	; 74
    218c:	90 e0       	ldi	r25, 0x00	; 0
    218e:	a0 e0       	ldi	r26, 0x00	; 0
    2190:	b0 e0       	ldi	r27, 0x00	; 0
    2192:	88 83       	st	Y, r24
    2194:	99 83       	std	Y+1, r25	; 0x01
    2196:	aa 83       	std	Y+2, r26	; 0x02
    2198:	bb 83       	std	Y+3, r27	; 0x03
	return (unsigned char*)(stPktArr+handleId);
    219a:	ca 01       	movw	r24, r20
    219c:	8d 59       	subi	r24, 0x9D	; 157
    219e:	94 4f       	sbci	r25, 0xF4	; 244
    21a0:	02 c0       	rjmp	.+4      	; 0x21a6 <makePkt+0x84>

unsigned char* makePkt(handler_id handleId, uint32_t* resultLen,uint32_t entity_value_1,uint32_t entity_value_2)
{
	if (handleId >= currentHandlesize )
	{
		return NULL;
    21a2:	80 e0       	ldi	r24, 0x00	; 0
    21a4:	90 e0       	ldi	r25, 0x00	; 0
	stPktArr[handleId].stEntity[0].entity_value = entity_value_1;
	stPktArr[handleId].stEntity[1].entity_value = entity_value_2;
	
	*resultLen = sizeof(StProtoPkt);
	return (unsigned char*)(stPktArr+handleId);
}
    21a6:	df 91       	pop	r29
    21a8:	cf 91       	pop	r28
    21aa:	1f 91       	pop	r17
    21ac:	0f 91       	pop	r16
    21ae:	ff 90       	pop	r15
    21b0:	ef 90       	pop	r14
    21b2:	df 90       	pop	r13
    21b4:	cf 90       	pop	r12
    21b6:	bf 90       	pop	r11
    21b8:	af 90       	pop	r10
    21ba:	9f 90       	pop	r9
    21bc:	8f 90       	pop	r8
    21be:	08 95       	ret

000021c0 <pktParcingActuatorControl>:

uint32_t pktParcingActuatorControl(unsigned char* buff, uint32_t len, uint32_t* obj_id, int32_t* entCtlValue1, int32_t* entCtlValue2  )
{
    21c0:	8f 92       	push	r8
    21c2:	9f 92       	push	r9
    21c4:	af 92       	push	r10
    21c6:	bf 92       	push	r11
    21c8:	ef 92       	push	r14
    21ca:	ff 92       	push	r15
    21cc:	0f 93       	push	r16
    21ce:	1f 93       	push	r17
    21d0:	cf 93       	push	r28
    21d2:	df 93       	push	r29
    21d4:	ec 01       	movw	r28, r24
    21d6:	4a 01       	movw	r8, r20
    21d8:	5b 01       	movw	r10, r22
	if (NORMAL_PACK_LEN != len )
    21da:	4a 34       	cpi	r20, 0x4A	; 74
    21dc:	51 05       	cpc	r21, r1
    21de:	61 05       	cpc	r22, r1
    21e0:	71 05       	cpc	r23, r1
    21e2:	99 f5       	brne	.+102    	; 0x224a <__stack+0x4b>
	{
		return -1;
	}
	
	if ( (buff[INDEX_STX] != 0xFD) || (buff[INDEX_STX+1] != 0xFE) )
    21e4:	88 81       	ld	r24, Y
    21e6:	8d 3f       	cpi	r24, 0xFD	; 253
    21e8:	a9 f5       	brne	.+106    	; 0x2254 <__stack+0x55>
    21ea:	89 81       	ldd	r24, Y+1	; 0x01
    21ec:	8e 3f       	cpi	r24, 0xFE	; 254
    21ee:	b9 f5       	brne	.+110    	; 0x225e <__stack+0x5f>
	{
		return -1;		
	}
	
	if (buff[INDEX_ETX] != 0xFF)
    21f0:	fe 01       	movw	r30, r28
    21f2:	e7 5b       	subi	r30, 0xB7	; 183
    21f4:	ff 4f       	sbci	r31, 0xFF	; 255
    21f6:	80 81       	ld	r24, Z
    21f8:	8f 3f       	cpi	r24, 0xFF	; 255
    21fa:	b1 f5       	brne	.+108    	; 0x2268 <__stack+0x69>
	{
		return -1;
	}
	
	if (*(int32_t*)(buff + INDEX_LEN) != (len -7))
    21fc:	8a 81       	ldd	r24, Y+2	; 0x02
    21fe:	9b 81       	ldd	r25, Y+3	; 0x03
    2200:	ac 81       	ldd	r26, Y+4	; 0x04
    2202:	bd 81       	ldd	r27, Y+5	; 0x05
    2204:	83 34       	cpi	r24, 0x43	; 67
    2206:	91 05       	cpc	r25, r1
    2208:	a1 05       	cpc	r26, r1
    220a:	b1 05       	cpc	r27, r1
    220c:	91 f5       	brne	.+100    	; 0x2272 <__stack+0x73>
	{		
		return -1;
	}
	
	*obj_id = *(unsigned int*)(buff+INDEX_OBJ_ID);
    220e:	8f 81       	ldd	r24, Y+7	; 0x07
    2210:	98 85       	ldd	r25, Y+8	; 0x08
    2212:	a0 e0       	ldi	r26, 0x00	; 0
    2214:	b0 e0       	ldi	r27, 0x00	; 0
    2216:	f9 01       	movw	r30, r18
    2218:	80 83       	st	Z, r24
    221a:	91 83       	std	Z+1, r25	; 0x01
    221c:	a2 83       	std	Z+2, r26	; 0x02
    221e:	b3 83       	std	Z+3, r27	; 0x03
	*entCtlValue1 = *(int32_t*)(buff+INDEX_ENT_VALUE_1);
    2220:	8c ad       	sts	0x6c, r24
    2222:	9d ad       	sts	0x6d, r25
    2224:	ae ad       	sts	0x6e, r26
    2226:	bf ad       	sts	0x6f, r27
    2228:	f8 01       	movw	r30, r16
    222a:	80 83       	st	Z, r24
    222c:	91 83       	std	Z+1, r25	; 0x01
    222e:	a2 83       	std	Z+2, r26	; 0x02
    2230:	b3 83       	std	Z+3, r27	; 0x03
	*entCtlValue2 = *(int32_t*)(buff+INDEX_ENT_VALUE_2);
    2232:	cb 5b       	subi	r28, 0xBB	; 187
    2234:	df 4f       	sbci	r29, 0xFF	; 255
    2236:	88 81       	ld	r24, Y
    2238:	99 81       	ldd	r25, Y+1	; 0x01
    223a:	aa 81       	ldd	r26, Y+2	; 0x02
    223c:	bb 81       	ldd	r27, Y+3	; 0x03
    223e:	f7 01       	movw	r30, r14
    2240:	80 83       	st	Z, r24
    2242:	91 83       	std	Z+1, r25	; 0x01
    2244:	a2 83       	std	Z+2, r26	; 0x02
    2246:	b3 83       	std	Z+3, r27	; 0x03
	
	
	return len;
    2248:	18 c0       	rjmp	.+48     	; 0x227a <__stack+0x7b>

uint32_t pktParcingActuatorControl(unsigned char* buff, uint32_t len, uint32_t* obj_id, int32_t* entCtlValue1, int32_t* entCtlValue2  )
{
	if (NORMAL_PACK_LEN != len )
	{
		return -1;
    224a:	88 24       	eor	r8, r8
    224c:	8a 94       	dec	r8
    224e:	98 2c       	mov	r9, r8
    2250:	54 01       	movw	r10, r8
    2252:	13 c0       	rjmp	.+38     	; 0x227a <__stack+0x7b>
	}
	
	if ( (buff[INDEX_STX] != 0xFD) || (buff[INDEX_STX+1] != 0xFE) )
	{
		return -1;		
    2254:	88 24       	eor	r8, r8
    2256:	8a 94       	dec	r8
    2258:	98 2c       	mov	r9, r8
    225a:	54 01       	movw	r10, r8
    225c:	0e c0       	rjmp	.+28     	; 0x227a <__stack+0x7b>
    225e:	88 24       	eor	r8, r8
    2260:	8a 94       	dec	r8
    2262:	98 2c       	mov	r9, r8
    2264:	54 01       	movw	r10, r8
    2266:	09 c0       	rjmp	.+18     	; 0x227a <__stack+0x7b>
	}
	
	if (buff[INDEX_ETX] != 0xFF)
	{
		return -1;
    2268:	88 24       	eor	r8, r8
    226a:	8a 94       	dec	r8
    226c:	98 2c       	mov	r9, r8
    226e:	54 01       	movw	r10, r8
    2270:	04 c0       	rjmp	.+8      	; 0x227a <__stack+0x7b>
	}
	
	if (*(int32_t*)(buff + INDEX_LEN) != (len -7))
	{		
		return -1;
    2272:	88 24       	eor	r8, r8
    2274:	8a 94       	dec	r8
    2276:	98 2c       	mov	r9, r8
    2278:	54 01       	movw	r10, r8
	*entCtlValue2 = *(int32_t*)(buff+INDEX_ENT_VALUE_2);
	
	
	return len;
	
}
    227a:	68 2d       	mov	r22, r8
    227c:	79 2d       	mov	r23, r9
    227e:	8a 2d       	mov	r24, r10
    2280:	9b 2d       	mov	r25, r11
    2282:	df 91       	pop	r29
    2284:	cf 91       	pop	r28
    2286:	1f 91       	pop	r17
    2288:	0f 91       	pop	r16
    228a:	ff 90       	pop	r15
    228c:	ef 90       	pop	r14
    228e:	bf 90       	pop	r11
    2290:	af 90       	pop	r10
    2292:	9f 90       	pop	r9
    2294:	8f 90       	pop	r8
    2296:	08 95       	ret

00002298 <getObj_idFromHandler>:

unsigned int getObj_idFromHandler(handler_id handleId)
{
    2298:	dc 01       	movw	r26, r24
    229a:	cb 01       	movw	r24, r22
	if (handleId >= currentHandlesize )
    229c:	40 91 11 05 	lds	r20, 0x0511
    22a0:	50 91 12 05 	lds	r21, 0x0512
    22a4:	60 91 13 05 	lds	r22, 0x0513
    22a8:	70 91 14 05 	lds	r23, 0x0514
    22ac:	84 17       	cp	r24, r20
    22ae:	95 07       	cpc	r25, r21
    22b0:	a6 07       	cpc	r26, r22
    22b2:	b7 07       	cpc	r27, r23
    22b4:	80 f4       	brcc	.+32     	; 0x22d6 <getObj_idFromHandler+0x3e>
	{
		return -1;
	}	
	return stPktArr[handleId].obj_id;
    22b6:	2a e4       	ldi	r18, 0x4A	; 74
    22b8:	30 e0       	ldi	r19, 0x00	; 0
    22ba:	82 9f       	mul	r24, r18
    22bc:	f0 01       	movw	r30, r0
    22be:	83 9f       	mul	r24, r19
    22c0:	f0 0d       	add	r31, r0
    22c2:	92 9f       	mul	r25, r18
    22c4:	f0 0d       	add	r31, r0
    22c6:	11 24       	eor	r1, r1
    22c8:	ed 59       	subi	r30, 0x9D	; 157
    22ca:	f4 4f       	sbci	r31, 0xF4	; 244
    22cc:	87 81       	ldd	r24, Z+7	; 0x07
    22ce:	90 85       	ldd	r25, Z+8	; 0x08
    22d0:	a1 85       	ldd	r26, Z+9	; 0x09
    22d2:	b2 85       	ldd	r27, Z+10	; 0x0a
    22d4:	08 95       	ret

unsigned int getObj_idFromHandler(handler_id handleId)
{
	if (handleId >= currentHandlesize )
	{
		return -1;
    22d6:	8f ef       	ldi	r24, 0xFF	; 255
    22d8:	9f ef       	ldi	r25, 0xFF	; 255
	}	
	return stPktArr[handleId].obj_id;
    22da:	08 95       	ret

000022dc <I2C_data_input>:


static void I2C_data_output (void)
{	pinMode(TEMP_PORT, DATA, OUTPUT);}
static void I2C_data_input()
{	pinMode(TEMP_PORT, DATA, INPUT);}
    22dc:	82 e0       	ldi	r24, 0x02	; 2
    22de:	61 e0       	ldi	r22, 0x01	; 1
    22e0:	40 e0       	ldi	r20, 0x00	; 0
    22e2:	0e 94 54 0b 	call	0x16a8	; 0x16a8 <pinMode>
    22e6:	08 95       	ret

000022e8 <I2C_data_output>:
unsigned short error, checksum;
unsigned char sensing_type;


static void I2C_data_output (void)
{	pinMode(TEMP_PORT, DATA, OUTPUT);}
    22e8:	82 e0       	ldi	r24, 0x02	; 2
    22ea:	61 e0       	ldi	r22, 0x01	; 1
    22ec:	41 e0       	ldi	r20, 0x01	; 1
    22ee:	0e 94 54 0b 	call	0x16a8	; 0x16a8 <pinMode>
    22f2:	08 95       	ret

000022f4 <READ_DATA>:
static void SET_DATA (void)
{	digitalWrite(TEMP_PORT, DATA, HIGH);}
static void CLR_DATA (void)
{	digitalWrite(TEMP_PORT, DATA, LOW);}
static int READ_DATA (void)
{	return digitalRead(TEMP_PORT, DATA);}
    22f4:	82 e0       	ldi	r24, 0x02	; 2
    22f6:	61 e0       	ldi	r22, 0x01	; 1
    22f8:	0e 94 1e 0e 	call	0x1c3c	; 0x1c3c <digitalRead>
    22fc:	08 95       	ret

000022fe <CLR_DATA>:
static void I2C_sck_input (void)
{	pinMode(TEMP_PORT, SCK, INPUT);}
static void SET_DATA (void)
{	digitalWrite(TEMP_PORT, DATA, HIGH);}
static void CLR_DATA (void)
{	digitalWrite(TEMP_PORT, DATA, LOW);}
    22fe:	82 e0       	ldi	r24, 0x02	; 2
    2300:	61 e0       	ldi	r22, 0x01	; 1
    2302:	40 e0       	ldi	r20, 0x00	; 0
    2304:	0e 94 b9 0c 	call	0x1972	; 0x1972 <digitalWrite>
    2308:	08 95       	ret

0000230a <SET_SCK>:
static int READ_DATA (void)
{	return digitalRead(TEMP_PORT, DATA);}
static void SET_SCK()
{	digitalWrite(TEMP_PORT, SCK, HIGH);}
    230a:	82 e0       	ldi	r24, 0x02	; 2
    230c:	60 e0       	ldi	r22, 0x00	; 0
    230e:	41 e0       	ldi	r20, 0x01	; 1
    2310:	0e 94 b9 0c 	call	0x1972	; 0x1972 <digitalWrite>
    2314:	08 95       	ret

00002316 <CLR_SCK>:
static void CLR_SCK()
{	digitalWrite(TEMP_PORT, SCK, LOW);}
    2316:	82 e0       	ldi	r24, 0x02	; 2
    2318:	60 e0       	ldi	r22, 0x00	; 0
    231a:	40 e0       	ldi	r20, 0x00	; 0
    231c:	0e 94 b9 0c 	call	0x1972	; 0x1972 <digitalWrite>
    2320:	08 95       	ret

00002322 <SET_DATA>:
static void I2C_sck_output (void)
{	pinMode(TEMP_PORT, SCK, OUTPUT);}
static void I2C_sck_input (void)
{	pinMode(TEMP_PORT, SCK, INPUT);}
static void SET_DATA (void)
{	digitalWrite(TEMP_PORT, DATA, HIGH);}
    2322:	82 e0       	ldi	r24, 0x02	; 2
    2324:	61 e0       	ldi	r22, 0x01	; 1
    2326:	41 e0       	ldi	r20, 0x01	; 1
    2328:	0e 94 b9 0c 	call	0x1972	; 0x1972 <digitalWrite>
    232c:	08 95       	ret

0000232e <Transmission_start>:
  	Transmission_start();	// transmission start
}

void Transmission_start (void)
{  
	SET_DATA();                   //Initial state
    232e:	0e 94 91 11 	call	0x2322	; 0x2322 <SET_DATA>
	CLR_SCK();                    //Initial state
    2332:	0e 94 8b 11 	call	0x2316	; 0x2316 <CLR_SCK>
	asm("nop");asm("nop");
    2336:	00 00       	nop
    2338:	00 00       	nop

	SET_SCK();
    233a:	0e 94 85 11 	call	0x230a	; 0x230a <SET_SCK>
	asm("nop");asm("nop");
    233e:	00 00       	nop
    2340:	00 00       	nop

	CLR_DATA();
    2342:	0e 94 7f 11 	call	0x22fe	; 0x22fe <CLR_DATA>
	asm("nop");asm("nop");
    2346:	00 00       	nop
    2348:	00 00       	nop

	CLR_SCK();  
    234a:	0e 94 8b 11 	call	0x2316	; 0x2316 <CLR_SCK>
	asm("nop");asm("nop");
    234e:	00 00       	nop
    2350:	00 00       	nop

	SET_SCK();
    2352:	0e 94 85 11 	call	0x230a	; 0x230a <SET_SCK>
	asm("nop");asm("nop");
    2356:	00 00       	nop
    2358:	00 00       	nop

	SET_DATA();		   
    235a:	0e 94 91 11 	call	0x2322	; 0x2322 <SET_DATA>
	asm("nop");asm("nop");
    235e:	00 00       	nop
    2360:	00 00       	nop

	CLR_SCK();
    2362:	0e 94 8b 11 	call	0x2316	; 0x2316 <CLR_SCK>
}
    2366:	08 95       	ret

00002368 <Connection_reset>:
	I2C_sck_output ();		// DDRF |= 0x01;
	Connection_reset ();
}

void Connection_reset (void)
{
    2368:	cf 93       	push	r28
	unsigned char i; 
  	SET_DATA();				// Initial state
    236a:	0e 94 91 11 	call	0x2322	; 0x2322 <SET_DATA>
	CLR_SCK();				// Initial state
    236e:	0e 94 8b 11 	call	0x2316	; 0x2316 <CLR_SCK>
    2372:	c9 e0       	ldi	r28, 0x09	; 9
  	for (i=0; i<9; i++)		// 9 SCK cycles
  	{
  		SET_SCK();
    2374:	0e 94 85 11 	call	0x230a	; 0x230a <SET_SCK>
    	CLR_SCK();
    2378:	0e 94 8b 11 	call	0x2316	; 0x2316 <CLR_SCK>
    237c:	c1 50       	subi	r28, 0x01	; 1
void Connection_reset (void)
{
	unsigned char i; 
  	SET_DATA();				// Initial state
	CLR_SCK();				// Initial state
  	for (i=0; i<9; i++)		// 9 SCK cycles
    237e:	d1 f7       	brne	.-12     	; 0x2374 <Connection_reset+0xc>
  	{
  		SET_SCK();
    	CLR_SCK();
  	}
  	Transmission_start();	// transmission start
    2380:	0e 94 97 11 	call	0x232e	; 0x232e <Transmission_start>
}
    2384:	cf 91       	pop	r28
    2386:	08 95       	ret

00002388 <SHT11_Init>:
{	return digitalRead(TEMP_PORT, SCK);}


void SHT11_Init (void)
{
	I2C_data_output ();		// DDRF |= 0x02;
    2388:	0e 94 74 11 	call	0x22e8	; 0x22e8 <I2C_data_output>
static void I2C_data_output (void)
{	pinMode(TEMP_PORT, DATA, OUTPUT);}
static void I2C_data_input()
{	pinMode(TEMP_PORT, DATA, INPUT);}
static void I2C_sck_output (void)
{	pinMode(TEMP_PORT, SCK, OUTPUT);}
    238c:	82 e0       	ldi	r24, 0x02	; 2
    238e:	60 e0       	ldi	r22, 0x00	; 0
    2390:	41 e0       	ldi	r20, 0x01	; 1
    2392:	0e 94 54 0b 	call	0x16a8	; 0x16a8 <pinMode>

void SHT11_Init (void)
{
	I2C_data_output ();		// DDRF |= 0x02;
	I2C_sck_output ();		// DDRF |= 0x01;
	Connection_reset ();
    2396:	0e 94 b4 11 	call	0x2368	; 0x2368 <Connection_reset>
}
    239a:	08 95       	ret

0000239c <Write_byte>:

	return error;
}

unsigned char Write_byte (unsigned char value)
{ 
    239c:	0f 93       	push	r16
    239e:	1f 93       	push	r17
    23a0:	cf 93       	push	r28
    23a2:	df 93       	push	r29
    23a4:	08 2f       	mov	r16, r24
	unsigned char i, error	=	0;
	I2C_data_output ();
    23a6:	0e 94 74 11 	call	0x22e8	; 0x22e8 <I2C_data_output>
    23aa:	c8 e0       	ldi	r28, 0x08	; 8
    23ac:	d0 e0       	ldi	r29, 0x00	; 0
	for (i=0x80; i>0; i/=2)
    23ae:	10 e8       	ldi	r17, 0x80	; 128
	{
		if (i & value)	SET_DATA ();
    23b0:	81 2f       	mov	r24, r17
    23b2:	80 23       	and	r24, r16
    23b4:	19 f0       	breq	.+6      	; 0x23bc <Write_byte+0x20>
    23b6:	0e 94 91 11 	call	0x2322	; 0x2322 <SET_DATA>
    23ba:	02 c0       	rjmp	.+4      	; 0x23c0 <Write_byte+0x24>
		else		CLR_DATA ();
    23bc:	0e 94 7f 11 	call	0x22fe	; 0x22fe <CLR_DATA>

		SET_SCK ();
    23c0:	0e 94 85 11 	call	0x230a	; 0x230a <SET_SCK>
		asm("nop");asm("nop");
    23c4:	00 00       	nop
    23c6:	00 00       	nop
		CLR_SCK ();
    23c8:	0e 94 8b 11 	call	0x2316	; 0x2316 <CLR_SCK>

unsigned char Write_byte (unsigned char value)
{ 
	unsigned char i, error	=	0;
	I2C_data_output ();
	for (i=0x80; i>0; i/=2)
    23cc:	16 95       	lsr	r17
    23ce:	21 97       	sbiw	r28, 0x01	; 1
    23d0:	79 f7       	brne	.-34     	; 0x23b0 <Write_byte+0x14>

		SET_SCK ();
		asm("nop");asm("nop");
		CLR_SCK ();
	}
	SET_DATA ();
    23d2:	0e 94 91 11 	call	0x2322	; 0x2322 <SET_DATA>
	I2C_data_input ();
    23d6:	0e 94 6e 11 	call	0x22dc	; 0x22dc <I2C_data_input>
	asm("nop");asm("nop");
    23da:	00 00       	nop
    23dc:	00 00       	nop
	SET_SCK (); 
    23de:	0e 94 85 11 	call	0x230a	; 0x230a <SET_SCK>
	error	=	READ_DATA ();
    23e2:	0e 94 7a 11 	call	0x22f4	; 0x22f4 <READ_DATA>
    23e6:	c8 2f       	mov	r28, r24

	CLR_SCK ();
    23e8:	0e 94 8b 11 	call	0x2316	; 0x2316 <CLR_SCK>
	I2C_data_output ();
    23ec:	0e 94 74 11 	call	0x22e8	; 0x22e8 <I2C_data_output>

	return error;
}
    23f0:	8c 2f       	mov	r24, r28
    23f2:	df 91       	pop	r29
    23f4:	cf 91       	pop	r28
    23f6:	1f 91       	pop	r17
    23f8:	0f 91       	pop	r16
    23fa:	08 95       	ret

000023fc <Read_byte>:

unsigned char Read_byte(unsigned char ack)
{ 
    23fc:	ff 92       	push	r15
    23fe:	0f 93       	push	r16
    2400:	1f 93       	push	r17
    2402:	cf 93       	push	r28
    2404:	df 93       	push	r29
    2406:	f8 2e       	mov	r15, r24
	unsigned char i, val	=	0;
	I2C_data_input ();
    2408:	0e 94 6e 11 	call	0x22dc	; 0x22dc <I2C_data_input>
	SET_DATA();
    240c:	0e 94 91 11 	call	0x2322	; 0x2322 <SET_DATA>
	asm("nop");asm("nop");
    2410:	00 00       	nop
    2412:	00 00       	nop
    2414:	c8 e0       	ldi	r28, 0x08	; 8
    2416:	d0 e0       	ldi	r29, 0x00	; 0
	return error;
}

unsigned char Read_byte(unsigned char ack)
{ 
	unsigned char i, val	=	0;
    2418:	00 e0       	ldi	r16, 0x00	; 0
	I2C_data_input ();
	SET_DATA();
	asm("nop");asm("nop");

	for (i=0x80; i>0; i/=2)
    241a:	10 e8       	ldi	r17, 0x80	; 128
	{
		SET_SCK();
    241c:	0e 94 85 11 	call	0x230a	; 0x230a <SET_SCK>
		asm("nop");asm("nop");
    2420:	00 00       	nop
    2422:	00 00       	nop
		if (READ_DATA())
    2424:	0e 94 7a 11 	call	0x22f4	; 0x22f4 <READ_DATA>
    2428:	00 97       	sbiw	r24, 0x00	; 0
    242a:	09 f0       	breq	.+2      	; 0x242e <Read_byte+0x32>
			val = (val | i); 
    242c:	01 2b       	or	r16, r17
		CLR_SCK();
    242e:	0e 94 8b 11 	call	0x2316	; 0x2316 <CLR_SCK>
		asm("nop");asm("nop");
    2432:	00 00       	nop
    2434:	00 00       	nop
	unsigned char i, val	=	0;
	I2C_data_input ();
	SET_DATA();
	asm("nop");asm("nop");

	for (i=0x80; i>0; i/=2)
    2436:	16 95       	lsr	r17
    2438:	21 97       	sbiw	r28, 0x01	; 1
    243a:	81 f7       	brne	.-32     	; 0x241c <Read_byte+0x20>
		if (READ_DATA())
			val = (val | i); 
		CLR_SCK();
		asm("nop");asm("nop");
	}
	I2C_data_output();
    243c:	0e 94 74 11 	call	0x22e8	; 0x22e8 <I2C_data_output>

	if (ack)	CLR_DATA();
    2440:	ff 20       	and	r15, r15
    2442:	19 f0       	breq	.+6      	; 0x244a <Read_byte+0x4e>
    2444:	0e 94 7f 11 	call	0x22fe	; 0x22fe <CLR_DATA>
    2448:	02 c0       	rjmp	.+4      	; 0x244e <Read_byte+0x52>
	else		SET_DATA();
    244a:	0e 94 91 11 	call	0x2322	; 0x2322 <SET_DATA>

	SET_SCK();
    244e:	0e 94 85 11 	call	0x230a	; 0x230a <SET_SCK>
	asm("nop");asm("nop"); 
    2452:	00 00       	nop
    2454:	00 00       	nop
	CLR_SCK();
    2456:	0e 94 8b 11 	call	0x2316	; 0x2316 <CLR_SCK>
	asm("nop");asm("nop"); 
    245a:	00 00       	nop
    245c:	00 00       	nop
	SET_DATA();
    245e:	0e 94 91 11 	call	0x2322	; 0x2322 <SET_DATA>

	return val;
}
    2462:	80 2f       	mov	r24, r16
    2464:	df 91       	pop	r29
    2466:	cf 91       	pop	r28
    2468:	1f 91       	pop	r17
    246a:	0f 91       	pop	r16
    246c:	ff 90       	pop	r15
    246e:	08 95       	ret

00002470 <Measure>:
	else 							return	0;
}

unsigned char Measure (unsigned short *p_value, unsigned short *p_checksum,
			unsigned char mode)
{ 
    2470:	ef 92       	push	r14
    2472:	ff 92       	push	r15
    2474:	0f 93       	push	r16
    2476:	1f 93       	push	r17
    2478:	cf 93       	push	r28
    247a:	7c 01       	movw	r14, r24
    247c:	8b 01       	movw	r16, r22
    247e:	c4 2f       	mov	r28, r20
	unsigned short error	=	0;
	unsigned short SHT11_msb, SHT11_lsb;

	Transmission_start ();		//transmission start
    2480:	0e 94 97 11 	call	0x232e	; 0x232e <Transmission_start>
	switch (mode)				//send command to sensor
    2484:	cc 23       	and	r28, r28
    2486:	19 f0       	breq	.+6      	; 0x248e <Measure+0x1e>
    2488:	c1 30       	cpi	r28, 0x01	; 1
    248a:	59 f4       	brne	.+22     	; 0x24a2 <Measure+0x32>
    248c:	05 c0       	rjmp	.+10     	; 0x2498 <Measure+0x28>
	{
		case TEMP :
			error	+=	Write_byte (MEASURE_TEMP);
    248e:	83 e0       	ldi	r24, 0x03	; 3
    2490:	0e 94 ce 11 	call	0x239c	; 0x239c <Write_byte>
    2494:	90 e0       	ldi	r25, 0x00	; 0
			break;
    2496:	07 c0       	rjmp	.+14     	; 0x24a6 <Measure+0x36>
		case HUMI :
			error	+=	Write_byte (MEASURE_HUMI);
    2498:	85 e0       	ldi	r24, 0x05	; 5
    249a:	0e 94 ce 11 	call	0x239c	; 0x239c <Write_byte>
    249e:	90 e0       	ldi	r25, 0x00	; 0
			break;
    24a0:	02 c0       	rjmp	.+4      	; 0x24a6 <Measure+0x36>
}

unsigned char Measure (unsigned short *p_value, unsigned short *p_checksum,
			unsigned char mode)
{ 
	unsigned short error	=	0;
    24a2:	80 e0       	ldi	r24, 0x00	; 0
    24a4:	90 e0       	ldi	r25, 0x00	; 0
			error	+=	Write_byte (MEASURE_HUMI);
			break;
		default :
			break;	 
	}
	if (error != 0)
    24a6:	00 97       	sbiw	r24, 0x00	; 0
    24a8:	e9 f4       	brne	.+58     	; 0x24e4 <Measure+0x74>
		return	error;

	I2C_data_input ();
    24aa:	0e 94 6e 11 	call	0x22dc	; 0x22dc <I2C_data_input>

	while (READ_DATA());
    24ae:	0e 94 7a 11 	call	0x22f4	; 0x22f4 <READ_DATA>
    24b2:	00 97       	sbiw	r24, 0x00	; 0
    24b4:	e1 f7       	brne	.-8      	; 0x24ae <Measure+0x3e>

	I2C_data_input();
    24b6:	0e 94 6e 11 	call	0x22dc	; 0x22dc <I2C_data_input>

	SHT11_msb	=	Read_byte (ACK);		// read the first byte (MSB)
    24ba:	81 e0       	ldi	r24, 0x01	; 1
    24bc:	0e 94 fe 11 	call	0x23fc	; 0x23fc <Read_byte>
    24c0:	c8 2f       	mov	r28, r24
	SHT11_lsb	=	Read_byte (ACK);		// read the second byte (LSB)
    24c2:	81 e0       	ldi	r24, 0x01	; 1
    24c4:	0e 94 fe 11 	call	0x23fc	; 0x23fc <Read_byte>
	*p_value	=	(SHT11_msb * 256) + SHT11_lsb;
    24c8:	3c 2f       	mov	r19, r28
    24ca:	20 e0       	ldi	r18, 0x00	; 0
    24cc:	28 0f       	add	r18, r24
    24ce:	31 1d       	adc	r19, r1
    24d0:	f7 01       	movw	r30, r14
    24d2:	31 83       	std	Z+1, r19	; 0x01
    24d4:	20 83       	st	Z, r18
	*p_checksum	=	Read_byte (NOACK);	// read checksum
    24d6:	80 e0       	ldi	r24, 0x00	; 0
    24d8:	0e 94 fe 11 	call	0x23fc	; 0x23fc <Read_byte>
    24dc:	f8 01       	movw	r30, r16
    24de:	80 83       	st	Z, r24
    24e0:	11 82       	std	Z+1, r1	; 0x01

	return error;
    24e2:	80 e0       	ldi	r24, 0x00	; 0
}
    24e4:	cf 91       	pop	r28
    24e6:	1f 91       	pop	r17
    24e8:	0f 91       	pop	r16
    24ea:	ff 90       	pop	r15
    24ec:	ef 90       	pop	r14
    24ee:	08 95       	ret

000024f0 <calc_SHT11>:

	return val;
}

void calc_SHT11 (unsigned short humidity, unsigned short temperature)
{ 
    24f0:	2f 92       	push	r2
    24f2:	3f 92       	push	r3
    24f4:	4f 92       	push	r4
    24f6:	5f 92       	push	r5
    24f8:	6f 92       	push	r6
    24fa:	7f 92       	push	r7
    24fc:	8f 92       	push	r8
    24fe:	9f 92       	push	r9
    2500:	af 92       	push	r10
    2502:	bf 92       	push	r11
    2504:	cf 92       	push	r12
    2506:	df 92       	push	r13
    2508:	ef 92       	push	r14
    250a:	ff 92       	push	r15
    250c:	0f 93       	push	r16
    250e:	1f 93       	push	r17
    2510:	cf 93       	push	r28
    2512:	df 93       	push	r29
    2514:	0f 92       	push	r0
    2516:	0f 92       	push	r0
    2518:	cd b7       	in	r28, 0x3d	; 61
    251a:	de b7       	in	r29, 0x3e	; 62
    251c:	8b 01       	movw	r16, r22
	const float T2	=	0.00008; 		// for 12 Bit
 
	float rh_lin;		// Relative Humidity
	float rh_true; 		// Humidity Sensor RH/Temperature compensation
	float t_C; 			// Temperature
	float rh	=	(float)humidity;
    251e:	bc 01       	movw	r22, r24
    2520:	80 e0       	ldi	r24, 0x00	; 0
    2522:	90 e0       	ldi	r25, 0x00	; 0
    2524:	0e 94 de 14 	call	0x29bc	; 0x29bc <__floatunsisf>
    2528:	c6 2e       	mov	r12, r22
    252a:	d7 2e       	mov	r13, r23
    252c:	f8 2e       	mov	r15, r24
    252e:	e9 2e       	mov	r14, r25
	float t		=	(float)temperature;
    2530:	b8 01       	movw	r22, r16
    2532:	80 e0       	ldi	r24, 0x00	; 0
    2534:	90 e0       	ldi	r25, 0x00	; 0
    2536:	0e 94 de 14 	call	0x29bc	; 0x29bc <__floatunsisf>
    
	t_C			=	((t * 0.01) - 40) - 5;
    253a:	2a e0       	ldi	r18, 0x0A	; 10
    253c:	37 ed       	ldi	r19, 0xD7	; 215
    253e:	43 e2       	ldi	r20, 0x23	; 35
    2540:	5c e3       	ldi	r21, 0x3C	; 60
    2542:	0e 94 94 15 	call	0x2b28	; 0x2b28 <__mulsf3>
    2546:	20 e0       	ldi	r18, 0x00	; 0
    2548:	30 e0       	ldi	r19, 0x00	; 0
    254a:	40 e2       	ldi	r20, 0x20	; 32
    254c:	52 e4       	ldi	r21, 0x42	; 66
    254e:	0e 94 49 14 	call	0x2892	; 0x2892 <__subsf3>
    2552:	20 e0       	ldi	r18, 0x00	; 0
    2554:	30 e0       	ldi	r19, 0x00	; 0
    2556:	40 ea       	ldi	r20, 0xA0	; 160
    2558:	50 e4       	ldi	r21, 0x40	; 64
    255a:	0e 94 49 14 	call	0x2892	; 0x2892 <__subsf3>
    255e:	36 2e       	mov	r3, r22
    2560:	27 2e       	mov	r2, r23
    2562:	89 83       	std	Y+1, r24	; 0x01
    2564:	9a 83       	std	Y+2, r25	; 0x02
	rh_lin		=	(C3 * rh * rh) + (C2 * rh) + C1;
	rh_true 	=	(t_C - 25) * (T1 + (T2 * rh)) + rh_lin;
    2566:	38 2f       	mov	r19, r24
    2568:	29 2f       	mov	r18, r25
    256a:	86 2f       	mov	r24, r22
    256c:	92 2d       	mov	r25, r2
    256e:	a3 2f       	mov	r26, r19
    2570:	b2 2f       	mov	r27, r18
    2572:	bc 01       	movw	r22, r24
    2574:	cd 01       	movw	r24, r26
    2576:	20 e0       	ldi	r18, 0x00	; 0
    2578:	30 e0       	ldi	r19, 0x00	; 0
    257a:	48 ec       	ldi	r20, 0xC8	; 200
    257c:	51 e4       	ldi	r21, 0x41	; 65
    257e:	0e 94 49 14 	call	0x2892	; 0x2892 <__subsf3>
    2582:	4b 01       	movw	r8, r22
    2584:	5c 01       	movw	r10, r24
    2586:	8c 2d       	mov	r24, r12
    2588:	9d 2d       	mov	r25, r13
    258a:	af 2d       	mov	r26, r15
    258c:	be 2d       	mov	r27, r14
    258e:	bc 01       	movw	r22, r24
    2590:	cd 01       	movw	r24, r26
    2592:	2c ea       	ldi	r18, 0xAC	; 172
    2594:	35 ec       	ldi	r19, 0xC5	; 197
    2596:	47 ea       	ldi	r20, 0xA7	; 167
    2598:	58 e3       	ldi	r21, 0x38	; 56
    259a:	0e 94 94 15 	call	0x2b28	; 0x2b28 <__mulsf3>
    259e:	2a e0       	ldi	r18, 0x0A	; 10
    25a0:	37 ed       	ldi	r19, 0xD7	; 215
    25a2:	43 e2       	ldi	r20, 0x23	; 35
    25a4:	5c e3       	ldi	r21, 0x3C	; 60
    25a6:	0e 94 4a 14 	call	0x2894	; 0x2894 <__addsf3>
    25aa:	9b 01       	movw	r18, r22
    25ac:	ac 01       	movw	r20, r24
    25ae:	c5 01       	movw	r24, r10
    25b0:	b4 01       	movw	r22, r8
    25b2:	0e 94 94 15 	call	0x2b28	; 0x2b28 <__mulsf3>
    25b6:	2b 01       	movw	r4, r22
    25b8:	3c 01       	movw	r6, r24
	float t_C; 			// Temperature
	float rh	=	(float)humidity;
	float t		=	(float)temperature;
    
	t_C			=	((t * 0.01) - 40) - 5;
	rh_lin		=	(C3 * rh * rh) + (C2 * rh) + C1;
    25ba:	8c 2d       	mov	r24, r12
    25bc:	9d 2d       	mov	r25, r13
    25be:	af 2d       	mov	r26, r15
    25c0:	be 2d       	mov	r27, r14
    25c2:	bc 01       	movw	r22, r24
    25c4:	cd 01       	movw	r24, r26
    25c6:	22 ea       	ldi	r18, 0xA2	; 162
    25c8:	37 ee       	ldi	r19, 0xE7	; 231
    25ca:	4b e3       	ldi	r20, 0x3B	; 59
    25cc:	56 eb       	ldi	r21, 0xB6	; 182
    25ce:	0e 94 94 15 	call	0x2b28	; 0x2b28 <__mulsf3>
    25d2:	0c 2d       	mov	r16, r12
    25d4:	1d 2d       	mov	r17, r13
    25d6:	2f 2d       	mov	r18, r15
    25d8:	3e 2d       	mov	r19, r14
    25da:	a9 01       	movw	r20, r18
    25dc:	98 01       	movw	r18, r16
    25de:	0e 94 94 15 	call	0x2b28	; 0x2b28 <__mulsf3>
    25e2:	4b 01       	movw	r8, r22
    25e4:	5c 01       	movw	r10, r24
    25e6:	80 2f       	mov	r24, r16
    25e8:	91 2f       	mov	r25, r17
    25ea:	af 2d       	mov	r26, r15
    25ec:	be 2d       	mov	r27, r14
    25ee:	bc 01       	movw	r22, r24
    25f0:	cd 01       	movw	r24, r26
    25f2:	24 e5       	ldi	r18, 0x54	; 84
    25f4:	33 ee       	ldi	r19, 0xE3	; 227
    25f6:	45 e2       	ldi	r20, 0x25	; 37
    25f8:	5d e3       	ldi	r21, 0x3D	; 61
    25fa:	0e 94 94 15 	call	0x2b28	; 0x2b28 <__mulsf3>
    25fe:	9b 01       	movw	r18, r22
    2600:	ac 01       	movw	r20, r24
    2602:	c5 01       	movw	r24, r10
    2604:	b4 01       	movw	r22, r8
    2606:	0e 94 4a 14 	call	0x2894	; 0x2894 <__addsf3>
    260a:	20 e0       	ldi	r18, 0x00	; 0
    260c:	30 e0       	ldi	r19, 0x00	; 0
    260e:	40 e8       	ldi	r20, 0x80	; 128
    2610:	50 e4       	ldi	r21, 0x40	; 64
    2612:	0e 94 49 14 	call	0x2892	; 0x2892 <__subsf3>
    2616:	9b 01       	movw	r18, r22
    2618:	ac 01       	movw	r20, r24
	rh_true 	=	(t_C - 25) * (T1 + (T2 * rh)) + rh_lin;
    261a:	c3 01       	movw	r24, r6
    261c:	b2 01       	movw	r22, r4
    261e:	0e 94 4a 14 	call	0x2894	; 0x2894 <__addsf3>
    2622:	f6 2e       	mov	r15, r22
    2624:	07 2f       	mov	r16, r23
    2626:	48 2e       	mov	r4, r24
    2628:	89 2e       	mov	r8, r25
    262a:	e6 2e       	mov	r14, r22
    262c:	17 2f       	mov	r17, r23
    262e:	d8 2e       	mov	r13, r24
    2630:	c9 2e       	mov	r12, r25

	if (rh_true > 100)	rh_true = 100;
    2632:	86 2f       	mov	r24, r22
    2634:	90 2f       	mov	r25, r16
    2636:	a4 2d       	mov	r26, r4
    2638:	b8 2d       	mov	r27, r8
    263a:	bc 01       	movw	r22, r24
    263c:	cd 01       	movw	r24, r26
    263e:	20 e0       	ldi	r18, 0x00	; 0
    2640:	30 e0       	ldi	r19, 0x00	; 0
    2642:	48 ec       	ldi	r20, 0xC8	; 200
    2644:	52 e4       	ldi	r21, 0x42	; 66
    2646:	0e 94 90 15 	call	0x2b20	; 0x2b20 <__gesf2>
    264a:	18 16       	cp	r1, r24
    264c:	7c f0       	brlt	.+30     	; 0x266c <calc_SHT11+0x17c>
	if (rh_true < 0.1)	rh_true = 0.1;
    264e:	8f 2d       	mov	r24, r15
    2650:	90 2f       	mov	r25, r16
    2652:	a4 2d       	mov	r26, r4
    2654:	b8 2d       	mov	r27, r8
    2656:	bc 01       	movw	r22, r24
    2658:	cd 01       	movw	r24, r26
    265a:	2d ec       	ldi	r18, 0xCD	; 205
    265c:	3c ec       	ldi	r19, 0xCC	; 204
    265e:	4c ec       	ldi	r20, 0xCC	; 204
    2660:	5d e3       	ldi	r21, 0x3D	; 61
    2662:	0e 94 ae 14 	call	0x295c	; 0x295c <__cmpsf2>
    2666:	88 23       	and	r24, r24
    2668:	64 f0       	brlt	.+24     	; 0x2682 <calc_SHT11+0x192>
    266a:	18 c0       	rjmp	.+48     	; 0x269c <calc_SHT11+0x1ac>
    
	t_C			=	((t * 0.01) - 40) - 5;
	rh_lin		=	(C3 * rh * rh) + (C2 * rh) + C1;
	rh_true 	=	(t_C - 25) * (T1 + (T2 * rh)) + rh_lin;

	if (rh_true > 100)	rh_true = 100;
    266c:	ee 24       	eor	r14, r14
    266e:	10 e0       	ldi	r17, 0x00	; 0
    2670:	0f 2e       	mov	r0, r31
    2672:	f8 ec       	ldi	r31, 0xC8	; 200
    2674:	df 2e       	mov	r13, r31
    2676:	f0 2d       	mov	r31, r0
    2678:	0f 2e       	mov	r0, r31
    267a:	f2 e4       	ldi	r31, 0x42	; 66
    267c:	cf 2e       	mov	r12, r31
    267e:	f0 2d       	mov	r31, r0
    2680:	0d c0       	rjmp	.+26     	; 0x269c <calc_SHT11+0x1ac>
	if (rh_true < 0.1)	rh_true = 0.1;
    2682:	0f 2e       	mov	r0, r31
    2684:	fd ec       	ldi	r31, 0xCD	; 205
    2686:	ef 2e       	mov	r14, r31
    2688:	f0 2d       	mov	r31, r0
    268a:	1c ec       	ldi	r17, 0xCC	; 204
    268c:	0f 2e       	mov	r0, r31
    268e:	fc ec       	ldi	r31, 0xCC	; 204
    2690:	df 2e       	mov	r13, r31
    2692:	f0 2d       	mov	r31, r0
    2694:	0f 2e       	mov	r0, r31
    2696:	fd e3       	ldi	r31, 0x3D	; 61
    2698:	cf 2e       	mov	r12, r31
    269a:	f0 2d       	mov	r31, r0

//	val_temp	=	(unsigned short)(t_C*10);
//	val_humi	=	(unsigned short)(rh_true*10);
	val_temp	=	(unsigned short)(t_C);
    269c:	39 81       	ldd	r19, Y+1	; 0x01
    269e:	2a 81       	ldd	r18, Y+2	; 0x02
    26a0:	83 2d       	mov	r24, r3
    26a2:	92 2d       	mov	r25, r2
    26a4:	a3 2f       	mov	r26, r19
    26a6:	b2 2f       	mov	r27, r18
    26a8:	bc 01       	movw	r22, r24
    26aa:	cd 01       	movw	r24, r26
    26ac:	0e 94 b2 14 	call	0x2964	; 0x2964 <__fixunssfsi>
    26b0:	dc 01       	movw	r26, r24
    26b2:	cb 01       	movw	r24, r22
    26b4:	90 93 b6 0d 	sts	0x0DB6, r25
    26b8:	80 93 b5 0d 	sts	0x0DB5, r24
	val_humi	=	(unsigned short)(rh_true);
    26bc:	8e 2d       	mov	r24, r14
    26be:	91 2f       	mov	r25, r17
    26c0:	ad 2d       	mov	r26, r13
    26c2:	bc 2d       	mov	r27, r12
    26c4:	bc 01       	movw	r22, r24
    26c6:	cd 01       	movw	r24, r26
    26c8:	0e 94 b2 14 	call	0x2964	; 0x2964 <__fixunssfsi>
    26cc:	dc 01       	movw	r26, r24
    26ce:	cb 01       	movw	r24, r22
    26d0:	90 93 b8 0d 	sts	0x0DB8, r25
    26d4:	80 93 b7 0d 	sts	0x0DB7, r24
}
    26d8:	0f 90       	pop	r0
    26da:	0f 90       	pop	r0
    26dc:	df 91       	pop	r29
    26de:	cf 91       	pop	r28
    26e0:	1f 91       	pop	r17
    26e2:	0f 91       	pop	r16
    26e4:	ff 90       	pop	r15
    26e6:	ef 90       	pop	r14
    26e8:	df 90       	pop	r13
    26ea:	cf 90       	pop	r12
    26ec:	bf 90       	pop	r11
    26ee:	af 90       	pop	r10
    26f0:	9f 90       	pop	r9
    26f2:	8f 90       	pop	r8
    26f4:	7f 90       	pop	r7
    26f6:	6f 90       	pop	r6
    26f8:	5f 90       	pop	r5
    26fa:	4f 90       	pop	r4
    26fc:	3f 90       	pop	r3
    26fe:	2f 90       	pop	r2
    2700:	08 95       	ret

00002702 <get_SHT11_data>:

	CLR_SCK();
}

unsigned short get_SHT11_data (unsigned char type)
{
    2702:	cf 93       	push	r28
    2704:	df 93       	push	r29
	sensing_type	=	type;
    2706:	80 93 bd 0d 	sts	0x0DBD, r24

	error	=	0;
    270a:	10 92 bc 0d 	sts	0x0DBC, r1
    270e:	10 92 bb 0d 	sts	0x0DBB, r1
	// measure humidity
	error	+=	Measure (&SHT11_humi, &checksum, HUMI);
    2712:	ce eb       	ldi	r28, 0xBE	; 190
    2714:	dd e0       	ldi	r29, 0x0D	; 13
    2716:	83 eb       	ldi	r24, 0xB3	; 179
    2718:	9d e0       	ldi	r25, 0x0D	; 13
    271a:	be 01       	movw	r22, r28
    271c:	41 e0       	ldi	r20, 0x01	; 1
    271e:	0e 94 38 12 	call	0x2470	; 0x2470 <Measure>
    2722:	20 91 bb 0d 	lds	r18, 0x0DBB
    2726:	30 91 bc 0d 	lds	r19, 0x0DBC
    272a:	28 0f       	add	r18, r24
    272c:	31 1d       	adc	r19, r1
    272e:	30 93 bc 0d 	sts	0x0DBC, r19
    2732:	20 93 bb 0d 	sts	0x0DBB, r18
	// measure temperature
	error	+=	Measure (&SHT11_temp, &checksum, TEMP);
    2736:	89 eb       	ldi	r24, 0xB9	; 185
    2738:	9d e0       	ldi	r25, 0x0D	; 13
    273a:	be 01       	movw	r22, r28
    273c:	40 e0       	ldi	r20, 0x00	; 0
    273e:	0e 94 38 12 	call	0x2470	; 0x2470 <Measure>
    2742:	20 91 bb 0d 	lds	r18, 0x0DBB
    2746:	30 91 bc 0d 	lds	r19, 0x0DBC
    274a:	28 0f       	add	r18, r24
    274c:	31 1d       	adc	r19, r1
    274e:	30 93 bc 0d 	sts	0x0DBC, r19
    2752:	20 93 bb 0d 	sts	0x0DBB, r18

	if (error != 0)		// [Error] connection reset
    2756:	21 15       	cp	r18, r1
    2758:	31 05       	cpc	r19, r1
    275a:	19 f0       	breq	.+6      	; 0x2762 <get_SHT11_data+0x60>
		Connection_reset ();
    275c:	0e 94 b4 11 	call	0x2368	; 0x2368 <Connection_reset>
    2760:	0a c0       	rjmp	.+20     	; 0x2776 <get_SHT11_data+0x74>
	else				// Calculate humidity, temperature
		calc_SHT11 (SHT11_humi, SHT11_temp);
    2762:	60 91 b9 0d 	lds	r22, 0x0DB9
    2766:	70 91 ba 0d 	lds	r23, 0x0DBA
    276a:	80 91 b3 0d 	lds	r24, 0x0DB3
    276e:	90 91 b4 0d 	lds	r25, 0x0DB4
    2772:	0e 94 78 12 	call	0x24f0	; 0x24f0 <calc_SHT11>

	if (sensing_type == HUMI)		return	val_humi;
    2776:	80 91 bd 0d 	lds	r24, 0x0DBD
    277a:	81 30       	cpi	r24, 0x01	; 1
    277c:	29 f4       	brne	.+10     	; 0x2788 <get_SHT11_data+0x86>
    277e:	80 91 b7 0d 	lds	r24, 0x0DB7
    2782:	90 91 b8 0d 	lds	r25, 0x0DB8
    2786:	09 c0       	rjmp	.+18     	; 0x279a <get_SHT11_data+0x98>
	else if (sensing_type == TEMP)	return	val_temp;
    2788:	88 23       	and	r24, r24
    278a:	29 f4       	brne	.+10     	; 0x2796 <get_SHT11_data+0x94>
    278c:	80 91 b5 0d 	lds	r24, 0x0DB5
    2790:	90 91 b6 0d 	lds	r25, 0x0DB6
    2794:	02 c0       	rjmp	.+4      	; 0x279a <get_SHT11_data+0x98>
	else 							return	0;
    2796:	80 e0       	ldi	r24, 0x00	; 0
    2798:	90 e0       	ldi	r25, 0x00	; 0
}
    279a:	df 91       	pop	r29
    279c:	cf 91       	pop	r28
    279e:	08 95       	ret

000027a0 <__vector_23>:

volatile uint32_t timerCouter = 0; 
volatile uint32_t setTimerCheckCounter = 0;
volatile uint8_t  flagOverflowSetTimer = 0;
  
ISR(TIMER0_OVF_vect) {
    27a0:	1f 92       	push	r1
    27a2:	0f 92       	push	r0
    27a4:	0f b6       	in	r0, 0x3f	; 63
    27a6:	0f 92       	push	r0
    27a8:	11 24       	eor	r1, r1
    27aa:	4f 93       	push	r20
    27ac:	5f 93       	push	r21
    27ae:	6f 93       	push	r22
    27b0:	7f 93       	push	r23
    27b2:	8f 93       	push	r24
    27b4:	9f 93       	push	r25
    27b6:	af 93       	push	r26
    27b8:	bf 93       	push	r27
	cli();
    27ba:	f8 94       	cli
	// 0.01s에 오버플로우 발생, 1/(14745600Hz/1024)ⅹ144 = 0.01s
	TCNT0	=	0xff - 144;
    27bc:	8f e6       	ldi	r24, 0x6F	; 111
    27be:	86 bd       	out	0x26, r24	; 38

	timerCouter++;
    27c0:	80 91 1a 05 	lds	r24, 0x051A
    27c4:	90 91 1b 05 	lds	r25, 0x051B
    27c8:	a0 91 1c 05 	lds	r26, 0x051C
    27cc:	b0 91 1d 05 	lds	r27, 0x051D
    27d0:	01 96       	adiw	r24, 0x01	; 1
    27d2:	a1 1d       	adc	r26, r1
    27d4:	b1 1d       	adc	r27, r1
    27d6:	80 93 1a 05 	sts	0x051A, r24
    27da:	90 93 1b 05 	sts	0x051B, r25
    27de:	a0 93 1c 05 	sts	0x051C, r26
    27e2:	b0 93 1d 05 	sts	0x051D, r27
	
	if ( timerCouter >= setTimerCheckCounter )
    27e6:	40 91 1a 05 	lds	r20, 0x051A
    27ea:	50 91 1b 05 	lds	r21, 0x051B
    27ee:	60 91 1c 05 	lds	r22, 0x051C
    27f2:	70 91 1d 05 	lds	r23, 0x051D
    27f6:	80 91 16 05 	lds	r24, 0x0516
    27fa:	90 91 17 05 	lds	r25, 0x0517
    27fe:	a0 91 18 05 	lds	r26, 0x0518
    2802:	b0 91 19 05 	lds	r27, 0x0519
    2806:	48 17       	cp	r20, r24
    2808:	59 07       	cpc	r21, r25
    280a:	6a 07       	cpc	r22, r26
    280c:	7b 07       	cpc	r23, r27
    280e:	58 f0       	brcs	.+22     	; 0x2826 <__vector_23+0x86>
	{
		flagOverflowSetTimer = 1;
    2810:	81 e0       	ldi	r24, 0x01	; 1
    2812:	80 93 15 05 	sts	0x0515, r24
		timerCouter = 0;
    2816:	10 92 1a 05 	sts	0x051A, r1
    281a:	10 92 1b 05 	sts	0x051B, r1
    281e:	10 92 1c 05 	sts	0x051C, r1
    2822:	10 92 1d 05 	sts	0x051D, r1
	}
	sei();
    2826:	78 94       	sei
}
    2828:	bf 91       	pop	r27
    282a:	af 91       	pop	r26
    282c:	9f 91       	pop	r25
    282e:	8f 91       	pop	r24
    2830:	7f 91       	pop	r23
    2832:	6f 91       	pop	r22
    2834:	5f 91       	pop	r21
    2836:	4f 91       	pop	r20
    2838:	0f 90       	pop	r0
    283a:	0f be       	out	0x3f, r0	; 63
    283c:	0f 90       	pop	r0
    283e:	1f 90       	pop	r1
    2840:	18 95       	reti

00002842 <TIMER_100mSInit>:
  
void TIMER_100mSInit (void)
{
	// Timer/Count0 사용
	// 동작모드와 클럭소스 및 프리스케일러 결정
	TCCR0B	=	0x05;  //  fclk_io / 1024   
    2842:	85 e0       	ldi	r24, 0x05	; 5
    2844:	85 bd       	out	0x25, r24	; 37
	// 0.01s에 오버플로우 발생, 1/(14745600Hz/1024)ⅹ144 = 0.01s
	// 오버플로우까지 카운트를 144로 설정
	TCNT0	=	0xff - 144;
    2846:	8f e6       	ldi	r24, 0x6F	; 111
    2848:	86 bd       	out	0x26, r24	; 38
	TIMSK0	|=	1 << TOIE0;	// Overflow Interupt Enable
    284a:	ee e6       	ldi	r30, 0x6E	; 110
    284c:	f0 e0       	ldi	r31, 0x00	; 0
    284e:	80 81       	ld	r24, Z
    2850:	81 60       	ori	r24, 0x01	; 1
    2852:	80 83       	st	Z, r24
	TIFR0	|=	1 << TOV0;	// set Overflow Interupt Flag
    2854:	a8 9a       	sbi	0x15, 0	; 21
}
    2856:	08 95       	ret

00002858 <setElapsedTime100mSUnit>:


void setElapsedTime100mSUnit(uint32_t Counter)
{
    2858:	dc 01       	movw	r26, r24
    285a:	cb 01       	movw	r24, r22
	setTimerCheckCounter = Counter;
    285c:	80 93 16 05 	sts	0x0516, r24
    2860:	90 93 17 05 	sts	0x0517, r25
    2864:	a0 93 18 05 	sts	0x0518, r26
    2868:	b0 93 19 05 	sts	0x0519, r27
	timerCouter = 0;
    286c:	10 92 1a 05 	sts	0x051A, r1
    2870:	10 92 1b 05 	sts	0x051B, r1
    2874:	10 92 1c 05 	sts	0x051C, r1
    2878:	10 92 1d 05 	sts	0x051D, r1
}
    287c:	08 95       	ret

0000287e <isElapsed>:

uint8_t isElapsed()
{
	if (flagOverflowSetTimer )
    287e:	80 91 15 05 	lds	r24, 0x0515
    2882:	88 23       	and	r24, r24
    2884:	21 f0       	breq	.+8      	; 0x288e <isElapsed+0x10>
	{
		flagOverflowSetTimer = 0;
    2886:	10 92 15 05 	sts	0x0515, r1
		return 1;
    288a:	81 e0       	ldi	r24, 0x01	; 1
    288c:	08 95       	ret
	}
	
	return 0;
    288e:	80 e0       	ldi	r24, 0x00	; 0
}
    2890:	08 95       	ret

00002892 <__subsf3>:
    2892:	50 58       	subi	r21, 0x80	; 128

00002894 <__addsf3>:
    2894:	bb 27       	eor	r27, r27
    2896:	aa 27       	eor	r26, r26
    2898:	0e d0       	rcall	.+28     	; 0x28b6 <__addsf3x>
    289a:	08 c1       	rjmp	.+528    	; 0x2aac <__fp_round>
    289c:	f9 d0       	rcall	.+498    	; 0x2a90 <__fp_pscA>
    289e:	30 f0       	brcs	.+12     	; 0x28ac <__addsf3+0x18>
    28a0:	fe d0       	rcall	.+508    	; 0x2a9e <__fp_pscB>
    28a2:	20 f0       	brcs	.+8      	; 0x28ac <__addsf3+0x18>
    28a4:	31 f4       	brne	.+12     	; 0x28b2 <__addsf3+0x1e>
    28a6:	9f 3f       	cpi	r25, 0xFF	; 255
    28a8:	11 f4       	brne	.+4      	; 0x28ae <__addsf3+0x1a>
    28aa:	1e f4       	brtc	.+6      	; 0x28b2 <__addsf3+0x1e>
    28ac:	ee c0       	rjmp	.+476    	; 0x2a8a <__fp_nan>
    28ae:	0e f4       	brtc	.+2      	; 0x28b2 <__addsf3+0x1e>
    28b0:	e0 95       	com	r30
    28b2:	e7 fb       	bst	r30, 7
    28b4:	e4 c0       	rjmp	.+456    	; 0x2a7e <__fp_inf>

000028b6 <__addsf3x>:
    28b6:	e9 2f       	mov	r30, r25
    28b8:	0a d1       	rcall	.+532    	; 0x2ace <__fp_split3>
    28ba:	80 f3       	brcs	.-32     	; 0x289c <__addsf3+0x8>
    28bc:	ba 17       	cp	r27, r26
    28be:	62 07       	cpc	r22, r18
    28c0:	73 07       	cpc	r23, r19
    28c2:	84 07       	cpc	r24, r20
    28c4:	95 07       	cpc	r25, r21
    28c6:	18 f0       	brcs	.+6      	; 0x28ce <__addsf3x+0x18>
    28c8:	71 f4       	brne	.+28     	; 0x28e6 <__addsf3x+0x30>
    28ca:	9e f5       	brtc	.+102    	; 0x2932 <__addsf3x+0x7c>
    28cc:	22 c1       	rjmp	.+580    	; 0x2b12 <__fp_zero>
    28ce:	0e f4       	brtc	.+2      	; 0x28d2 <__addsf3x+0x1c>
    28d0:	e0 95       	com	r30
    28d2:	0b 2e       	mov	r0, r27
    28d4:	ba 2f       	mov	r27, r26
    28d6:	a0 2d       	mov	r26, r0
    28d8:	0b 01       	movw	r0, r22
    28da:	b9 01       	movw	r22, r18
    28dc:	90 01       	movw	r18, r0
    28de:	0c 01       	movw	r0, r24
    28e0:	ca 01       	movw	r24, r20
    28e2:	a0 01       	movw	r20, r0
    28e4:	11 24       	eor	r1, r1
    28e6:	ff 27       	eor	r31, r31
    28e8:	59 1b       	sub	r21, r25
    28ea:	99 f0       	breq	.+38     	; 0x2912 <__addsf3x+0x5c>
    28ec:	59 3f       	cpi	r21, 0xF9	; 249
    28ee:	50 f4       	brcc	.+20     	; 0x2904 <__addsf3x+0x4e>
    28f0:	50 3e       	cpi	r21, 0xE0	; 224
    28f2:	68 f1       	brcs	.+90     	; 0x294e <__addsf3x+0x98>
    28f4:	1a 16       	cp	r1, r26
    28f6:	f0 40       	sbci	r31, 0x00	; 0
    28f8:	a2 2f       	mov	r26, r18
    28fa:	23 2f       	mov	r18, r19
    28fc:	34 2f       	mov	r19, r20
    28fe:	44 27       	eor	r20, r20
    2900:	58 5f       	subi	r21, 0xF8	; 248
    2902:	f3 cf       	rjmp	.-26     	; 0x28ea <__addsf3x+0x34>
    2904:	46 95       	lsr	r20
    2906:	37 95       	ror	r19
    2908:	27 95       	ror	r18
    290a:	a7 95       	ror	r26
    290c:	f0 40       	sbci	r31, 0x00	; 0
    290e:	53 95       	inc	r21
    2910:	c9 f7       	brne	.-14     	; 0x2904 <__addsf3x+0x4e>
    2912:	7e f4       	brtc	.+30     	; 0x2932 <__addsf3x+0x7c>
    2914:	1f 16       	cp	r1, r31
    2916:	ba 0b       	sbc	r27, r26
    2918:	62 0b       	sbc	r22, r18
    291a:	73 0b       	sbc	r23, r19
    291c:	84 0b       	sbc	r24, r20
    291e:	ba f0       	brmi	.+46     	; 0x294e <__addsf3x+0x98>
    2920:	91 50       	subi	r25, 0x01	; 1
    2922:	a1 f0       	breq	.+40     	; 0x294c <__addsf3x+0x96>
    2924:	ff 0f       	add	r31, r31
    2926:	bb 1f       	adc	r27, r27
    2928:	66 1f       	adc	r22, r22
    292a:	77 1f       	adc	r23, r23
    292c:	88 1f       	adc	r24, r24
    292e:	c2 f7       	brpl	.-16     	; 0x2920 <__addsf3x+0x6a>
    2930:	0e c0       	rjmp	.+28     	; 0x294e <__addsf3x+0x98>
    2932:	ba 0f       	add	r27, r26
    2934:	62 1f       	adc	r22, r18
    2936:	73 1f       	adc	r23, r19
    2938:	84 1f       	adc	r24, r20
    293a:	48 f4       	brcc	.+18     	; 0x294e <__addsf3x+0x98>
    293c:	87 95       	ror	r24
    293e:	77 95       	ror	r23
    2940:	67 95       	ror	r22
    2942:	b7 95       	ror	r27
    2944:	f7 95       	ror	r31
    2946:	9e 3f       	cpi	r25, 0xFE	; 254
    2948:	08 f0       	brcs	.+2      	; 0x294c <__addsf3x+0x96>
    294a:	b3 cf       	rjmp	.-154    	; 0x28b2 <__addsf3+0x1e>
    294c:	93 95       	inc	r25
    294e:	88 0f       	add	r24, r24
    2950:	08 f0       	brcs	.+2      	; 0x2954 <__addsf3x+0x9e>
    2952:	99 27       	eor	r25, r25
    2954:	ee 0f       	add	r30, r30
    2956:	97 95       	ror	r25
    2958:	87 95       	ror	r24
    295a:	08 95       	ret

0000295c <__cmpsf2>:
    295c:	6c d0       	rcall	.+216    	; 0x2a36 <__fp_cmp>
    295e:	08 f4       	brcc	.+2      	; 0x2962 <__cmpsf2+0x6>
    2960:	81 e0       	ldi	r24, 0x01	; 1
    2962:	08 95       	ret

00002964 <__fixunssfsi>:
    2964:	bc d0       	rcall	.+376    	; 0x2ade <__fp_splitA>
    2966:	88 f0       	brcs	.+34     	; 0x298a <__fixunssfsi+0x26>
    2968:	9f 57       	subi	r25, 0x7F	; 127
    296a:	90 f0       	brcs	.+36     	; 0x2990 <__fixunssfsi+0x2c>
    296c:	b9 2f       	mov	r27, r25
    296e:	99 27       	eor	r25, r25
    2970:	b7 51       	subi	r27, 0x17	; 23
    2972:	a0 f0       	brcs	.+40     	; 0x299c <__fixunssfsi+0x38>
    2974:	d1 f0       	breq	.+52     	; 0x29aa <__fixunssfsi+0x46>
    2976:	66 0f       	add	r22, r22
    2978:	77 1f       	adc	r23, r23
    297a:	88 1f       	adc	r24, r24
    297c:	99 1f       	adc	r25, r25
    297e:	1a f0       	brmi	.+6      	; 0x2986 <__fixunssfsi+0x22>
    2980:	ba 95       	dec	r27
    2982:	c9 f7       	brne	.-14     	; 0x2976 <__fixunssfsi+0x12>
    2984:	12 c0       	rjmp	.+36     	; 0x29aa <__fixunssfsi+0x46>
    2986:	b1 30       	cpi	r27, 0x01	; 1
    2988:	81 f0       	breq	.+32     	; 0x29aa <__fixunssfsi+0x46>
    298a:	c3 d0       	rcall	.+390    	; 0x2b12 <__fp_zero>
    298c:	b1 e0       	ldi	r27, 0x01	; 1
    298e:	08 95       	ret
    2990:	c0 c0       	rjmp	.+384    	; 0x2b12 <__fp_zero>
    2992:	67 2f       	mov	r22, r23
    2994:	78 2f       	mov	r23, r24
    2996:	88 27       	eor	r24, r24
    2998:	b8 5f       	subi	r27, 0xF8	; 248
    299a:	39 f0       	breq	.+14     	; 0x29aa <__fixunssfsi+0x46>
    299c:	b9 3f       	cpi	r27, 0xF9	; 249
    299e:	cc f3       	brlt	.-14     	; 0x2992 <__fixunssfsi+0x2e>
    29a0:	86 95       	lsr	r24
    29a2:	77 95       	ror	r23
    29a4:	67 95       	ror	r22
    29a6:	b3 95       	inc	r27
    29a8:	d9 f7       	brne	.-10     	; 0x29a0 <__fixunssfsi+0x3c>
    29aa:	3e f4       	brtc	.+14     	; 0x29ba <__fixunssfsi+0x56>
    29ac:	90 95       	com	r25
    29ae:	80 95       	com	r24
    29b0:	70 95       	com	r23
    29b2:	61 95       	neg	r22
    29b4:	7f 4f       	sbci	r23, 0xFF	; 255
    29b6:	8f 4f       	sbci	r24, 0xFF	; 255
    29b8:	9f 4f       	sbci	r25, 0xFF	; 255
    29ba:	08 95       	ret

000029bc <__floatunsisf>:
    29bc:	e8 94       	clt
    29be:	09 c0       	rjmp	.+18     	; 0x29d2 <__floatsisf+0x12>

000029c0 <__floatsisf>:
    29c0:	97 fb       	bst	r25, 7
    29c2:	3e f4       	brtc	.+14     	; 0x29d2 <__floatsisf+0x12>
    29c4:	90 95       	com	r25
    29c6:	80 95       	com	r24
    29c8:	70 95       	com	r23
    29ca:	61 95       	neg	r22
    29cc:	7f 4f       	sbci	r23, 0xFF	; 255
    29ce:	8f 4f       	sbci	r24, 0xFF	; 255
    29d0:	9f 4f       	sbci	r25, 0xFF	; 255
    29d2:	99 23       	and	r25, r25
    29d4:	a9 f0       	breq	.+42     	; 0x2a00 <__floatsisf+0x40>
    29d6:	f9 2f       	mov	r31, r25
    29d8:	96 e9       	ldi	r25, 0x96	; 150
    29da:	bb 27       	eor	r27, r27
    29dc:	93 95       	inc	r25
    29de:	f6 95       	lsr	r31
    29e0:	87 95       	ror	r24
    29e2:	77 95       	ror	r23
    29e4:	67 95       	ror	r22
    29e6:	b7 95       	ror	r27
    29e8:	f1 11       	cpse	r31, r1
    29ea:	f8 cf       	rjmp	.-16     	; 0x29dc <__floatsisf+0x1c>
    29ec:	fa f4       	brpl	.+62     	; 0x2a2c <__floatsisf+0x6c>
    29ee:	bb 0f       	add	r27, r27
    29f0:	11 f4       	brne	.+4      	; 0x29f6 <__floatsisf+0x36>
    29f2:	60 ff       	sbrs	r22, 0
    29f4:	1b c0       	rjmp	.+54     	; 0x2a2c <__floatsisf+0x6c>
    29f6:	6f 5f       	subi	r22, 0xFF	; 255
    29f8:	7f 4f       	sbci	r23, 0xFF	; 255
    29fa:	8f 4f       	sbci	r24, 0xFF	; 255
    29fc:	9f 4f       	sbci	r25, 0xFF	; 255
    29fe:	16 c0       	rjmp	.+44     	; 0x2a2c <__floatsisf+0x6c>
    2a00:	88 23       	and	r24, r24
    2a02:	11 f0       	breq	.+4      	; 0x2a08 <__floatsisf+0x48>
    2a04:	96 e9       	ldi	r25, 0x96	; 150
    2a06:	11 c0       	rjmp	.+34     	; 0x2a2a <__floatsisf+0x6a>
    2a08:	77 23       	and	r23, r23
    2a0a:	21 f0       	breq	.+8      	; 0x2a14 <__floatsisf+0x54>
    2a0c:	9e e8       	ldi	r25, 0x8E	; 142
    2a0e:	87 2f       	mov	r24, r23
    2a10:	76 2f       	mov	r23, r22
    2a12:	05 c0       	rjmp	.+10     	; 0x2a1e <__floatsisf+0x5e>
    2a14:	66 23       	and	r22, r22
    2a16:	71 f0       	breq	.+28     	; 0x2a34 <__floatsisf+0x74>
    2a18:	96 e8       	ldi	r25, 0x86	; 134
    2a1a:	86 2f       	mov	r24, r22
    2a1c:	70 e0       	ldi	r23, 0x00	; 0
    2a1e:	60 e0       	ldi	r22, 0x00	; 0
    2a20:	2a f0       	brmi	.+10     	; 0x2a2c <__floatsisf+0x6c>
    2a22:	9a 95       	dec	r25
    2a24:	66 0f       	add	r22, r22
    2a26:	77 1f       	adc	r23, r23
    2a28:	88 1f       	adc	r24, r24
    2a2a:	da f7       	brpl	.-10     	; 0x2a22 <__floatsisf+0x62>
    2a2c:	88 0f       	add	r24, r24
    2a2e:	96 95       	lsr	r25
    2a30:	87 95       	ror	r24
    2a32:	97 f9       	bld	r25, 7
    2a34:	08 95       	ret

00002a36 <__fp_cmp>:
    2a36:	99 0f       	add	r25, r25
    2a38:	00 08       	sbc	r0, r0
    2a3a:	55 0f       	add	r21, r21
    2a3c:	aa 0b       	sbc	r26, r26
    2a3e:	e0 e8       	ldi	r30, 0x80	; 128
    2a40:	fe ef       	ldi	r31, 0xFE	; 254
    2a42:	16 16       	cp	r1, r22
    2a44:	17 06       	cpc	r1, r23
    2a46:	e8 07       	cpc	r30, r24
    2a48:	f9 07       	cpc	r31, r25
    2a4a:	c0 f0       	brcs	.+48     	; 0x2a7c <__fp_cmp+0x46>
    2a4c:	12 16       	cp	r1, r18
    2a4e:	13 06       	cpc	r1, r19
    2a50:	e4 07       	cpc	r30, r20
    2a52:	f5 07       	cpc	r31, r21
    2a54:	98 f0       	brcs	.+38     	; 0x2a7c <__fp_cmp+0x46>
    2a56:	62 1b       	sub	r22, r18
    2a58:	73 0b       	sbc	r23, r19
    2a5a:	84 0b       	sbc	r24, r20
    2a5c:	95 0b       	sbc	r25, r21
    2a5e:	39 f4       	brne	.+14     	; 0x2a6e <__fp_cmp+0x38>
    2a60:	0a 26       	eor	r0, r26
    2a62:	61 f0       	breq	.+24     	; 0x2a7c <__fp_cmp+0x46>
    2a64:	23 2b       	or	r18, r19
    2a66:	24 2b       	or	r18, r20
    2a68:	25 2b       	or	r18, r21
    2a6a:	21 f4       	brne	.+8      	; 0x2a74 <__fp_cmp+0x3e>
    2a6c:	08 95       	ret
    2a6e:	0a 26       	eor	r0, r26
    2a70:	09 f4       	brne	.+2      	; 0x2a74 <__fp_cmp+0x3e>
    2a72:	a1 40       	sbci	r26, 0x01	; 1
    2a74:	a6 95       	lsr	r26
    2a76:	8f ef       	ldi	r24, 0xFF	; 255
    2a78:	81 1d       	adc	r24, r1
    2a7a:	81 1d       	adc	r24, r1
    2a7c:	08 95       	ret

00002a7e <__fp_inf>:
    2a7e:	97 f9       	bld	r25, 7
    2a80:	9f 67       	ori	r25, 0x7F	; 127
    2a82:	80 e8       	ldi	r24, 0x80	; 128
    2a84:	70 e0       	ldi	r23, 0x00	; 0
    2a86:	60 e0       	ldi	r22, 0x00	; 0
    2a88:	08 95       	ret

00002a8a <__fp_nan>:
    2a8a:	9f ef       	ldi	r25, 0xFF	; 255
    2a8c:	80 ec       	ldi	r24, 0xC0	; 192
    2a8e:	08 95       	ret

00002a90 <__fp_pscA>:
    2a90:	00 24       	eor	r0, r0
    2a92:	0a 94       	dec	r0
    2a94:	16 16       	cp	r1, r22
    2a96:	17 06       	cpc	r1, r23
    2a98:	18 06       	cpc	r1, r24
    2a9a:	09 06       	cpc	r0, r25
    2a9c:	08 95       	ret

00002a9e <__fp_pscB>:
    2a9e:	00 24       	eor	r0, r0
    2aa0:	0a 94       	dec	r0
    2aa2:	12 16       	cp	r1, r18
    2aa4:	13 06       	cpc	r1, r19
    2aa6:	14 06       	cpc	r1, r20
    2aa8:	05 06       	cpc	r0, r21
    2aaa:	08 95       	ret

00002aac <__fp_round>:
    2aac:	09 2e       	mov	r0, r25
    2aae:	03 94       	inc	r0
    2ab0:	00 0c       	add	r0, r0
    2ab2:	11 f4       	brne	.+4      	; 0x2ab8 <__fp_round+0xc>
    2ab4:	88 23       	and	r24, r24
    2ab6:	52 f0       	brmi	.+20     	; 0x2acc <__fp_round+0x20>
    2ab8:	bb 0f       	add	r27, r27
    2aba:	40 f4       	brcc	.+16     	; 0x2acc <__fp_round+0x20>
    2abc:	bf 2b       	or	r27, r31
    2abe:	11 f4       	brne	.+4      	; 0x2ac4 <__fp_round+0x18>
    2ac0:	60 ff       	sbrs	r22, 0
    2ac2:	04 c0       	rjmp	.+8      	; 0x2acc <__fp_round+0x20>
    2ac4:	6f 5f       	subi	r22, 0xFF	; 255
    2ac6:	7f 4f       	sbci	r23, 0xFF	; 255
    2ac8:	8f 4f       	sbci	r24, 0xFF	; 255
    2aca:	9f 4f       	sbci	r25, 0xFF	; 255
    2acc:	08 95       	ret

00002ace <__fp_split3>:
    2ace:	57 fd       	sbrc	r21, 7
    2ad0:	90 58       	subi	r25, 0x80	; 128
    2ad2:	44 0f       	add	r20, r20
    2ad4:	55 1f       	adc	r21, r21
    2ad6:	59 f0       	breq	.+22     	; 0x2aee <__fp_splitA+0x10>
    2ad8:	5f 3f       	cpi	r21, 0xFF	; 255
    2ada:	71 f0       	breq	.+28     	; 0x2af8 <__fp_splitA+0x1a>
    2adc:	47 95       	ror	r20

00002ade <__fp_splitA>:
    2ade:	88 0f       	add	r24, r24
    2ae0:	97 fb       	bst	r25, 7
    2ae2:	99 1f       	adc	r25, r25
    2ae4:	61 f0       	breq	.+24     	; 0x2afe <__fp_splitA+0x20>
    2ae6:	9f 3f       	cpi	r25, 0xFF	; 255
    2ae8:	79 f0       	breq	.+30     	; 0x2b08 <__fp_splitA+0x2a>
    2aea:	87 95       	ror	r24
    2aec:	08 95       	ret
    2aee:	12 16       	cp	r1, r18
    2af0:	13 06       	cpc	r1, r19
    2af2:	14 06       	cpc	r1, r20
    2af4:	55 1f       	adc	r21, r21
    2af6:	f2 cf       	rjmp	.-28     	; 0x2adc <__fp_split3+0xe>
    2af8:	46 95       	lsr	r20
    2afa:	f1 df       	rcall	.-30     	; 0x2ade <__fp_splitA>
    2afc:	08 c0       	rjmp	.+16     	; 0x2b0e <__fp_splitA+0x30>
    2afe:	16 16       	cp	r1, r22
    2b00:	17 06       	cpc	r1, r23
    2b02:	18 06       	cpc	r1, r24
    2b04:	99 1f       	adc	r25, r25
    2b06:	f1 cf       	rjmp	.-30     	; 0x2aea <__fp_splitA+0xc>
    2b08:	86 95       	lsr	r24
    2b0a:	71 05       	cpc	r23, r1
    2b0c:	61 05       	cpc	r22, r1
    2b0e:	08 94       	sec
    2b10:	08 95       	ret

00002b12 <__fp_zero>:
    2b12:	e8 94       	clt

00002b14 <__fp_szero>:
    2b14:	bb 27       	eor	r27, r27
    2b16:	66 27       	eor	r22, r22
    2b18:	77 27       	eor	r23, r23
    2b1a:	cb 01       	movw	r24, r22
    2b1c:	97 f9       	bld	r25, 7
    2b1e:	08 95       	ret

00002b20 <__gesf2>:
    2b20:	8a df       	rcall	.-236    	; 0x2a36 <__fp_cmp>
    2b22:	08 f4       	brcc	.+2      	; 0x2b26 <__gesf2+0x6>
    2b24:	8f ef       	ldi	r24, 0xFF	; 255
    2b26:	08 95       	ret

00002b28 <__mulsf3>:
    2b28:	0b d0       	rcall	.+22     	; 0x2b40 <__mulsf3x>
    2b2a:	c0 cf       	rjmp	.-128    	; 0x2aac <__fp_round>
    2b2c:	b1 df       	rcall	.-158    	; 0x2a90 <__fp_pscA>
    2b2e:	28 f0       	brcs	.+10     	; 0x2b3a <__mulsf3+0x12>
    2b30:	b6 df       	rcall	.-148    	; 0x2a9e <__fp_pscB>
    2b32:	18 f0       	brcs	.+6      	; 0x2b3a <__mulsf3+0x12>
    2b34:	95 23       	and	r25, r21
    2b36:	09 f0       	breq	.+2      	; 0x2b3a <__mulsf3+0x12>
    2b38:	a2 cf       	rjmp	.-188    	; 0x2a7e <__fp_inf>
    2b3a:	a7 cf       	rjmp	.-178    	; 0x2a8a <__fp_nan>
    2b3c:	11 24       	eor	r1, r1
    2b3e:	ea cf       	rjmp	.-44     	; 0x2b14 <__fp_szero>

00002b40 <__mulsf3x>:
    2b40:	c6 df       	rcall	.-116    	; 0x2ace <__fp_split3>
    2b42:	a0 f3       	brcs	.-24     	; 0x2b2c <__mulsf3+0x4>

00002b44 <__mulsf3_pse>:
    2b44:	95 9f       	mul	r25, r21
    2b46:	d1 f3       	breq	.-12     	; 0x2b3c <__mulsf3+0x14>
    2b48:	95 0f       	add	r25, r21
    2b4a:	50 e0       	ldi	r21, 0x00	; 0
    2b4c:	55 1f       	adc	r21, r21
    2b4e:	62 9f       	mul	r22, r18
    2b50:	f0 01       	movw	r30, r0
    2b52:	72 9f       	mul	r23, r18
    2b54:	bb 27       	eor	r27, r27
    2b56:	f0 0d       	add	r31, r0
    2b58:	b1 1d       	adc	r27, r1
    2b5a:	63 9f       	mul	r22, r19
    2b5c:	aa 27       	eor	r26, r26
    2b5e:	f0 0d       	add	r31, r0
    2b60:	b1 1d       	adc	r27, r1
    2b62:	aa 1f       	adc	r26, r26
    2b64:	64 9f       	mul	r22, r20
    2b66:	66 27       	eor	r22, r22
    2b68:	b0 0d       	add	r27, r0
    2b6a:	a1 1d       	adc	r26, r1
    2b6c:	66 1f       	adc	r22, r22
    2b6e:	82 9f       	mul	r24, r18
    2b70:	22 27       	eor	r18, r18
    2b72:	b0 0d       	add	r27, r0
    2b74:	a1 1d       	adc	r26, r1
    2b76:	62 1f       	adc	r22, r18
    2b78:	73 9f       	mul	r23, r19
    2b7a:	b0 0d       	add	r27, r0
    2b7c:	a1 1d       	adc	r26, r1
    2b7e:	62 1f       	adc	r22, r18
    2b80:	83 9f       	mul	r24, r19
    2b82:	a0 0d       	add	r26, r0
    2b84:	61 1d       	adc	r22, r1
    2b86:	22 1f       	adc	r18, r18
    2b88:	74 9f       	mul	r23, r20
    2b8a:	33 27       	eor	r19, r19
    2b8c:	a0 0d       	add	r26, r0
    2b8e:	61 1d       	adc	r22, r1
    2b90:	23 1f       	adc	r18, r19
    2b92:	84 9f       	mul	r24, r20
    2b94:	60 0d       	add	r22, r0
    2b96:	21 1d       	adc	r18, r1
    2b98:	82 2f       	mov	r24, r18
    2b9a:	76 2f       	mov	r23, r22
    2b9c:	6a 2f       	mov	r22, r26
    2b9e:	11 24       	eor	r1, r1
    2ba0:	9f 57       	subi	r25, 0x7F	; 127
    2ba2:	50 40       	sbci	r21, 0x00	; 0
    2ba4:	8a f0       	brmi	.+34     	; 0x2bc8 <__mulsf3_pse+0x84>
    2ba6:	e1 f0       	breq	.+56     	; 0x2be0 <__mulsf3_pse+0x9c>
    2ba8:	88 23       	and	r24, r24
    2baa:	4a f0       	brmi	.+18     	; 0x2bbe <__mulsf3_pse+0x7a>
    2bac:	ee 0f       	add	r30, r30
    2bae:	ff 1f       	adc	r31, r31
    2bb0:	bb 1f       	adc	r27, r27
    2bb2:	66 1f       	adc	r22, r22
    2bb4:	77 1f       	adc	r23, r23
    2bb6:	88 1f       	adc	r24, r24
    2bb8:	91 50       	subi	r25, 0x01	; 1
    2bba:	50 40       	sbci	r21, 0x00	; 0
    2bbc:	a9 f7       	brne	.-22     	; 0x2ba8 <__mulsf3_pse+0x64>
    2bbe:	9e 3f       	cpi	r25, 0xFE	; 254
    2bc0:	51 05       	cpc	r21, r1
    2bc2:	70 f0       	brcs	.+28     	; 0x2be0 <__mulsf3_pse+0x9c>
    2bc4:	5c cf       	rjmp	.-328    	; 0x2a7e <__fp_inf>
    2bc6:	a6 cf       	rjmp	.-180    	; 0x2b14 <__fp_szero>
    2bc8:	5f 3f       	cpi	r21, 0xFF	; 255
    2bca:	ec f3       	brlt	.-6      	; 0x2bc6 <__mulsf3_pse+0x82>
    2bcc:	98 3e       	cpi	r25, 0xE8	; 232
    2bce:	dc f3       	brlt	.-10     	; 0x2bc6 <__mulsf3_pse+0x82>
    2bd0:	86 95       	lsr	r24
    2bd2:	77 95       	ror	r23
    2bd4:	67 95       	ror	r22
    2bd6:	b7 95       	ror	r27
    2bd8:	f7 95       	ror	r31
    2bda:	e7 95       	ror	r30
    2bdc:	9f 5f       	subi	r25, 0xFF	; 255
    2bde:	c1 f7       	brne	.-16     	; 0x2bd0 <__mulsf3_pse+0x8c>
    2be0:	fe 2b       	or	r31, r30
    2be2:	88 0f       	add	r24, r24
    2be4:	91 1d       	adc	r25, r1
    2be6:	96 95       	lsr	r25
    2be8:	87 95       	ror	r24
    2bea:	97 f9       	bld	r25, 7
    2bec:	08 95       	ret

00002bee <atoi>:
    2bee:	fc 01       	movw	r30, r24
    2bf0:	88 27       	eor	r24, r24
    2bf2:	99 27       	eor	r25, r25
    2bf4:	e8 94       	clt
    2bf6:	21 91       	ld	r18, Z+
    2bf8:	20 32       	cpi	r18, 0x20	; 32
    2bfa:	e9 f3       	breq	.-6      	; 0x2bf6 <atoi+0x8>
    2bfc:	29 30       	cpi	r18, 0x09	; 9
    2bfe:	10 f0       	brcs	.+4      	; 0x2c04 <atoi+0x16>
    2c00:	2e 30       	cpi	r18, 0x0E	; 14
    2c02:	c8 f3       	brcs	.-14     	; 0x2bf6 <atoi+0x8>
    2c04:	2b 32       	cpi	r18, 0x2B	; 43
    2c06:	41 f0       	breq	.+16     	; 0x2c18 <atoi+0x2a>
    2c08:	2d 32       	cpi	r18, 0x2D	; 45
    2c0a:	39 f4       	brne	.+14     	; 0x2c1a <atoi+0x2c>
    2c0c:	68 94       	set
    2c0e:	04 c0       	rjmp	.+8      	; 0x2c18 <atoi+0x2a>
    2c10:	0e 94 2c 16 	call	0x2c58	; 0x2c58 <__mulhi_const_10>
    2c14:	82 0f       	add	r24, r18
    2c16:	91 1d       	adc	r25, r1
    2c18:	21 91       	ld	r18, Z+
    2c1a:	20 53       	subi	r18, 0x30	; 48
    2c1c:	2a 30       	cpi	r18, 0x0A	; 10
    2c1e:	c0 f3       	brcs	.-16     	; 0x2c10 <atoi+0x22>
    2c20:	1e f4       	brtc	.+6      	; 0x2c28 <atoi+0x3a>
    2c22:	90 95       	com	r25
    2c24:	81 95       	neg	r24
    2c26:	9f 4f       	sbci	r25, 0xFF	; 255
    2c28:	08 95       	ret

00002c2a <memcpy>:
    2c2a:	fb 01       	movw	r30, r22
    2c2c:	dc 01       	movw	r26, r24
    2c2e:	02 c0       	rjmp	.+4      	; 0x2c34 <memcpy+0xa>
    2c30:	01 90       	ld	r0, Z+
    2c32:	0d 92       	st	X+, r0
    2c34:	41 50       	subi	r20, 0x01	; 1
    2c36:	50 40       	sbci	r21, 0x00	; 0
    2c38:	d8 f7       	brcc	.-10     	; 0x2c30 <memcpy+0x6>
    2c3a:	08 95       	ret

00002c3c <strncmp>:
    2c3c:	fb 01       	movw	r30, r22
    2c3e:	dc 01       	movw	r26, r24
    2c40:	41 50       	subi	r20, 0x01	; 1
    2c42:	50 40       	sbci	r21, 0x00	; 0
    2c44:	30 f0       	brcs	.+12     	; 0x2c52 <strncmp+0x16>
    2c46:	8d 91       	ld	r24, X+
    2c48:	01 90       	ld	r0, Z+
    2c4a:	80 19       	sub	r24, r0
    2c4c:	19 f4       	brne	.+6      	; 0x2c54 <strncmp+0x18>
    2c4e:	00 20       	and	r0, r0
    2c50:	b9 f7       	brne	.-18     	; 0x2c40 <strncmp+0x4>
    2c52:	88 1b       	sub	r24, r24
    2c54:	99 0b       	sbc	r25, r25
    2c56:	08 95       	ret

00002c58 <__mulhi_const_10>:
    2c58:	7a e0       	ldi	r23, 0x0A	; 10
    2c5a:	97 9f       	mul	r25, r23
    2c5c:	90 2d       	mov	r25, r0
    2c5e:	87 9f       	mul	r24, r23
    2c60:	80 2d       	mov	r24, r0
    2c62:	91 0d       	add	r25, r1
    2c64:	11 24       	eor	r1, r1
    2c66:	08 95       	ret

00002c68 <vsprintf>:
    2c68:	0f 93       	push	r16
    2c6a:	1f 93       	push	r17
    2c6c:	cf 93       	push	r28
    2c6e:	df 93       	push	r29
    2c70:	cd b7       	in	r28, 0x3d	; 61
    2c72:	de b7       	in	r29, 0x3e	; 62
    2c74:	2e 97       	sbiw	r28, 0x0e	; 14
    2c76:	0f b6       	in	r0, 0x3f	; 63
    2c78:	f8 94       	cli
    2c7a:	de bf       	out	0x3e, r29	; 62
    2c7c:	0f be       	out	0x3f, r0	; 63
    2c7e:	cd bf       	out	0x3d, r28	; 61
    2c80:	8c 01       	movw	r16, r24
    2c82:	86 e0       	ldi	r24, 0x06	; 6
    2c84:	8c 83       	std	Y+4, r24	; 0x04
    2c86:	1a 83       	std	Y+2, r17	; 0x02
    2c88:	09 83       	std	Y+1, r16	; 0x01
    2c8a:	8f ef       	ldi	r24, 0xFF	; 255
    2c8c:	9f e7       	ldi	r25, 0x7F	; 127
    2c8e:	9e 83       	std	Y+6, r25	; 0x06
    2c90:	8d 83       	std	Y+5, r24	; 0x05
    2c92:	ce 01       	movw	r24, r28
    2c94:	01 96       	adiw	r24, 0x01	; 1
    2c96:	0e 94 5d 16 	call	0x2cba	; 0x2cba <vfprintf>
    2c9a:	ef 81       	ldd	r30, Y+7	; 0x07
    2c9c:	f8 85       	ldd	r31, Y+8	; 0x08
    2c9e:	e0 0f       	add	r30, r16
    2ca0:	f1 1f       	adc	r31, r17
    2ca2:	10 82       	st	Z, r1
    2ca4:	2e 96       	adiw	r28, 0x0e	; 14
    2ca6:	0f b6       	in	r0, 0x3f	; 63
    2ca8:	f8 94       	cli
    2caa:	de bf       	out	0x3e, r29	; 62
    2cac:	0f be       	out	0x3f, r0	; 63
    2cae:	cd bf       	out	0x3d, r28	; 61
    2cb0:	df 91       	pop	r29
    2cb2:	cf 91       	pop	r28
    2cb4:	1f 91       	pop	r17
    2cb6:	0f 91       	pop	r16
    2cb8:	08 95       	ret

00002cba <vfprintf>:
    2cba:	2f 92       	push	r2
    2cbc:	3f 92       	push	r3
    2cbe:	4f 92       	push	r4
    2cc0:	5f 92       	push	r5
    2cc2:	6f 92       	push	r6
    2cc4:	7f 92       	push	r7
    2cc6:	8f 92       	push	r8
    2cc8:	9f 92       	push	r9
    2cca:	af 92       	push	r10
    2ccc:	bf 92       	push	r11
    2cce:	cf 92       	push	r12
    2cd0:	df 92       	push	r13
    2cd2:	ef 92       	push	r14
    2cd4:	ff 92       	push	r15
    2cd6:	0f 93       	push	r16
    2cd8:	1f 93       	push	r17
    2cda:	cf 93       	push	r28
    2cdc:	df 93       	push	r29
    2cde:	cd b7       	in	r28, 0x3d	; 61
    2ce0:	de b7       	in	r29, 0x3e	; 62
    2ce2:	2d 97       	sbiw	r28, 0x0d	; 13
    2ce4:	0f b6       	in	r0, 0x3f	; 63
    2ce6:	f8 94       	cli
    2ce8:	de bf       	out	0x3e, r29	; 62
    2cea:	0f be       	out	0x3f, r0	; 63
    2cec:	cd bf       	out	0x3d, r28	; 61
    2cee:	3c 01       	movw	r6, r24
    2cf0:	7d 87       	std	Y+13, r23	; 0x0d
    2cf2:	6c 87       	std	Y+12, r22	; 0x0c
    2cf4:	5a 01       	movw	r10, r20
    2cf6:	fc 01       	movw	r30, r24
    2cf8:	17 82       	std	Z+7, r1	; 0x07
    2cfa:	16 82       	std	Z+6, r1	; 0x06
    2cfc:	83 81       	ldd	r24, Z+3	; 0x03
    2cfe:	81 ff       	sbrs	r24, 1
    2d00:	c8 c1       	rjmp	.+912    	; 0x3092 <vfprintf+0x3d8>
    2d02:	2e 01       	movw	r4, r28
    2d04:	08 94       	sec
    2d06:	41 1c       	adc	r4, r1
    2d08:	51 1c       	adc	r5, r1
    2d0a:	f3 01       	movw	r30, r6
    2d0c:	93 81       	ldd	r25, Z+3	; 0x03
    2d0e:	ec 85       	ldd	r30, Y+12	; 0x0c
    2d10:	fd 85       	ldd	r31, Y+13	; 0x0d
    2d12:	93 fd       	sbrc	r25, 3
    2d14:	85 91       	lpm	r24, Z+
    2d16:	93 ff       	sbrs	r25, 3
    2d18:	81 91       	ld	r24, Z+
    2d1a:	fd 87       	std	Y+13, r31	; 0x0d
    2d1c:	ec 87       	std	Y+12, r30	; 0x0c
    2d1e:	88 23       	and	r24, r24
    2d20:	09 f4       	brne	.+2      	; 0x2d24 <vfprintf+0x6a>
    2d22:	b3 c1       	rjmp	.+870    	; 0x308a <vfprintf+0x3d0>
    2d24:	85 32       	cpi	r24, 0x25	; 37
    2d26:	41 f4       	brne	.+16     	; 0x2d38 <vfprintf+0x7e>
    2d28:	93 fd       	sbrc	r25, 3
    2d2a:	85 91       	lpm	r24, Z+
    2d2c:	93 ff       	sbrs	r25, 3
    2d2e:	81 91       	ld	r24, Z+
    2d30:	fd 87       	std	Y+13, r31	; 0x0d
    2d32:	ec 87       	std	Y+12, r30	; 0x0c
    2d34:	85 32       	cpi	r24, 0x25	; 37
    2d36:	29 f4       	brne	.+10     	; 0x2d42 <vfprintf+0x88>
    2d38:	90 e0       	ldi	r25, 0x00	; 0
    2d3a:	b3 01       	movw	r22, r6
    2d3c:	0e 94 7a 18 	call	0x30f4	; 0x30f4 <fputc>
    2d40:	e4 cf       	rjmp	.-56     	; 0x2d0a <vfprintf+0x50>
    2d42:	ff 24       	eor	r15, r15
    2d44:	ee 24       	eor	r14, r14
    2d46:	10 e0       	ldi	r17, 0x00	; 0
    2d48:	10 32       	cpi	r17, 0x20	; 32
    2d4a:	b0 f4       	brcc	.+44     	; 0x2d78 <vfprintf+0xbe>
    2d4c:	8b 32       	cpi	r24, 0x2B	; 43
    2d4e:	69 f0       	breq	.+26     	; 0x2d6a <vfprintf+0xb0>
    2d50:	8c 32       	cpi	r24, 0x2C	; 44
    2d52:	28 f4       	brcc	.+10     	; 0x2d5e <vfprintf+0xa4>
    2d54:	80 32       	cpi	r24, 0x20	; 32
    2d56:	51 f0       	breq	.+20     	; 0x2d6c <vfprintf+0xb2>
    2d58:	83 32       	cpi	r24, 0x23	; 35
    2d5a:	71 f4       	brne	.+28     	; 0x2d78 <vfprintf+0xbe>
    2d5c:	0b c0       	rjmp	.+22     	; 0x2d74 <vfprintf+0xba>
    2d5e:	8d 32       	cpi	r24, 0x2D	; 45
    2d60:	39 f0       	breq	.+14     	; 0x2d70 <vfprintf+0xb6>
    2d62:	80 33       	cpi	r24, 0x30	; 48
    2d64:	49 f4       	brne	.+18     	; 0x2d78 <vfprintf+0xbe>
    2d66:	11 60       	ori	r17, 0x01	; 1
    2d68:	2c c0       	rjmp	.+88     	; 0x2dc2 <vfprintf+0x108>
    2d6a:	12 60       	ori	r17, 0x02	; 2
    2d6c:	14 60       	ori	r17, 0x04	; 4
    2d6e:	29 c0       	rjmp	.+82     	; 0x2dc2 <vfprintf+0x108>
    2d70:	18 60       	ori	r17, 0x08	; 8
    2d72:	27 c0       	rjmp	.+78     	; 0x2dc2 <vfprintf+0x108>
    2d74:	10 61       	ori	r17, 0x10	; 16
    2d76:	25 c0       	rjmp	.+74     	; 0x2dc2 <vfprintf+0x108>
    2d78:	17 fd       	sbrc	r17, 7
    2d7a:	2e c0       	rjmp	.+92     	; 0x2dd8 <vfprintf+0x11e>
    2d7c:	28 2f       	mov	r18, r24
    2d7e:	20 53       	subi	r18, 0x30	; 48
    2d80:	2a 30       	cpi	r18, 0x0A	; 10
    2d82:	98 f4       	brcc	.+38     	; 0x2daa <vfprintf+0xf0>
    2d84:	16 ff       	sbrs	r17, 6
    2d86:	08 c0       	rjmp	.+16     	; 0x2d98 <vfprintf+0xde>
    2d88:	8f 2d       	mov	r24, r15
    2d8a:	88 0f       	add	r24, r24
    2d8c:	f8 2e       	mov	r15, r24
    2d8e:	ff 0c       	add	r15, r15
    2d90:	ff 0c       	add	r15, r15
    2d92:	f8 0e       	add	r15, r24
    2d94:	f2 0e       	add	r15, r18
    2d96:	15 c0       	rjmp	.+42     	; 0x2dc2 <vfprintf+0x108>
    2d98:	8e 2d       	mov	r24, r14
    2d9a:	88 0f       	add	r24, r24
    2d9c:	e8 2e       	mov	r14, r24
    2d9e:	ee 0c       	add	r14, r14
    2da0:	ee 0c       	add	r14, r14
    2da2:	e8 0e       	add	r14, r24
    2da4:	e2 0e       	add	r14, r18
    2da6:	10 62       	ori	r17, 0x20	; 32
    2da8:	0c c0       	rjmp	.+24     	; 0x2dc2 <vfprintf+0x108>
    2daa:	8e 32       	cpi	r24, 0x2E	; 46
    2dac:	21 f4       	brne	.+8      	; 0x2db6 <vfprintf+0xfc>
    2dae:	16 fd       	sbrc	r17, 6
    2db0:	6c c1       	rjmp	.+728    	; 0x308a <vfprintf+0x3d0>
    2db2:	10 64       	ori	r17, 0x40	; 64
    2db4:	06 c0       	rjmp	.+12     	; 0x2dc2 <vfprintf+0x108>
    2db6:	8c 36       	cpi	r24, 0x6C	; 108
    2db8:	11 f4       	brne	.+4      	; 0x2dbe <vfprintf+0x104>
    2dba:	10 68       	ori	r17, 0x80	; 128
    2dbc:	02 c0       	rjmp	.+4      	; 0x2dc2 <vfprintf+0x108>
    2dbe:	88 36       	cpi	r24, 0x68	; 104
    2dc0:	59 f4       	brne	.+22     	; 0x2dd8 <vfprintf+0x11e>
    2dc2:	ec 85       	ldd	r30, Y+12	; 0x0c
    2dc4:	fd 85       	ldd	r31, Y+13	; 0x0d
    2dc6:	93 fd       	sbrc	r25, 3
    2dc8:	85 91       	lpm	r24, Z+
    2dca:	93 ff       	sbrs	r25, 3
    2dcc:	81 91       	ld	r24, Z+
    2dce:	fd 87       	std	Y+13, r31	; 0x0d
    2dd0:	ec 87       	std	Y+12, r30	; 0x0c
    2dd2:	88 23       	and	r24, r24
    2dd4:	09 f0       	breq	.+2      	; 0x2dd8 <vfprintf+0x11e>
    2dd6:	b8 cf       	rjmp	.-144    	; 0x2d48 <vfprintf+0x8e>
    2dd8:	98 2f       	mov	r25, r24
    2dda:	95 54       	subi	r25, 0x45	; 69
    2ddc:	93 30       	cpi	r25, 0x03	; 3
    2dde:	18 f0       	brcs	.+6      	; 0x2de6 <vfprintf+0x12c>
    2de0:	90 52       	subi	r25, 0x20	; 32
    2de2:	93 30       	cpi	r25, 0x03	; 3
    2de4:	38 f4       	brcc	.+14     	; 0x2df4 <vfprintf+0x13a>
    2de6:	24 e0       	ldi	r18, 0x04	; 4
    2de8:	30 e0       	ldi	r19, 0x00	; 0
    2dea:	a2 0e       	add	r10, r18
    2dec:	b3 1e       	adc	r11, r19
    2dee:	3f e3       	ldi	r19, 0x3F	; 63
    2df0:	39 83       	std	Y+1, r19	; 0x01
    2df2:	0f c0       	rjmp	.+30     	; 0x2e12 <vfprintf+0x158>
    2df4:	83 36       	cpi	r24, 0x63	; 99
    2df6:	31 f0       	breq	.+12     	; 0x2e04 <vfprintf+0x14a>
    2df8:	83 37       	cpi	r24, 0x73	; 115
    2dfa:	81 f0       	breq	.+32     	; 0x2e1c <vfprintf+0x162>
    2dfc:	83 35       	cpi	r24, 0x53	; 83
    2dfe:	09 f0       	breq	.+2      	; 0x2e02 <vfprintf+0x148>
    2e00:	5a c0       	rjmp	.+180    	; 0x2eb6 <vfprintf+0x1fc>
    2e02:	22 c0       	rjmp	.+68     	; 0x2e48 <vfprintf+0x18e>
    2e04:	f5 01       	movw	r30, r10
    2e06:	80 81       	ld	r24, Z
    2e08:	89 83       	std	Y+1, r24	; 0x01
    2e0a:	22 e0       	ldi	r18, 0x02	; 2
    2e0c:	30 e0       	ldi	r19, 0x00	; 0
    2e0e:	a2 0e       	add	r10, r18
    2e10:	b3 1e       	adc	r11, r19
    2e12:	21 e0       	ldi	r18, 0x01	; 1
    2e14:	c2 2e       	mov	r12, r18
    2e16:	d1 2c       	mov	r13, r1
    2e18:	42 01       	movw	r8, r4
    2e1a:	14 c0       	rjmp	.+40     	; 0x2e44 <vfprintf+0x18a>
    2e1c:	92 e0       	ldi	r25, 0x02	; 2
    2e1e:	29 2e       	mov	r2, r25
    2e20:	31 2c       	mov	r3, r1
    2e22:	2a 0c       	add	r2, r10
    2e24:	3b 1c       	adc	r3, r11
    2e26:	f5 01       	movw	r30, r10
    2e28:	80 80       	ld	r8, Z
    2e2a:	91 80       	ldd	r9, Z+1	; 0x01
    2e2c:	16 ff       	sbrs	r17, 6
    2e2e:	03 c0       	rjmp	.+6      	; 0x2e36 <vfprintf+0x17c>
    2e30:	6f 2d       	mov	r22, r15
    2e32:	70 e0       	ldi	r23, 0x00	; 0
    2e34:	02 c0       	rjmp	.+4      	; 0x2e3a <vfprintf+0x180>
    2e36:	6f ef       	ldi	r22, 0xFF	; 255
    2e38:	7f ef       	ldi	r23, 0xFF	; 255
    2e3a:	c4 01       	movw	r24, r8
    2e3c:	0e 94 6f 18 	call	0x30de	; 0x30de <strnlen>
    2e40:	6c 01       	movw	r12, r24
    2e42:	51 01       	movw	r10, r2
    2e44:	1f 77       	andi	r17, 0x7F	; 127
    2e46:	15 c0       	rjmp	.+42     	; 0x2e72 <vfprintf+0x1b8>
    2e48:	82 e0       	ldi	r24, 0x02	; 2
    2e4a:	28 2e       	mov	r2, r24
    2e4c:	31 2c       	mov	r3, r1
    2e4e:	2a 0c       	add	r2, r10
    2e50:	3b 1c       	adc	r3, r11
    2e52:	f5 01       	movw	r30, r10
    2e54:	80 80       	ld	r8, Z
    2e56:	91 80       	ldd	r9, Z+1	; 0x01
    2e58:	16 ff       	sbrs	r17, 6
    2e5a:	03 c0       	rjmp	.+6      	; 0x2e62 <vfprintf+0x1a8>
    2e5c:	6f 2d       	mov	r22, r15
    2e5e:	70 e0       	ldi	r23, 0x00	; 0
    2e60:	02 c0       	rjmp	.+4      	; 0x2e66 <vfprintf+0x1ac>
    2e62:	6f ef       	ldi	r22, 0xFF	; 255
    2e64:	7f ef       	ldi	r23, 0xFF	; 255
    2e66:	c4 01       	movw	r24, r8
    2e68:	0e 94 64 18 	call	0x30c8	; 0x30c8 <strnlen_P>
    2e6c:	6c 01       	movw	r12, r24
    2e6e:	10 68       	ori	r17, 0x80	; 128
    2e70:	51 01       	movw	r10, r2
    2e72:	13 fd       	sbrc	r17, 3
    2e74:	1c c0       	rjmp	.+56     	; 0x2eae <vfprintf+0x1f4>
    2e76:	06 c0       	rjmp	.+12     	; 0x2e84 <vfprintf+0x1ca>
    2e78:	80 e2       	ldi	r24, 0x20	; 32
    2e7a:	90 e0       	ldi	r25, 0x00	; 0
    2e7c:	b3 01       	movw	r22, r6
    2e7e:	0e 94 7a 18 	call	0x30f4	; 0x30f4 <fputc>
    2e82:	ea 94       	dec	r14
    2e84:	8e 2d       	mov	r24, r14
    2e86:	90 e0       	ldi	r25, 0x00	; 0
    2e88:	c8 16       	cp	r12, r24
    2e8a:	d9 06       	cpc	r13, r25
    2e8c:	a8 f3       	brcs	.-22     	; 0x2e78 <vfprintf+0x1be>
    2e8e:	0f c0       	rjmp	.+30     	; 0x2eae <vfprintf+0x1f4>
    2e90:	f4 01       	movw	r30, r8
    2e92:	17 fd       	sbrc	r17, 7
    2e94:	85 91       	lpm	r24, Z+
    2e96:	17 ff       	sbrs	r17, 7
    2e98:	81 91       	ld	r24, Z+
    2e9a:	4f 01       	movw	r8, r30
    2e9c:	90 e0       	ldi	r25, 0x00	; 0
    2e9e:	b3 01       	movw	r22, r6
    2ea0:	0e 94 7a 18 	call	0x30f4	; 0x30f4 <fputc>
    2ea4:	e1 10       	cpse	r14, r1
    2ea6:	ea 94       	dec	r14
    2ea8:	08 94       	sec
    2eaa:	c1 08       	sbc	r12, r1
    2eac:	d1 08       	sbc	r13, r1
    2eae:	c1 14       	cp	r12, r1
    2eb0:	d1 04       	cpc	r13, r1
    2eb2:	71 f7       	brne	.-36     	; 0x2e90 <vfprintf+0x1d6>
    2eb4:	e7 c0       	rjmp	.+462    	; 0x3084 <vfprintf+0x3ca>
    2eb6:	84 36       	cpi	r24, 0x64	; 100
    2eb8:	11 f0       	breq	.+4      	; 0x2ebe <vfprintf+0x204>
    2eba:	89 36       	cpi	r24, 0x69	; 105
    2ebc:	51 f5       	brne	.+84     	; 0x2f12 <vfprintf+0x258>
    2ebe:	f5 01       	movw	r30, r10
    2ec0:	17 ff       	sbrs	r17, 7
    2ec2:	07 c0       	rjmp	.+14     	; 0x2ed2 <vfprintf+0x218>
    2ec4:	80 81       	ld	r24, Z
    2ec6:	91 81       	ldd	r25, Z+1	; 0x01
    2ec8:	a2 81       	ldd	r26, Z+2	; 0x02
    2eca:	b3 81       	ldd	r27, Z+3	; 0x03
    2ecc:	24 e0       	ldi	r18, 0x04	; 4
    2ece:	30 e0       	ldi	r19, 0x00	; 0
    2ed0:	08 c0       	rjmp	.+16     	; 0x2ee2 <vfprintf+0x228>
    2ed2:	80 81       	ld	r24, Z
    2ed4:	91 81       	ldd	r25, Z+1	; 0x01
    2ed6:	aa 27       	eor	r26, r26
    2ed8:	97 fd       	sbrc	r25, 7
    2eda:	a0 95       	com	r26
    2edc:	ba 2f       	mov	r27, r26
    2ede:	22 e0       	ldi	r18, 0x02	; 2
    2ee0:	30 e0       	ldi	r19, 0x00	; 0
    2ee2:	a2 0e       	add	r10, r18
    2ee4:	b3 1e       	adc	r11, r19
    2ee6:	01 2f       	mov	r16, r17
    2ee8:	0f 76       	andi	r16, 0x6F	; 111
    2eea:	b7 ff       	sbrs	r27, 7
    2eec:	08 c0       	rjmp	.+16     	; 0x2efe <vfprintf+0x244>
    2eee:	b0 95       	com	r27
    2ef0:	a0 95       	com	r26
    2ef2:	90 95       	com	r25
    2ef4:	81 95       	neg	r24
    2ef6:	9f 4f       	sbci	r25, 0xFF	; 255
    2ef8:	af 4f       	sbci	r26, 0xFF	; 255
    2efa:	bf 4f       	sbci	r27, 0xFF	; 255
    2efc:	00 68       	ori	r16, 0x80	; 128
    2efe:	bc 01       	movw	r22, r24
    2f00:	cd 01       	movw	r24, r26
    2f02:	a2 01       	movw	r20, r4
    2f04:	2a e0       	ldi	r18, 0x0A	; 10
    2f06:	30 e0       	ldi	r19, 0x00	; 0
    2f08:	0e 94 a6 18 	call	0x314c	; 0x314c <__ultoa_invert>
    2f0c:	d8 2e       	mov	r13, r24
    2f0e:	d4 18       	sub	r13, r4
    2f10:	3f c0       	rjmp	.+126    	; 0x2f90 <vfprintf+0x2d6>
    2f12:	85 37       	cpi	r24, 0x75	; 117
    2f14:	21 f4       	brne	.+8      	; 0x2f1e <vfprintf+0x264>
    2f16:	1f 7e       	andi	r17, 0xEF	; 239
    2f18:	2a e0       	ldi	r18, 0x0A	; 10
    2f1a:	30 e0       	ldi	r19, 0x00	; 0
    2f1c:	20 c0       	rjmp	.+64     	; 0x2f5e <vfprintf+0x2a4>
    2f1e:	19 7f       	andi	r17, 0xF9	; 249
    2f20:	8f 36       	cpi	r24, 0x6F	; 111
    2f22:	a9 f0       	breq	.+42     	; 0x2f4e <vfprintf+0x294>
    2f24:	80 37       	cpi	r24, 0x70	; 112
    2f26:	20 f4       	brcc	.+8      	; 0x2f30 <vfprintf+0x276>
    2f28:	88 35       	cpi	r24, 0x58	; 88
    2f2a:	09 f0       	breq	.+2      	; 0x2f2e <vfprintf+0x274>
    2f2c:	ae c0       	rjmp	.+348    	; 0x308a <vfprintf+0x3d0>
    2f2e:	0b c0       	rjmp	.+22     	; 0x2f46 <vfprintf+0x28c>
    2f30:	80 37       	cpi	r24, 0x70	; 112
    2f32:	21 f0       	breq	.+8      	; 0x2f3c <vfprintf+0x282>
    2f34:	88 37       	cpi	r24, 0x78	; 120
    2f36:	09 f0       	breq	.+2      	; 0x2f3a <vfprintf+0x280>
    2f38:	a8 c0       	rjmp	.+336    	; 0x308a <vfprintf+0x3d0>
    2f3a:	01 c0       	rjmp	.+2      	; 0x2f3e <vfprintf+0x284>
    2f3c:	10 61       	ori	r17, 0x10	; 16
    2f3e:	14 ff       	sbrs	r17, 4
    2f40:	09 c0       	rjmp	.+18     	; 0x2f54 <vfprintf+0x29a>
    2f42:	14 60       	ori	r17, 0x04	; 4
    2f44:	07 c0       	rjmp	.+14     	; 0x2f54 <vfprintf+0x29a>
    2f46:	14 ff       	sbrs	r17, 4
    2f48:	08 c0       	rjmp	.+16     	; 0x2f5a <vfprintf+0x2a0>
    2f4a:	16 60       	ori	r17, 0x06	; 6
    2f4c:	06 c0       	rjmp	.+12     	; 0x2f5a <vfprintf+0x2a0>
    2f4e:	28 e0       	ldi	r18, 0x08	; 8
    2f50:	30 e0       	ldi	r19, 0x00	; 0
    2f52:	05 c0       	rjmp	.+10     	; 0x2f5e <vfprintf+0x2a4>
    2f54:	20 e1       	ldi	r18, 0x10	; 16
    2f56:	30 e0       	ldi	r19, 0x00	; 0
    2f58:	02 c0       	rjmp	.+4      	; 0x2f5e <vfprintf+0x2a4>
    2f5a:	20 e1       	ldi	r18, 0x10	; 16
    2f5c:	32 e0       	ldi	r19, 0x02	; 2
    2f5e:	f5 01       	movw	r30, r10
    2f60:	17 ff       	sbrs	r17, 7
    2f62:	07 c0       	rjmp	.+14     	; 0x2f72 <vfprintf+0x2b8>
    2f64:	60 81       	ld	r22, Z
    2f66:	71 81       	ldd	r23, Z+1	; 0x01
    2f68:	82 81       	ldd	r24, Z+2	; 0x02
    2f6a:	93 81       	ldd	r25, Z+3	; 0x03
    2f6c:	44 e0       	ldi	r20, 0x04	; 4
    2f6e:	50 e0       	ldi	r21, 0x00	; 0
    2f70:	06 c0       	rjmp	.+12     	; 0x2f7e <vfprintf+0x2c4>
    2f72:	60 81       	ld	r22, Z
    2f74:	71 81       	ldd	r23, Z+1	; 0x01
    2f76:	80 e0       	ldi	r24, 0x00	; 0
    2f78:	90 e0       	ldi	r25, 0x00	; 0
    2f7a:	42 e0       	ldi	r20, 0x02	; 2
    2f7c:	50 e0       	ldi	r21, 0x00	; 0
    2f7e:	a4 0e       	add	r10, r20
    2f80:	b5 1e       	adc	r11, r21
    2f82:	a2 01       	movw	r20, r4
    2f84:	0e 94 a6 18 	call	0x314c	; 0x314c <__ultoa_invert>
    2f88:	d8 2e       	mov	r13, r24
    2f8a:	d4 18       	sub	r13, r4
    2f8c:	01 2f       	mov	r16, r17
    2f8e:	0f 77       	andi	r16, 0x7F	; 127
    2f90:	06 ff       	sbrs	r16, 6
    2f92:	09 c0       	rjmp	.+18     	; 0x2fa6 <vfprintf+0x2ec>
    2f94:	0e 7f       	andi	r16, 0xFE	; 254
    2f96:	df 14       	cp	r13, r15
    2f98:	30 f4       	brcc	.+12     	; 0x2fa6 <vfprintf+0x2ec>
    2f9a:	04 ff       	sbrs	r16, 4
    2f9c:	06 c0       	rjmp	.+12     	; 0x2faa <vfprintf+0x2f0>
    2f9e:	02 fd       	sbrc	r16, 2
    2fa0:	04 c0       	rjmp	.+8      	; 0x2faa <vfprintf+0x2f0>
    2fa2:	0f 7e       	andi	r16, 0xEF	; 239
    2fa4:	02 c0       	rjmp	.+4      	; 0x2faa <vfprintf+0x2f0>
    2fa6:	1d 2d       	mov	r17, r13
    2fa8:	01 c0       	rjmp	.+2      	; 0x2fac <vfprintf+0x2f2>
    2faa:	1f 2d       	mov	r17, r15
    2fac:	80 2f       	mov	r24, r16
    2fae:	90 e0       	ldi	r25, 0x00	; 0
    2fb0:	04 ff       	sbrs	r16, 4
    2fb2:	0c c0       	rjmp	.+24     	; 0x2fcc <vfprintf+0x312>
    2fb4:	fe 01       	movw	r30, r28
    2fb6:	ed 0d       	add	r30, r13
    2fb8:	f1 1d       	adc	r31, r1
    2fba:	20 81       	ld	r18, Z
    2fbc:	20 33       	cpi	r18, 0x30	; 48
    2fbe:	11 f4       	brne	.+4      	; 0x2fc4 <vfprintf+0x30a>
    2fc0:	09 7e       	andi	r16, 0xE9	; 233
    2fc2:	09 c0       	rjmp	.+18     	; 0x2fd6 <vfprintf+0x31c>
    2fc4:	02 ff       	sbrs	r16, 2
    2fc6:	06 c0       	rjmp	.+12     	; 0x2fd4 <vfprintf+0x31a>
    2fc8:	1e 5f       	subi	r17, 0xFE	; 254
    2fca:	05 c0       	rjmp	.+10     	; 0x2fd6 <vfprintf+0x31c>
    2fcc:	86 78       	andi	r24, 0x86	; 134
    2fce:	90 70       	andi	r25, 0x00	; 0
    2fd0:	00 97       	sbiw	r24, 0x00	; 0
    2fd2:	09 f0       	breq	.+2      	; 0x2fd6 <vfprintf+0x31c>
    2fd4:	1f 5f       	subi	r17, 0xFF	; 255
    2fd6:	80 2e       	mov	r8, r16
    2fd8:	99 24       	eor	r9, r9
    2fda:	03 fd       	sbrc	r16, 3
    2fdc:	12 c0       	rjmp	.+36     	; 0x3002 <vfprintf+0x348>
    2fde:	00 ff       	sbrs	r16, 0
    2fe0:	0d c0       	rjmp	.+26     	; 0x2ffc <vfprintf+0x342>
    2fe2:	fd 2c       	mov	r15, r13
    2fe4:	1e 15       	cp	r17, r14
    2fe6:	50 f4       	brcc	.+20     	; 0x2ffc <vfprintf+0x342>
    2fe8:	fe 0c       	add	r15, r14
    2fea:	f1 1a       	sub	r15, r17
    2fec:	1e 2d       	mov	r17, r14
    2fee:	06 c0       	rjmp	.+12     	; 0x2ffc <vfprintf+0x342>
    2ff0:	80 e2       	ldi	r24, 0x20	; 32
    2ff2:	90 e0       	ldi	r25, 0x00	; 0
    2ff4:	b3 01       	movw	r22, r6
    2ff6:	0e 94 7a 18 	call	0x30f4	; 0x30f4 <fputc>
    2ffa:	1f 5f       	subi	r17, 0xFF	; 255
    2ffc:	1e 15       	cp	r17, r14
    2ffe:	c0 f3       	brcs	.-16     	; 0x2ff0 <vfprintf+0x336>
    3000:	04 c0       	rjmp	.+8      	; 0x300a <vfprintf+0x350>
    3002:	1e 15       	cp	r17, r14
    3004:	10 f4       	brcc	.+4      	; 0x300a <vfprintf+0x350>
    3006:	e1 1a       	sub	r14, r17
    3008:	01 c0       	rjmp	.+2      	; 0x300c <vfprintf+0x352>
    300a:	ee 24       	eor	r14, r14
    300c:	84 fe       	sbrs	r8, 4
    300e:	0f c0       	rjmp	.+30     	; 0x302e <vfprintf+0x374>
    3010:	80 e3       	ldi	r24, 0x30	; 48
    3012:	90 e0       	ldi	r25, 0x00	; 0
    3014:	b3 01       	movw	r22, r6
    3016:	0e 94 7a 18 	call	0x30f4	; 0x30f4 <fputc>
    301a:	82 fe       	sbrs	r8, 2
    301c:	1f c0       	rjmp	.+62     	; 0x305c <vfprintf+0x3a2>
    301e:	81 fe       	sbrs	r8, 1
    3020:	03 c0       	rjmp	.+6      	; 0x3028 <vfprintf+0x36e>
    3022:	88 e5       	ldi	r24, 0x58	; 88
    3024:	90 e0       	ldi	r25, 0x00	; 0
    3026:	10 c0       	rjmp	.+32     	; 0x3048 <vfprintf+0x38e>
    3028:	88 e7       	ldi	r24, 0x78	; 120
    302a:	90 e0       	ldi	r25, 0x00	; 0
    302c:	0d c0       	rjmp	.+26     	; 0x3048 <vfprintf+0x38e>
    302e:	c4 01       	movw	r24, r8
    3030:	86 78       	andi	r24, 0x86	; 134
    3032:	90 70       	andi	r25, 0x00	; 0
    3034:	00 97       	sbiw	r24, 0x00	; 0
    3036:	91 f0       	breq	.+36     	; 0x305c <vfprintf+0x3a2>
    3038:	81 fc       	sbrc	r8, 1
    303a:	02 c0       	rjmp	.+4      	; 0x3040 <vfprintf+0x386>
    303c:	80 e2       	ldi	r24, 0x20	; 32
    303e:	01 c0       	rjmp	.+2      	; 0x3042 <vfprintf+0x388>
    3040:	8b e2       	ldi	r24, 0x2B	; 43
    3042:	07 fd       	sbrc	r16, 7
    3044:	8d e2       	ldi	r24, 0x2D	; 45
    3046:	90 e0       	ldi	r25, 0x00	; 0
    3048:	b3 01       	movw	r22, r6
    304a:	0e 94 7a 18 	call	0x30f4	; 0x30f4 <fputc>
    304e:	06 c0       	rjmp	.+12     	; 0x305c <vfprintf+0x3a2>
    3050:	80 e3       	ldi	r24, 0x30	; 48
    3052:	90 e0       	ldi	r25, 0x00	; 0
    3054:	b3 01       	movw	r22, r6
    3056:	0e 94 7a 18 	call	0x30f4	; 0x30f4 <fputc>
    305a:	fa 94       	dec	r15
    305c:	df 14       	cp	r13, r15
    305e:	c0 f3       	brcs	.-16     	; 0x3050 <vfprintf+0x396>
    3060:	da 94       	dec	r13
    3062:	f2 01       	movw	r30, r4
    3064:	ed 0d       	add	r30, r13
    3066:	f1 1d       	adc	r31, r1
    3068:	80 81       	ld	r24, Z
    306a:	90 e0       	ldi	r25, 0x00	; 0
    306c:	b3 01       	movw	r22, r6
    306e:	0e 94 7a 18 	call	0x30f4	; 0x30f4 <fputc>
    3072:	dd 20       	and	r13, r13
    3074:	a9 f7       	brne	.-22     	; 0x3060 <vfprintf+0x3a6>
    3076:	06 c0       	rjmp	.+12     	; 0x3084 <vfprintf+0x3ca>
    3078:	80 e2       	ldi	r24, 0x20	; 32
    307a:	90 e0       	ldi	r25, 0x00	; 0
    307c:	b3 01       	movw	r22, r6
    307e:	0e 94 7a 18 	call	0x30f4	; 0x30f4 <fputc>
    3082:	ea 94       	dec	r14
    3084:	ee 20       	and	r14, r14
    3086:	c1 f7       	brne	.-16     	; 0x3078 <vfprintf+0x3be>
    3088:	40 ce       	rjmp	.-896    	; 0x2d0a <vfprintf+0x50>
    308a:	f3 01       	movw	r30, r6
    308c:	86 81       	ldd	r24, Z+6	; 0x06
    308e:	97 81       	ldd	r25, Z+7	; 0x07
    3090:	02 c0       	rjmp	.+4      	; 0x3096 <vfprintf+0x3dc>
    3092:	8f ef       	ldi	r24, 0xFF	; 255
    3094:	9f ef       	ldi	r25, 0xFF	; 255
    3096:	2d 96       	adiw	r28, 0x0d	; 13
    3098:	0f b6       	in	r0, 0x3f	; 63
    309a:	f8 94       	cli
    309c:	de bf       	out	0x3e, r29	; 62
    309e:	0f be       	out	0x3f, r0	; 63
    30a0:	cd bf       	out	0x3d, r28	; 61
    30a2:	df 91       	pop	r29
    30a4:	cf 91       	pop	r28
    30a6:	1f 91       	pop	r17
    30a8:	0f 91       	pop	r16
    30aa:	ff 90       	pop	r15
    30ac:	ef 90       	pop	r14
    30ae:	df 90       	pop	r13
    30b0:	cf 90       	pop	r12
    30b2:	bf 90       	pop	r11
    30b4:	af 90       	pop	r10
    30b6:	9f 90       	pop	r9
    30b8:	8f 90       	pop	r8
    30ba:	7f 90       	pop	r7
    30bc:	6f 90       	pop	r6
    30be:	5f 90       	pop	r5
    30c0:	4f 90       	pop	r4
    30c2:	3f 90       	pop	r3
    30c4:	2f 90       	pop	r2
    30c6:	08 95       	ret

000030c8 <strnlen_P>:
    30c8:	fc 01       	movw	r30, r24
    30ca:	05 90       	lpm	r0, Z+
    30cc:	61 50       	subi	r22, 0x01	; 1
    30ce:	70 40       	sbci	r23, 0x00	; 0
    30d0:	01 10       	cpse	r0, r1
    30d2:	d8 f7       	brcc	.-10     	; 0x30ca <strnlen_P+0x2>
    30d4:	80 95       	com	r24
    30d6:	90 95       	com	r25
    30d8:	8e 0f       	add	r24, r30
    30da:	9f 1f       	adc	r25, r31
    30dc:	08 95       	ret

000030de <strnlen>:
    30de:	fc 01       	movw	r30, r24
    30e0:	61 50       	subi	r22, 0x01	; 1
    30e2:	70 40       	sbci	r23, 0x00	; 0
    30e4:	01 90       	ld	r0, Z+
    30e6:	01 10       	cpse	r0, r1
    30e8:	d8 f7       	brcc	.-10     	; 0x30e0 <strnlen+0x2>
    30ea:	80 95       	com	r24
    30ec:	90 95       	com	r25
    30ee:	8e 0f       	add	r24, r30
    30f0:	9f 1f       	adc	r25, r31
    30f2:	08 95       	ret

000030f4 <fputc>:
    30f4:	0f 93       	push	r16
    30f6:	1f 93       	push	r17
    30f8:	cf 93       	push	r28
    30fa:	df 93       	push	r29
    30fc:	8c 01       	movw	r16, r24
    30fe:	eb 01       	movw	r28, r22
    3100:	8b 81       	ldd	r24, Y+3	; 0x03
    3102:	81 ff       	sbrs	r24, 1
    3104:	1b c0       	rjmp	.+54     	; 0x313c <fputc+0x48>
    3106:	82 ff       	sbrs	r24, 2
    3108:	0d c0       	rjmp	.+26     	; 0x3124 <fputc+0x30>
    310a:	2e 81       	ldd	r18, Y+6	; 0x06
    310c:	3f 81       	ldd	r19, Y+7	; 0x07
    310e:	8c 81       	ldd	r24, Y+4	; 0x04
    3110:	9d 81       	ldd	r25, Y+5	; 0x05
    3112:	28 17       	cp	r18, r24
    3114:	39 07       	cpc	r19, r25
    3116:	64 f4       	brge	.+24     	; 0x3130 <fputc+0x3c>
    3118:	e8 81       	ld	r30, Y
    311a:	f9 81       	ldd	r31, Y+1	; 0x01
    311c:	01 93       	st	Z+, r16
    311e:	f9 83       	std	Y+1, r31	; 0x01
    3120:	e8 83       	st	Y, r30
    3122:	06 c0       	rjmp	.+12     	; 0x3130 <fputc+0x3c>
    3124:	e8 85       	ldd	r30, Y+8	; 0x08
    3126:	f9 85       	ldd	r31, Y+9	; 0x09
    3128:	80 2f       	mov	r24, r16
    312a:	19 95       	eicall
    312c:	00 97       	sbiw	r24, 0x00	; 0
    312e:	31 f4       	brne	.+12     	; 0x313c <fputc+0x48>
    3130:	8e 81       	ldd	r24, Y+6	; 0x06
    3132:	9f 81       	ldd	r25, Y+7	; 0x07
    3134:	01 96       	adiw	r24, 0x01	; 1
    3136:	9f 83       	std	Y+7, r25	; 0x07
    3138:	8e 83       	std	Y+6, r24	; 0x06
    313a:	02 c0       	rjmp	.+4      	; 0x3140 <fputc+0x4c>
    313c:	0f ef       	ldi	r16, 0xFF	; 255
    313e:	1f ef       	ldi	r17, 0xFF	; 255
    3140:	c8 01       	movw	r24, r16
    3142:	df 91       	pop	r29
    3144:	cf 91       	pop	r28
    3146:	1f 91       	pop	r17
    3148:	0f 91       	pop	r16
    314a:	08 95       	ret

0000314c <__ultoa_invert>:
    314c:	fa 01       	movw	r30, r20
    314e:	aa 27       	eor	r26, r26
    3150:	28 30       	cpi	r18, 0x08	; 8
    3152:	51 f1       	breq	.+84     	; 0x31a8 <__ultoa_invert+0x5c>
    3154:	20 31       	cpi	r18, 0x10	; 16
    3156:	81 f1       	breq	.+96     	; 0x31b8 <__ultoa_invert+0x6c>
    3158:	e8 94       	clt
    315a:	6f 93       	push	r22
    315c:	6e 7f       	andi	r22, 0xFE	; 254
    315e:	6e 5f       	subi	r22, 0xFE	; 254
    3160:	7f 4f       	sbci	r23, 0xFF	; 255
    3162:	8f 4f       	sbci	r24, 0xFF	; 255
    3164:	9f 4f       	sbci	r25, 0xFF	; 255
    3166:	af 4f       	sbci	r26, 0xFF	; 255
    3168:	b1 e0       	ldi	r27, 0x01	; 1
    316a:	3e d0       	rcall	.+124    	; 0x31e8 <__ultoa_invert+0x9c>
    316c:	b4 e0       	ldi	r27, 0x04	; 4
    316e:	3c d0       	rcall	.+120    	; 0x31e8 <__ultoa_invert+0x9c>
    3170:	67 0f       	add	r22, r23
    3172:	78 1f       	adc	r23, r24
    3174:	89 1f       	adc	r24, r25
    3176:	9a 1f       	adc	r25, r26
    3178:	a1 1d       	adc	r26, r1
    317a:	68 0f       	add	r22, r24
    317c:	79 1f       	adc	r23, r25
    317e:	8a 1f       	adc	r24, r26
    3180:	91 1d       	adc	r25, r1
    3182:	a1 1d       	adc	r26, r1
    3184:	6a 0f       	add	r22, r26
    3186:	71 1d       	adc	r23, r1
    3188:	81 1d       	adc	r24, r1
    318a:	91 1d       	adc	r25, r1
    318c:	a1 1d       	adc	r26, r1
    318e:	20 d0       	rcall	.+64     	; 0x31d0 <__ultoa_invert+0x84>
    3190:	09 f4       	brne	.+2      	; 0x3194 <__ultoa_invert+0x48>
    3192:	68 94       	set
    3194:	3f 91       	pop	r19
    3196:	2a e0       	ldi	r18, 0x0A	; 10
    3198:	26 9f       	mul	r18, r22
    319a:	11 24       	eor	r1, r1
    319c:	30 19       	sub	r19, r0
    319e:	30 5d       	subi	r19, 0xD0	; 208
    31a0:	31 93       	st	Z+, r19
    31a2:	de f6       	brtc	.-74     	; 0x315a <__ultoa_invert+0xe>
    31a4:	cf 01       	movw	r24, r30
    31a6:	08 95       	ret
    31a8:	46 2f       	mov	r20, r22
    31aa:	47 70       	andi	r20, 0x07	; 7
    31ac:	40 5d       	subi	r20, 0xD0	; 208
    31ae:	41 93       	st	Z+, r20
    31b0:	b3 e0       	ldi	r27, 0x03	; 3
    31b2:	0f d0       	rcall	.+30     	; 0x31d2 <__ultoa_invert+0x86>
    31b4:	c9 f7       	brne	.-14     	; 0x31a8 <__ultoa_invert+0x5c>
    31b6:	f6 cf       	rjmp	.-20     	; 0x31a4 <__ultoa_invert+0x58>
    31b8:	46 2f       	mov	r20, r22
    31ba:	4f 70       	andi	r20, 0x0F	; 15
    31bc:	40 5d       	subi	r20, 0xD0	; 208
    31be:	4a 33       	cpi	r20, 0x3A	; 58
    31c0:	18 f0       	brcs	.+6      	; 0x31c8 <__ultoa_invert+0x7c>
    31c2:	49 5d       	subi	r20, 0xD9	; 217
    31c4:	31 fd       	sbrc	r19, 1
    31c6:	40 52       	subi	r20, 0x20	; 32
    31c8:	41 93       	st	Z+, r20
    31ca:	02 d0       	rcall	.+4      	; 0x31d0 <__ultoa_invert+0x84>
    31cc:	a9 f7       	brne	.-22     	; 0x31b8 <__ultoa_invert+0x6c>
    31ce:	ea cf       	rjmp	.-44     	; 0x31a4 <__ultoa_invert+0x58>
    31d0:	b4 e0       	ldi	r27, 0x04	; 4
    31d2:	a6 95       	lsr	r26
    31d4:	97 95       	ror	r25
    31d6:	87 95       	ror	r24
    31d8:	77 95       	ror	r23
    31da:	67 95       	ror	r22
    31dc:	ba 95       	dec	r27
    31de:	c9 f7       	brne	.-14     	; 0x31d2 <__ultoa_invert+0x86>
    31e0:	00 97       	sbiw	r24, 0x00	; 0
    31e2:	61 05       	cpc	r22, r1
    31e4:	71 05       	cpc	r23, r1
    31e6:	08 95       	ret
    31e8:	9b 01       	movw	r18, r22
    31ea:	ac 01       	movw	r20, r24
    31ec:	0a 2e       	mov	r0, r26
    31ee:	06 94       	lsr	r0
    31f0:	57 95       	ror	r21
    31f2:	47 95       	ror	r20
    31f4:	37 95       	ror	r19
    31f6:	27 95       	ror	r18
    31f8:	ba 95       	dec	r27
    31fa:	c9 f7       	brne	.-14     	; 0x31ee <__ultoa_invert+0xa2>
    31fc:	62 0f       	add	r22, r18
    31fe:	73 1f       	adc	r23, r19
    3200:	84 1f       	adc	r24, r20
    3202:	95 1f       	adc	r25, r21
    3204:	a0 1d       	adc	r26, r0
    3206:	08 95       	ret

00003208 <_exit>:
    3208:	f8 94       	cli

0000320a <__stop_program>:
    320a:	ff cf       	rjmp	.-2      	; 0x320a <__stop_program>
